ccopy_reg
_reconstructor
p1
(cBio.SeqRecord
SeqRecord
p2
c__builtin__
object
p3
NtRp4
(dp5
S'dbxrefs'
p6
(lp7
sS'description'
p8
S'HWI-700L170C:163:H9Y2VADXX:1:1101:6862:2075 1:N:0:GCGGAC'
p9
sS'annotations'
p10
(dp11
sS'features'
p12
(lp13
sS'_seq'
p14
g1
(cBio.Seq
Seq
p15
g3
NtRp16
(dp17
S'alphabet'
p18
g1
(cBio.Alphabet
SingleLetterAlphabet
p19
g3
NtRp20
sS'_data'
p21
S'GCGACCACCACAGTTATAAGATCGG'
p22
sbsS'_per_letter_annotations'
p23
g1
(cBio.SeqRecord
_RestrictedDict
p24
c__builtin__
dict
p25
(dp26
S'phred_quality'
p27
(lp28
I34
aI34
aI34
aI37
aI37
aI37
aI37
aI37
aI39
aI39
aI39
aI39
aI39
aI41
aI41
aI41
aI41
aI41
aI41
aI41
aI41
aI41
aI41
aI41
aI41
astRp29
(dp30
S'_length'
p31
I25
sbsS'id'
p32
S'HWI-700L170C:163:H9Y2VADXX:1:1101:6862:2075'
p33
sS'name'
p34
g33
sb.