(dp1
S'GCGGAC'
p2
(dp3
S'TCCTCCCCTTCACCTCGAAGATCGG'
p4
I1
sS'ATAATATTCGTGAACCGCAGATCGG'
p5
I1
sS'CGCCCTTTAACCAGACCAAGATCGG'
p6
I1
sS'GCGACCACCACAGTTATAAGATCGG'
p7
I1
sS'TAGCTGTCGAAGGCAATGAGATCGG'
p8
I1
sS'CCCGCTCCCACCAATGGAGATCGGA'
p9
I1
sS'TAACTGTCCTGCTTGATAAGATCGG'
p10
I1
sS'AGTTGTCGAGGATTCTAAAGATCGG'
p11
I1
sS'TCGTGGAAAATGAAGTGTAGATCGG'
p12
I1
sS'CACGGGTGAGTACGTCACAGATCGG'
p13
I1
sS'CTACGGGGAGTTTTGGGGAGATCGG'
p14
I1
sS'CAGGGGCGTCAGGGAGCGAGATCGG'
p15
I1
sS'GGGATCTAATGCGGAAACAGATCGG'
p16
I1
sS'NCGTATGTTCGGGTGCTTAGATCGG'
p17
I1
ssS'CTCTAC'
p18
(dp19
S'CATGACAAATGGTGCGAGAGATCGG'
p20
I1
sS'GTGGGATACCTTCCTAGTAGATCGG'
p21
I1
sS'TGACACGACTGAGTCTCAAGATCGG'
p22
I1
sS'CTCCCCCGTACACCCTTAAGATCGG'
p23
I1
ssS'TTGACT'
p24
(dp25
S'AGGGGACTGCCCTGAGCTAGATCGG'
p26
I1
sS'TCTTTCCTTGGTGTGCCGAGATCGG'
p27
I1
sS'TCCAAGGAATATAACAAGAGATCGG'
p28
I1
sS'NAGATTATTGGTTTCATTAGATCGG'
p29
I1
ssS'TGACAT'
p30
(dp31
S'AGACGTAGGAAGGAAGCCAGATCGG'
p32
I1
ssS'GGACGG'
p33
(dp34
S'GGTCCGTGGCTGGTGTGGAGATCGG'
p35
I1
sS'NTAAGTTGTACTGAATGTAGATCGG'
p36
I1
sS'CCGCACCTAGTCGGAACAAGATCGG'
p37
I1
sS'GGAGCTGAGACTAATCCGAGATCGG'
p38
I1
sS'GCCAAGGGTCGGATTGTGAGATCGG'
p39
I1
sS'GCGCGAGATTTTCGGAGGAGATCGG'
p40
I1
sS'GCTATTCCCCGCGAGCGTAGATCGG'
p41
I1
sS'NTCTACATCAATCAGAGAAGATCGG'
p42
I1
sS'AAAGAGAAAGGTGCTGTAAGATCGG'
p43
I1
sS'TCAGAGGATATTACTTGAAGATCGG'
p44
I1
sS'TAAGGGTCAGCCTGGGAGAGATCGG'
p45
I1
sS'GGGTATGAACTTCTAAGCAGATCGG'
p46
I1
ssS'GGAACT'
p47
(dp48
S'TGGGGTGTGCAGTCTTCTAGATCGG'
p49
I1
sS'ACGGCATCTGTGTCGGAAAGATCGG'
p50
I1
sS'AATAAATTGAACATTTGGAGATCGG'
p51
I2
ss.