(dp1
S'GCGGAC'
p2
(lp3
(ccopy_reg
_reconstructor
p4
(cBio.Seq
Seq
p5
c__builtin__
object
p6
NtRp7
(dp8
S'alphabet'
p9
g4
(cBio.Alphabet
SingleLetterAlphabet
p10
g6
NtRp11
sS'_data'
p12
S'CTACGGGGAGTTTTGGGGAGATCGG'
p13
sb(lp14
I34
aI34
aI34
aI37
aI37
aI37
aI37
aI37
aI39
aI39
aI39
aI39
aI39
aI41
aI41
aI41
aI41
aI41
aI41
aI41
aI40
aI41
aI41
aI41
aI41
atp15
a(g4
(g5
g6
NtRp16
(dp17
g9
g11
sg12
S'CGCCCTTTAACCAGACCAAGATCGG'
p18
sb(lp19
I34
aI34
aI34
aI37
aI37
aI37
aI37
aI37
aI39
aI39
aI39
aI39
aI39
aI41
aI40
aI41
aI41
aI41
aI41
aI41
aI41
aI34
aI38
aI38
aI40
atp20
a(g4
(g5
g6
NtRp21
(dp22
g9
g11
sg12
S'AGTTGTCGAGGATTCTAAAGATCGG'
p23
sb(lp24
I31
aI31
aI34
aI37
aI37
aI37
aI37
aI37
aI39
aI39
aI39
aI39
aI39
aI41
aI41
aI41
aI40
aI41
aI41
aI41
aI41
aI41
aI41
aI41
aI41
atp25
a(g4
(g5
g6
NtRp26
(dp27
g9
g11
sg12
S'GGGATCTAATGCGGAAACAGATCGG'
p28
sb(lp29
I34
aI34
aI34
aI37
aI37
aI37
aI37
aI37
aI39
aI39
aI39
aI39
aI39
aI41
aI41
aI41
aI41
aI41
aI41
aI41
aI41
aI41
aI41
aI41
aI41
atp30
a(g4
(g5
g6
NtRp31
(dp32
g9
g11
sg12
S'CAGGGGCGTCAGGGAGCGAGATCGG'
p33
sb(lp34
I34
aI34
aI34
aI37
aI37
aI37
aI37
aI37
aI37
aI37
aI39
aI39
aI39
aI40
aI40
aI40
aI40
aI40
aI40
aI40
aI38
aI34
aI39
aI38
aI38
atp35
a(g4
(g5
g6
NtRp36
(dp37
g9
g11
sg12
S'TAGCTGTCGAAGGCAATGAGATCGG'
p38
sb(lp39
I34
aI34
aI34
aI37
aI37
aI37
aI37
aI37
aI38
aI39
aI39
aI39
aI39
aI41
aI41
aI41
aI41
aI41
aI41
aI41
aI38
aI31
aI38
aI38
aI40
atp40
a(g4
(g5
g6
NtRp41
(dp42
g9
g11
sg12
S'TCCTCCCCTTCACCTCGAAGATCGG'
p43
sb(lp44
I34
aI34
aI34
aI37
aI37
aI37
aI37
aI37
aI39
aI39
aI39
aI39
aI39
aI41
aI41
aI41
aI41
aI41
aI41
aI41
aI41
aI41
aI41
aI41
aI41
atp45
a(g4
(g5
g6
NtRp46
(dp47
g9
g11
sg12
S'TAACTGTCCTGCTTGATAAGATCGG'
p48
sb(lp49
I34
aI34
aI34
aI37
aI37
aI37
aI37
aI37
aI39
aI39
aI39
aI39
aI39
aI41
aI41
aI41
aI41
aI41
aI41
aI41
aI41
aI41
aI41
aI41
aI41
atp50
a(g4
(g5
g6
NtRp51
(dp52
g9
g11
sg12
S'NCGTATGTTCGGGTGCTTAGATCGG'
p53
sb(lp54
I2
aI16
aI28
aI35
aI35
aI37
aI37
aI36
aI39
aI39
aI39
aI39
aI39
aI37
aI38
aI40
aI41
aI41
aI41
aI41
aI41
aI41
aI41
aI41
aI41
atp55
a(g4
(g5
g6
NtRp56
(dp57
g9
g11
sg12
S'CACGGGTGAGTACGTCACAGATCGG'
p58
sb(lp59
I34
aI34
aI34
aI37
aI37
aI37
aI35
aI35
aI39
aI39
aI39
aI39
aI39
aI41
aI40
aI41
aI41
aI41
aI41
aI41
aI41
aI41
aI41
aI41
aI41
atp60
a(g4
(g5
g6
NtRp61
(dp62
g9
g11
sg12
S'ATAATATTCGTGAACCGCAGATCGG'
p63
sb(lp64
I34
aI34
aI34
aI37
aI37
aI37
aI37
aI37
aI39
aI39
aI37
aI39
aI39
aI41
aI41
aI41
aI41
aI41
aI41
aI41
aI41
aI41
aI41
aI41
aI41
atp65
a(g4
(g5
g6
NtRp66
(dp67
g9
g11
sg12
S'CCCGCTCCCACCAATGGAGATCGGA'
p68
sb(lp69
I34
aI34
aI34
aI37
aI37
aI37
aI37
aI37
aI39
aI39
aI39
aI39
aI39
aI41
aI41
aI41
aI41
aI41
aI41
aI40
aI41
aI41
aI41
aI41
aI41
atp70
a(g4
(g5
g6
NtRp71
(dp72
g9
g11
sg12
S'TCGTGGAAAATGAAGTGTAGATCGG'
p73
sb(lp74
I33
aI34
aI34
aI37
aI37
aI37
aI37
aI37
aI39
aI39
aI39
aI39
aI39
aI41
aI41
aI39
aI40
aI39
aI39
aI41
aI41
aI41
aI41
aI41
aI41
atp75
a(g4
(g5
g6
NtRp76
(dp77
g9
g11
sg12
S'GCGACCACCACAGTTATAAGATCGG'
p78
sb(lp79
I34
aI34
aI34
aI37
aI37
aI37
aI37
aI37
aI39
aI39
aI39
aI39
aI39
aI41
aI41
aI41
aI41
aI41
aI41
aI41
aI41
aI41
aI41
aI41
aI41
atp80
asS'CTCTAC'
p81
(lp82
(g4
(g5
g6
NtRp83
(dp84
g9
g11
sg12
S'CTCCCCCGTACACCCTTAAGATCGG'
p85
sb(lp86
I34
aI34
aI34
aI37
aI37
aI37
aI37
aI37
aI39
aI39
aI39
aI39
aI39
aI41
aI41
aI41
aI41
aI41
aI41
aI41
aI41
aI41
aI41
aI41
aI41
atp87
a(g4
(g5
g6
NtRp88
(dp89
g9
g11
sg12
S'GTGGGATACCTTCCTAGTAGATCGG'
p90
sb(lp91
I34
aI33
aI33
aI37
aI37
aI37
aI37
aI37
aI39
aI39
aI39
aI39
aI39
aI41
aI41
aI41
aI41
aI39
aI41
aI41
aI41
aI41
aI41
aI41
aI41
atp92
a(g4
(g5
g6
NtRp93
(dp94
g9
g11
sg12
S'CATGACAAATGGTGCGAGAGATCGG'
p95
sb(lp96
I34
aI34
aI34
aI37
aI37
aI37
aI37
aI37
aI39
aI39
aI39
aI39
aI39
aI40
aI41
aI41
aI41
aI41
aI41
aI41
aI41
aI41
aI41
aI41
aI41
atp97
a(g4
(g5
g6
NtRp98
(dp99
g9
g11
sg12
S'TGACACGACTGAGTCTCAAGATCGG'
p100
sb(lp101
I34
aI34
aI34
aI37
aI37
aI37
aI37
aI37
aI39
aI39
aI39
aI39
aI39
aI39
aI41
aI41
aI41
aI41
aI41
aI41
aI41
aI41
aI41
aI41
aI41
atp102
asS'TTGACT'
p103
(lp104
(g4
(g5
g6
NtRp105
(dp106
g9
g11
sg12
S'TCTTTCCTTGGTGTGCCGAGATCGG'
p107
sb(lp108
I34
aI34
aI34
aI37
aI37
aI37
aI37
aI37
aI39
aI39
aI39
aI39
aI39
aI40
aI40
aI41
aI41
aI41
aI41
aI41
aI41
aI41
aI41
aI41
aI41
atp109
a(g4
(g5
g6
NtRp110
(dp111
g9
g11
sg12
S'AGGGGACTGCCCTGAGCTAGATCGG'
p112
sb(lp113
I34
aI34
aI34
aI37
aI37
aI37
aI37
aI37
aI39
aI39
aI39
aI39
aI39
aI41
aI41
aI41
aI41
aI41
aI41
aI41
aI41
aI41
aI41
aI41
aI41
atp114
a(g4
(g5
g6
NtRp115
(dp116
g9
g11
sg12
S'NAGATTATTGGTTTCATTAGATCGG'
p117
sb(lp118
I2
aI16
aI33
aI35
aI37
aI37
aI37
aI37
aI39
aI39
aI39
aI39
aI39
aI41
aI41
aI41
aI41
aI41
aI41
aI41
aI41
aI41
aI41
aI41
aI41
atp119
a(g4
(g5
g6
NtRp120
(dp121
g9
g11
sg12
S'TCCAAGGAATATAACAAGAGATCGG'
p122
sb(lp123
I34
aI34
aI34
aI37
aI37
aI37
aI37
aI37
aI39
aI39
aI39
aI39
aI39
aI41
aI41
aI41
aI41
aI41
aI41
aI41
aI41
aI41
aI41
aI41
aI41
atp124
asS'TGACAT'
p125
(lp126
(g4
(g5
g6
NtRp127
(dp128
g9
g11
sg12
S'AGACGTAGGAAGGAAGCCAGATCGG'
p129
sb(lp130
I34
aI34
aI34
aI37
aI37
aI37
aI37
aI37
aI39
aI39
aI39
aI39
aI39
aI41
aI41
aI41
aI41
aI41
aI41
aI41
aI41
aI41
aI41
aI41
aI41
atp131
asS'GGACGG'
p132
(lp133
(g4
(g5
g6
NtRp134
(dp135
g9
g11
sg12
S'TCAGAGGATATTACTTGAAGATCGG'
p136
sb(lp137
I34
aI34
aI34
aI37
aI37
aI37
aI37
aI37
aI39
aI39
aI39
aI39
aI39
aI41
aI41
aI41
aI41
aI41
aI41
aI41
aI41
aI41
aI41
aI41
aI41
atp138
a(g4
(g5
g6
NtRp139
(dp140
g9
g11
sg12
S'GCTATTCCCCGCGAGCGTAGATCGG'
p141
sb(lp142
I34
aI34
aI34
aI37
aI37
aI37
aI37
aI37
aI39
aI39
aI39
aI39
aI39
aI41
aI41
aI41
aI41
aI41
aI41
aI41
aI40
aI41
aI41
aI41
aI40
atp143
a(g4
(g5
g6
NtRp144
(dp145
g9
g11
sg12
S'CCGCACCTAGTCGGAACAAGATCGG'
p146
sb(lp147
I34
aI34
aI34
aI37
aI37
aI37
aI37
aI37
aI39
aI39
aI39
aI39
aI39
aI41
aI41
aI41
aI41
aI41
aI41
aI41
aI41
aI41
aI41
aI41
aI41
atp148
a(g4
(g5
g6
NtRp149
(dp150
g9
g11
sg12
S'GGTCCGTGGCTGGTGTGGAGATCGG'
p151
sb(lp152
I34
aI34
aI34
aI37
aI37
aI37
aI37
aI37
aI39
aI39
aI39
aI39
aI39
aI38
aI39
aI38
aI39
aI40
aI39
aI41
aI41
aI41
aI41
aI41
aI41
atp153
a(g4
(g5
g6
NtRp154
(dp155
g9
g11
sg12
S'GCGCGAGATTTTCGGAGGAGATCGG'
p156
sb(lp157
I34
aI34
aI34
aI37
aI37
aI37
aI37
aI37
aI39
aI39
aI39
aI39
aI39
aI41
aI41
aI41
aI41
aI41
aI41
aI41
aI41
aI41
aI41
aI41
aI41
atp158
a(g4
(g5
g6
NtRp159
(dp160
g9
g11
sg12
S'AAAGAGAAAGGTGCTGTAAGATCGG'
p161
sb(lp162
I34
aI34
aI34
aI37
aI37
aI37
aI37
aI37
aI39
aI39
aI39
aI37
aI39
aI41
aI41
aI41
aI40
aI41
aI41
aI41
aI41
aI41
aI41
aI41
aI40
atp163
a(g4
(g5
g6
NtRp164
(dp165
g9
g11
sg12
S'NTCTACATCAATCAGAGAAGATCGG'
p166
sb(lp167
I2
aI16
aI28
aI35
aI37
aI37
aI37
aI37
aI39
aI39
aI39
aI39
aI39
aI41
aI41
aI41
aI41
aI41
aI41
aI41
aI41
aI41
aI41
aI41
aI41
atp168
a(g4
(g5
g6
NtRp169
(dp170
g9
g11
sg12
S'GGGTATGAACTTCTAAGCAGATCGG'
p171
sb(lp172
I33
aI34
aI34
aI35
aI35
aI37
aI37
aI37
aI39
aI39
aI39
aI39
aI39
aI41
aI41
aI41
aI41
aI41
aI41
aI41
aI41
aI41
aI41
aI41
aI40
atp173
a(g4
(g5
g6
NtRp174
(dp175
g9
g11
sg12
S'TAAGGGTCAGCCTGGGAGAGATCGG'
p176
sb(lp177
I33
aI31
aI33
aI37
aI37
aI37
aI35
aI36
aI39
aI39
aI39
aI39
aI39
aI41
aI41
aI41
aI41
aI41
aI41
aI40
aI41
aI41
aI41
aI41
aI41
atp178
a(g4
(g5
g6
NtRp179
(dp180
g9
g11
sg12
S'NTAAGTTGTACTGAATGTAGATCGG'
p181
sb(lp182
I2
aI19
aI28
aI35
aI37
aI37
aI37
aI37
aI39
aI39
aI39
aI39
aI39
aI41
aI41
aI41
aI41
aI40
aI41
aI41
aI41
aI41
aI41
aI41
aI41
atp183
a(g4
(g5
g6
NtRp184
(dp185
g9
g11
sg12
S'GGAGCTGAGACTAATCCGAGATCGG'
p186
sb(lp187
I34
aI34
aI34
aI37
aI37
aI37
aI37
aI37
aI39
aI39
aI39
aI39
aI39
aI41
aI41
aI41
aI41
aI41
aI41
aI41
aI41
aI41
aI41
aI41
aI41
atp188
a(g4
(g5
g6
NtRp189
(dp190
g9
g11
sg12
S'GCCAAGGGTCGGATTGTGAGATCGG'
p191
sb(lp192
I34
aI34
aI34
aI37
aI37
aI37
aI37
aI37
aI39
aI39
aI39
aI39
aI39
aI41
aI41
aI41
aI40
aI41
aI41
aI41
aI41
aI41
aI41
aI41
aI41
atp193
asS'GGAACT'
p194
(lp195
(g4
(g5
g6
NtRp196
(dp197
g9
g11
sg12
S'TGGGGTGTGCAGTCTTCTAGATCGG'
p198
sb(lp199
I34
aI34
aI34
aI37
aI37
aI35
aI35
aI35
aI39
aI39
aI39
aI39
aI39
aI41
aI41
aI41
aI41
aI41
aI41
aI41
aI41
aI41
aI41
aI41
aI41
atp200
a(g4
(g5
g6
NtRp201
(dp202
g9
g11
sg12
S'ACGGCATCTGTGTCGGAAAGATCGG'
p203
sb(lp204
I34
aI34
aI34
aI37
aI37
aI37
aI37
aI37
aI39
aI39
aI39
aI39
aI39
aI41
aI41
aI41
aI41
aI41
aI41
aI41
aI41
aI41
aI41
aI41
aI41
atp205
a(g4
(g5
g6
NtRp206
(dp207
g9
g11
sg12
S'AATAAATTGAACATTTGGAGATCGG'
p208
sb(lp209
I34
aI34
aI34
aI37
aI37
aI37
aI37
aI37
aI39
aI39
aI39
aI39
aI39
aI41
aI41
aI41
aI41
aI41
aI41
aI41
aI41
aI41
aI41
aI41
aI41
atp210
as.