(dp1
(I12
S'T'
tp2
((lp3
F12
aF13
aF14
a(lp4
F12
aF13
aF14
atp5
s(I2
S'Q'
tp6
((lp7
F2
aF3
aF4
a(lp8
F2
aF3
aF4
atp9
s(I71
S'L'
tp10
((lp11
F71
aF72
aF73
a(lp12
F71
aF72
aF73
atp13
s(I48
S'K'
tp14
((lp15
F48
aF49
aF50
a(lp16
F48
aF49
aF50
atp17
s(I61
S'I'
tp18
((lp19
F61
aF62
aF63
a(lp20
F61
aF62
aF63
atp21
s(I16
S'E'
tp22
((lp23
F16
aF17
aF18
a(lp24
F16
aF17
aF18
atp25
s(I31
S'Q'
tp26
((lp27
F31
aF32
aF33
a(lp28
F31
aF32
aF33
atp29
s(I69
S'L'
tp30
((lp31
F69
aF70
aF71
a(lp32
F69
aF70
aF71
atp33
s(I76
S'G'
tp34
((lp35
F76
aF77
aF78
a(lp36
F76
aF77
aF78
atp37
s(I72
S'R'
tp38
((lp39
F72
aF73
aF74
a(lp40
F72
aF73
aF74
atp41
s(I15
S'L'
tp42
((lp43
F15
aF16
aF17
a(lp44
F15
aF16
aF17
atp45
s(I19
S'S'
tp46
((lp47
I19
aI20
aI21
a(lp48
I19
aI20
aI21
atp49
s(I35
S'G'
tp50
((lp51
F35
aF36
aF37
a(lp52
F35
aF36
aF37
atp53
s(I33
S'K'
tp54
((lp55
F33
aF34
aF35
a(lp56
F33
aF34
aF35
atp57
s(I75
S'G'
tp58
((lp59
I75
aI76
aI77
a(lp60
I75
aI76
aI77
atp61
s(I40
S'Q'
tp62
((lp63
I40
aI41
aI42
a(lp64
I40
aI41
aI42
atp65
s(I60
S'N'
tp66
((lp67
F60
aF61
aF62
a(lp68
F60
aF61
aF62
atp69
s(I55
S'T'
tp70
((lp71
F55
aF56
aF57
a(lp72
F55
aF56
aF57
atp73
s(I43
S'L'
tp74
((lp75
F43
aF44
aF45
a(lp76
F43
aF44
aF45
atp77
s(I65
S'S'
tp78
((lp79
F65
aF66
aF67
a(lp80
F65
aF66
aF67
atp81
s(I50
S'L'
tp82
((lp83
F50
aF51
aF52
a(lp84
F50
aF51
aF52
atp85
s(I68
S'H'
tp86
((lp87
F68
aF69
aF70
a(lp88
F68
aF69
aF70
atp89
s(I1
S'M'
tp90
((lp91
F1
aF2
aF3
a(lp92
F1
aF2
aF3
atp93
s(I25
S'N'
tp94
((lp95
F25
aF26
aF27
a(lp96
F25
aF26
aF27
atp97
s(I57
S'S'
tp98
((lp99
F57
aF58
aF59
a(lp100
F57
aF58
aF59
atp101
s(I37
S'P'
tp102
((lp103
I37
aI38
aI39
a(lp104
I37
aI38
aI39
atp105
s(I29
S'K'
tp106
((lp107
F29
aF30
aF31
a(lp108
F29
aF30
aF31
atp109
s(I49
S'Q'
tp110
((lp111
F49
aF50
aF51
a(lp112
F49
aF50
aF51
atp113
s(I3
S'I'
tp114
((lp115
F3
aF4
aF5
a(lp116
F3
aF4
aF5
atp117
s(I41
S'Q'
tp118
((lp119
F41
aF42
aF43
a(lp120
F41
aF42
aF43
atp121
s(I39
S'D'
tp122
((lp123
F39
aF40
aF41
a(lp124
F39
aF40
aF41
atp125
s(I32
S'D'
tp126
((lp127
F32
aF33
aF34
a(lp128
F32
aF33
aF34
atp129
s(I62
S'Q'
tp130
((lp131
F62
aF63
aF64
a(lp132
F62
aF63
aF64
atp133
s(I14
S'T'
tp134
((lp135
F14
aF15
aF16
a(lp136
F14
aF15
aF16
atp137
s(I64
S'E'
tp138
((lp139
F64
aF65
aF66
a(lp140
F64
aF65
aF66
atp141
s(I52
S'D'
tp142
((lp143
F52
aF53
aF54
a(lp144
F52
aF53
aF54
atp145
s(I51
S'E'
tp146
((lp147
F51
aF52
aF53
a(lp148
F51
aF52
aF53
atp149
s(I63
S'K'
tp150
((lp151
F63
aF64
aF65
a(lp152
F63
aF64
aF65
atp153
s(I46
S'A'
tp154
((lp155
F46
aF47
aF48
a(lp156
F46
aF47
aF48
atp157
s(I28
S'S'
tp158
((lp159
F28
aF29
aF30
a(lp160
F28
aF29
aF30
atp161
s(I4
S'F'
tp162
((lp163
F4
aF5
aF6
a(lp164
F4
aF5
aF6
atp165
s(I7
S'T'
tp166
((lp167
F7
aF8
aF9
a(lp168
F7
aF8
aF9
atp169
s(I8
S'L'
tp170
((lp171
F8
aF9
aF10
a(lp172
F8
aF9
aF10
atp173
s(I77
S'STOP'
p174
tp175
((lp176
F77
aF78
aF79
a(lp177
F77
aF78
aF79
atp178
s(I67
S'L'
tp179
((lp180
F67
aF68
aF69
a(lp181
F67
aF68
aF69
atp182
s(I26
S'V'
tp183
((lp184
F26
aF27
aF28
a(lp185
F26
aF27
aF28
atp186
s(I74
S'R'
tp187
((lp188
F74
aF75
aF76
a(lp189
F74
aF75
aF76
atp190
s(I10
S'G'
tp191
((lp192
F10
aF11
aF12
a(lp193
F10
aF11
aF12
atp194
s(I23
S'I'
tp195
((lp196
F23
aF24
aF25
a(lp197
F23
aF24
aF25
atp198
s(I18
S'E'
tp199
((lp200
F18
aF19
aF20
a(lp201
F18
aF19
aF20
atp202
s(I30
S'I'
tp203
((lp204
F30
aF31
aF32
a(lp205
F30
aF31
aF32
atp206
s(I47
S'G'
tp207
((lp208
F47
aF48
aF49
a(lp209
F47
aF48
aF49
atp210
s(I70
S'V'
tp211
((lp212
F70
aF71
aF72
a(lp213
F70
aF71
aF72
atp214
s(I13
S'I'
tp215
((lp216
F13
aF14
aF15
a(lp217
F13
aF14
aF15
atp218
s(I5
S'V'
tp219
((lp220
F5
aF6
aF7
a(lp221
F5
aF6
aF7
atp222
s(I34
S'E'
tp223
((lp224
F34
aF35
aF36
a(lp225
F34
aF35
aF36
atp226
s(I44
S'I'
tp227
((lp228
F44
aF45
aF46
a(lp229
F44
aF45
aF46
atp230
s(I42
S'R'
tp231
((lp232
F42
aF43
aF44
a(lp233
F42
aF43
aF44
atp234
s(I11
S'K'
tp235
((lp236
F11
aF12
aF13
a(lp237
F11
aF12
aF13
atp238
s(I73
S'L'
tp239
((lp240
F73
aF74
aF75
a(lp241
F73
aF74
aF75
atp242
s(I36
S'I'
tp243
((lp244
F36
aF37
aF38
a(lp245
F36
aF37
aF38
atp246
s(I9
S'T'
tp247
((lp248
F9
aF10
aF11
a(lp249
F9
aF10
aF11
atp250
s(I66
S'T'
tp251
((lp252
F66
aF67
aF68
a(lp253
F66
aF67
aF68
atp254
s(I6
S'K'
tp255
((lp256
F6
aF7
aF8
a(lp257
F6
aF7
aF8
atp258
s(I24
S'D'
tp259
((lp260
F24
aF25
aF26
a(lp261
F24
aF25
aF26
atp262
s(I58
S'D'
tp263
((lp264
F58
aF59
aF60
a(lp265
F58
aF59
aF60
atp266
s(I54
S'R'
tp267
((lp268
F54
aF55
aF56
a(lp269
F54
aF55
aF56
atp270
s(I59
S'Y'
tp271
((lp272
F59
aF60
aF61
a(lp273
F59
aF60
aF61
atp274
s(I27
S'K'
tp275
((lp276
F27
aF28
aF29
a(lp277
F27
aF28
aF29
atp278
s(I45
S'F'
tp279
((lp280
F45
aF46
aF47
a(lp281
F45
aF46
aF47
atp282
s(I56
S'L'
tp283
((lp284
F56
aF57
aF58
a(lp285
F56
aF57
aF58
atp286
s(I21
S'D'
tp287
((lp288
F21
aF22
aF23
a(lp289
F21
aF22
aF23
atp290
s(I17
S'V'
tp291
((lp292
F17
aF18
aF19
a(lp293
F17
aF18
aF19
atp294
s(I53
S'G'
tp295
((lp296
F53
aF54
aF55
a(lp297
F53
aF54
aF55
atp298
s(I20
S'S'
tp299
((lp300
F20
aF21
aF22
a(lp301
F20
aF21
aF22
atp302
s(I38
S'P'
tp303
((lp304
F38
aF39
aF40
a(lp305
F38
aF39
aF40
atp306
s(I22
S'T'
tp307
((lp308
F22
aF23
aF24
a(lp309
F22
aF23
aF24
atp310
s.