(dp1
I1
((lp2
F1
aF2
aF3
a(lp3
F1
aF2
aF3
atp4
sI2
((lp5
F2
aF3
aF4
a(lp6
F2
aF3
aF4
atp7
sI3
((lp8
F3
aF4
aF5
a(lp9
F3
aF4
aF5
atp10
sI4
((lp11
F4
aF5
aF6
a(lp12
F4
aF5
aF6
atp13
sI5
((lp14
F5
aF6
aF7
a(lp15
F5
aF6
aF7
atp16
sI6
((lp17
F6
aF7
aF8
a(lp18
F6
aF7
aF8
atp19
sI7
((lp20
F7
aF8
aF9
a(lp21
F7
aF8
aF9
atp22
sI8
((lp23
F8
aF9
aF10
a(lp24
F8
aF9
aF10
atp25
sI9
((lp26
F9
aF10
aF11
a(lp27
F9
aF10
aF11
atp28
sI10
((lp29
F10
aF11
aF12
a(lp30
F10
aF11
aF12
atp31
sI11
((lp32
F11
aF12
aF13
a(lp33
F11
aF12
aF13
atp34
sI12
((lp35
F12
aF13
aF14
a(lp36
F12
aF13
aF14
atp37
sI13
((lp38
F13
aF14
aF15
a(lp39
F13
aF14
aF15
atp40
sI14
((lp41
F14
aF15
aF16
a(lp42
F14
aF15
aF16
atp43
sI15
((lp44
F15
aF16
aF17
a(lp45
F15
aF16
aF17
atp46
sI16
((lp47
F16
aF17
aF18
a(lp48
F16
aF17
aF18
atp49
sI17
((lp50
F17
aF18
aF19
a(lp51
F17
aF18
aF19
atp52
sI18
((lp53
F18
aF19
aF20
a(lp54
F18
aF19
aF20
atp55
sI19
((lp56
I19
aI20
aI21
a(lp57
I19
aI20
aI21
atp58
sI20
((lp59
F20
aF21
aF22
a(lp60
F20
aF21
aF22
atp61
sI21
((lp62
F21
aF22
aF23
a(lp63
F21
aF22
aF23
atp64
sI22
((lp65
F22
aF23
aF24
a(lp66
F22
aF23
aF24
atp67
sI23
((lp68
F23
aF24
aF25
a(lp69
F23
aF24
aF25
atp70
sI24
((lp71
F24
aF25
aF26
a(lp72
F24
aF25
aF26
atp73
sI25
((lp74
F25
aF26
aF27
a(lp75
F25
aF26
aF27
atp76
sI26
((lp77
F26
aF27
aF28
a(lp78
F26
aF27
aF28
atp79
sI27
((lp80
F27
aF28
aF29
a(lp81
F27
aF28
aF29
atp82
sI28
((lp83
F28
aF29
aF30
a(lp84
F28
aF29
aF30
atp85
sI29
((lp86
F29
aF30
aF31
a(lp87
F29
aF30
aF31
atp88
sI30
((lp89
F30
aF31
aF32
a(lp90
F30
aF31
aF32
atp91
sI31
((lp92
F31
aF32
aF33
a(lp93
F31
aF32
aF33
atp94
sI32
((lp95
F32
aF33
aF34
a(lp96
F32
aF33
aF34
atp97
sI33
((lp98
F33
aF34
aF35
a(lp99
F33
aF34
aF35
atp100
sI34
((lp101
F34
aF35
aF36
a(lp102
F34
aF35
aF36
atp103
sI35
((lp104
F35
aF36
aF37
a(lp105
F35
aF36
aF37
atp106
sI36
((lp107
F36
aF37
aF38
a(lp108
F36
aF37
aF38
atp109
sI37
((lp110
I37
aI38
aI39
a(lp111
I37
aI38
aI39
atp112
sI38
((lp113
F38
aF39
aF40
a(lp114
F38
aF39
aF40
atp115
sI39
((lp116
F39
aF40
aF41
a(lp117
F39
aF40
aF41
atp118
sI40
((lp119
I40
aI41
aI42
a(lp120
I40
aI41
aI42
atp121
sI41
((lp122
F41
aF42
aF43
a(lp123
F41
aF42
aF43
atp124
sI42
((lp125
F42
aF43
aF44
a(lp126
F42
aF43
aF44
atp127
sI43
((lp128
F43
aF44
aF45
a(lp129
F43
aF44
aF45
atp130
sI44
((lp131
F44
aF45
aF46
a(lp132
F44
aF45
aF46
atp133
sI45
((lp134
F45
aF46
aF47
a(lp135
F45
aF46
aF47
atp136
sI46
((lp137
F46
aF47
aF48
a(lp138
F46
aF47
aF48
atp139
sI47
((lp140
F47
aF48
aF49
a(lp141
F47
aF48
aF49
atp142
sI48
((lp143
F48
aF49
aF50
a(lp144
F48
aF49
aF50
atp145
sI49
((lp146
F49
aF50
aF51
a(lp147
F49
aF50
aF51
atp148
sI50
((lp149
F50
aF51
aF52
a(lp150
F50
aF51
aF52
atp151
sI51
((lp152
F51
aF52
aF53
a(lp153
F51
aF52
aF53
atp154
sI52
((lp155
F52
aF53
aF54
a(lp156
F52
aF53
aF54
atp157
sI53
((lp158
F53
aF54
aF55
a(lp159
F53
aF54
aF55
atp160
sI54
((lp161
F54
aF55
aF56
a(lp162
F54
aF55
aF56
atp163
sI55
((lp164
F55
aF56
aF57
a(lp165
F55
aF56
aF57
atp166
sI56
((lp167
F56
aF57
aF58
a(lp168
F56
aF57
aF58
atp169
sI57
((lp170
F57
aF58
aF59
a(lp171
F57
aF58
aF59
atp172
sI58
((lp173
F58
aF59
aF60
a(lp174
F58
aF59
aF60
atp175
sI59
((lp176
F59
aF60
aF61
a(lp177
F59
aF60
aF61
atp178
sI60
((lp179
F60
aF61
aF62
a(lp180
F60
aF61
aF62
atp181
sI61
((lp182
F61
aF62
aF63
a(lp183
F61
aF62
aF63
atp184
sI62
((lp185
F62
aF63
aF64
a(lp186
F62
aF63
aF64
atp187
sI63
((lp188
F63
aF64
aF65
a(lp189
F63
aF64
aF65
atp190
sI64
((lp191
F64
aF65
aF66
a(lp192
F64
aF65
aF66
atp193
sI65
((lp194
F65
aF66
aF67
a(lp195
F65
aF66
aF67
atp196
sI66
((lp197
F66
aF67
aF68
a(lp198
F66
aF67
aF68
atp199
sI67
((lp200
F67
aF68
aF69
a(lp201
F67
aF68
aF69
atp202
sI68
((lp203
F68
aF69
aF70
a(lp204
F68
aF69
aF70
atp205
sI69
((lp206
F69
aF70
aF71
a(lp207
F69
aF70
aF71
atp208
sI70
((lp209
F70
aF71
aF72
a(lp210
F70
aF71
aF72
atp211
sI71
((lp212
F71
aF72
aF73
a(lp213
F71
aF72
aF73
atp214
sI72
((lp215
F72
aF73
aF74
a(lp216
F72
aF73
aF74
atp217
sI73
((lp218
F73
aF74
aF75
a(lp219
F73
aF74
aF75
atp220
sI74
((lp221
F74
aF75
aF76
a(lp222
F74
aF75
aF76
atp223
sI75
((lp224
I75
aI76
aI77
a(lp225
I75
aI76
aI77
atp226
sI76
((lp227
F76
aF77
aF78
a(lp228
F76
aF77
aF78
atp229
sI77
((lp230
F77
aF77
aF77
a(lp231
F77
aF77
aF77
atp232
s.