(dp1
I1
((lp2
F1
aF1
aF1
a(lp3
F1
aF1
aF1
atp4
sI2
((lp5
F1
aF1
aF1
a(lp6
F1
aF1
aF1
atp7
sI3
((lp8
F1
aF1
aF1.0066652041376303
a(lp9
F1
aF1.3172668411928148
aF1.3927939159882965
atp10
sI4
((lp11
F1
aF1.0943381588807277
aF1.137732266287075
a(lp12
F1
aF1.0312512437929349
aF1.2241282511286016
atp13
sI5
((lp14
F1
aF1
aF1.0653582890033804
a(lp15
F1
aF1.047012173525764
aF1.0801826174449771
atp16
sI6
((lp17
F1
aF1.1323127860873947
aF1.1212573185408927
a(lp18
F1
aF1
aF1.1415988118126226
atp19
sI7
((lp20
F1
aF1.0911011291049484
aF1.1196298918182865
a(lp21
F1
aF1.1282692277626731
aF1.1797342054183013
atp22
sI8
((lp23
F1
aF1.0765565410382334
aF1.1297152760955409
a(lp24
F1
aF1.0880024914859427
aF1.1963718547367324
atp25
sI9
((lp26
F1
aF1.1015018076843768
aF1.1963280617358618
a(lp27
F1
aF1.1053391180302707
aF1.209322895767482
atp28
sI10
((lp29
F1
aF1.0420253326047821
aF1.1140388348574055
a(lp30
F1
aF1.0692823345761275
aF1.1083435420772114
atp31
sI11
((lp32
F1
aF1
aF1.061607885164022
a(lp33
F1
aF1.0906737182553399
aF1.2022471857787647
atp34
sI12
((lp35
F1
aF1.1345262850720741
aF1.1787354618173109
a(lp36
F1
aF1.0662709559364674
aF1.1426905860197116
atp37
sI13
((lp38
F1
aF1.0538665957684783
aF1.1768542880751918
a(lp39
F1
aF1.0638509661893163
aF1.1650084208184137
atp40
sI14
((lp41
F1
aF1.0607935624376872
aF1.0951778952325411
a(lp42
F1
aF1.0664764433761633
aF1.091262905298624
atp43
sI15
((lp44
F1
aF1.0659357047432596
aF1.1371243864243412
a(lp45
F1
aF1.1376158163959427
aF1.1960559282737353
atp46
sI16
((lp47
F1
aF1.0552661140091768
aF1.0789301234444586
a(lp48
F1
aF1.0920903576092877
aF1.1658065778278395
atp49
sI17
((lp50
F1
aF1.0901429688065687
aF1.1385835848473169
a(lp51
F1
aF1.130554886156925
aF1.157776534322337
atp52
sI18
((lp53
F1
aF1.3799037805068606
aF1.3623357319068279
a(lp54
F1
aF1.2221786556744101
aF1
atp55
sI19
((lp56
F1
aF1.0827617054498457
aF1.1311124714494347
a(lp57
F1
aF1.0012786895731483
aF1.1144592566202722
atp58
sI20
((lp59
F1
aF1.0072852328446458
aF1.1378622732818695
a(lp60
F1
aF1.0975936093729752
aF1.121948245444115
atp61
sI21
((lp62
F1
aF1.1156998562211562
aF1.1622770175305754
a(lp63
F1
aF1.1616444150485303
aF1.3408340702153867
atp64
sI22
((lp65
F1
aF1.040747875426469
aF1.1071902996376899
a(lp66
F1
aF1.1126276277147993
aF1.163551306514478
atp67
sI23
((lp68
F1
aF1
aF1.0584354627959689
a(lp69
F1
aF1.0688587526328175
aF1.1126281972467329
atp70
sI24
((lp71
F1
aF1.0186702277502757
aF1.1332723128692381
a(lp72
F1
aF1.0374242937088587
aF1.1688345468600421
atp73
sI25
((lp74
F1
aF1.0843267577000657
aF1.1640524543276762
a(lp75
F1
aF1.0811580415581319
aF1.0876289961900705
atp76
sI26
((lp77
F1
aF1.1149749139352141
aF1.156772994304009
a(lp78
F1
aF1.042202262988821
aF1.1394133938648969
atp79
sI27
((lp80
F1
aF1.2239334944841069
aF1.3136808843387269
a(lp81
F1
aF1.0329380896345015
aF1.1911402676169662
atp82
sI28
((lp83
F1
aF1.0802131392136691
aF1.1746541109458366
a(lp84
F1
aF1.0940287632861709
aF1.186713110819823
atp85
sI29
((lp86
F1
aF1.0515903586689133
aF1.1030417217336188
a(lp87
F1
aF1
aF1.0350247179429692
atp88
sI30
((lp89
F1
aF1.155626615188748
aF1.1948771461851737
a(lp90
F1
aF1.122655419317959
aF1.2160655229581594
atp91
sI31
((lp92
F1
aF1
aF1
a(lp93
F1
aF1.1744153518894331
aF1.1468839914969402
atp94
sI32
((lp95
F1
aF1
aF1
a(lp96
F1
aF1
aF1
atp97
sI33
((lp98
F1
aF1.0326853048592783
aF1.2048566895093327
a(lp99
F1
aF1
aF1
atp100
sI34
((lp101
F1
aF1.5981488068990313
aF1.3403895955467939
a(lp102
F1
aF1
aF1.0331547545862521
atp103
sI35
((lp104
F1
aF1.0303404252911814
aF1.0838099411502251
a(lp105
F1
aF1.0586553206953575
aF1.1350193251220169
atp106
sI36
((lp107
F1
aF1.0806056086945277
aF1.0981245095717347
a(lp108
F1
aF1.2395652976379792
aF1.1980870874716016
atp109
sI37
((lp110
F1
aF1.0978452844293105
aF1.1851902957068157
a(lp111
F1
aF1.0445420770050342
aF1.1089211821477787
atp112
sI38
((lp113
F1
aF1.1089785906835128
aF1.1059190679055704
a(lp114
F1
aF1.038637671255255
aF1.1424119894543545
atp115
sI39
((lp116
F1
aF1.0428822448371102
aF1.0481737347101818
a(lp117
F1
aF1.0749563701916418
aF1.2171745233469449
atp118
sI40
((lp119
F1
aF1.0430857335117094
aF1.0335332033440445
a(lp120
F1
aF1
aF1.1357528925576803
atp121
sI41
((lp122
F1
aF1.2558674856298393
aF1.099697382645074
a(lp123
F1
aF1
aF1.1648536024236205
atp124
sI42
((lp125
F1
aF1.0633790007048707
aF1.1264624102563665
a(lp126
F1
aF1.0556297457431021
aF1.1678371756278834
atp127
sI43
((lp128
F1
aF1
aF1.0895803367591239
a(lp129
F1
aF1.1135054177269916
aF1.145527940650813
atp130
sI44
((lp131
F1
aF1
aF1.1293046198701338
a(lp132
F1
aF1
aF1
atp133
sI45
((lp134
F1
aF1.0646370559057399
aF1.1370197667180937
a(lp135
F1
aF1.0741492888512205
aF1.1960726646903825
atp136
sI46
((lp137
F1
aF1.1028651600209862
aF1.1914708799255991
a(lp138
F1
aF1.1125895319625954
aF1.1401152526029896
atp139
sI47
((lp140
F1
aF1.0792029861640176
aF1.1705696155623346
a(lp141
F1
aF1.0757879974018465
aF1.1869568670786275
atp142
sI48
((lp143
F1
aF1.1923336074214099
aF1.2150745909995109
a(lp144
F1
aF1.1349486496615699
aF1.1949065849422897
atp145
sI49
((lp146
F1
aF1
aF1
a(lp147
F1
aF1
aF1
atp148
sI50
((lp149
F1
aF1.036793107954906
aF1.1695235285440464
a(lp150
F1
aF1.0804093767991403
aF1.1633702261758347
atp151
sI51
((lp152
F1
aF1.1316844022381707
aF1.3551655438441603
a(lp153
F1
aF1.0559623585026905
aF1.2111752661457293
atp154
sI52
((lp155
F1
aF1.0855886385106421
aF1.213851489806935
a(lp156
F1
aF1.0338429284065502
aF1.1276108954532169
atp157
sI53
((lp158
F1
aF1.1489443033155253
aF1.1970460668891694
a(lp159
F1
aF1.1007620166588483
aF1.1508019007939383
atp160
sI54
((lp161
F1
aF1.0473168563775939
aF1.0990328653538828
a(lp162
F1
aF1.0979078002324576
aF1.1456646804279451
atp163
sI55
((lp164
F1
aF1.0544415738627488
aF1.1477771319627359
a(lp165
F1
aF1.1080470383014123
aF1.1829186263294789
atp166
sI56
((lp167
F1
aF1.0331669659548546
aF1.124045925481914
a(lp168
F1
aF1.0828502889275273
aF1.1363708882415517
atp169
sI57
((lp170
F1
aF1.0106348169188382
aF1.0667214864066377
a(lp171
F1
aF1.0675879419656085
aF1.1779860978250563
atp172
sI58
((lp173
F1
aF1
aF1.0789534584746499
a(lp174
F1
aF1.0534259542632991
aF1.2883675882344492
atp175
sI59
((lp176
F1
aF1
aF1.0266405635183031
a(lp177
F1
aF1.1988507643212887
aF1.0743754198665845
atp178
sI60
((lp179
F1
aF1.4002606329063294
aF1.4309681827121554
a(lp180
F1
aF1.0618498427794876
aF1.1305738133313576
atp181
sI61
((lp182
F1
aF1.0841489689900365
aF1.1414476802988447
a(lp183
F1
aF1.1257256374428082
aF1.1813229322048588
atp184
sI62
((lp185
F1
aF1.1027436194648843
aF1.2268988462786639
a(lp186
F1
aF1.1732915094474339
aF1.108654525113709
atp187
sI63
((lp188
F1
aF1.1014469505531301
aF1.148738160173826
a(lp189
F1
aF1.104879775408445
aF1.1072151454246568
atp190
sI64
((lp191
F1
aF1.1184210753826713
aF1.4116307748376671
a(lp192
F1
aF1.2087307351912613
aF1.361079153913479
atp193
sI65
((lp194
F1
aF1.0839389103863557
aF1.1714559587144311
a(lp195
F1
aF1.0756690404289684
aF1.1511925618917644
atp196
sI66
((lp197
F1
aF1.1588478025582045
aF1.2120100181295974
a(lp198
F1
aF1.034837401884902
aF1.1113954887383133
atp199
sI67
((lp200
F1
aF1.0196946725657698
aF1.0644776491787531
a(lp201
F1
aF1.0130546674001051
aF1.0799713732963589
atp202
sI68
((lp203
F1
aF1
aF1
a(lp204
F1
aF1
aF1
atp205
sI69
((lp206
F1
aF1.0712180322693383
aF1.1447079133213416
a(lp207
F1
aF1.0161840993504838
aF1.1462515768338595
atp208
sI70
((lp209
F1
aF1.0562641884482795
aF1.1618494215954975
a(lp210
F1
aF1.0395620959655514
aF1.1295869653458315
atp211
sI71
((lp212
F1
aF1.0480526430645922
aF1.1099417076328457
a(lp213
F1
aF1.040885212243597
aF1.0966208470121057
atp214
sI72
((lp215
F1
aF1.1020442296042996
aF1.1356963619944307
a(lp216
F1
aF1.1574508140145747
aF1.2182920288048378
atp217
sI73
((lp218
F1
aF1.0632593902657959
aF1.1686552292225134
a(lp219
F1
aF1.0853270371545023
aF1.1152045961214339
atp220
sI74
((lp221
F1
aF1.0721702038372058
aF1.1608088260038498
a(lp222
F1
aF1.0986007717532862
aF1.1547431464099713
atp223
sI75
((lp224
F1
aF1.0365366752207257
aF1.0915299705643731
a(lp225
F1
aF1.0562705979684861
aF1.1304049552972664
atp226
sI76
((lp227
F1
aF1.0868962341474968
aF1.1346273439229386
a(lp228
F1
aF1.0809552877429063
aF1.1977171016616011
atp229
sI77
((lp230
F1
aF1
aF1
a(lp231
F1
aF1
aF1
atp232
s.