(dp1
ccopy_reg
_reconstructor
p2
(c__main__
Timepoint
p3
c__builtin__
tuple
p4
(I1
I2
S'GGAACT'
p5
ttRp6
(lp7
(S'AGAAGACTGCACACCCCA'
(lp8
I34
aI34
aI34
aI37
aI37
aI35
aI35
aI35
aI39
aI39
aI39
aI39
aI39
aI41
aI41
aI41
aI41
aI41
aI41
aI41
aI41
aI41
aI41
aI41
aI41
atp9
a(S'TTCCGACACAGATGCCGT'
(lp10
I34
aI34
aI34
aI37
aI37
aI37
aI37
aI37
aI39
aI39
aI39
aI39
aI39
aI41
aI41
aI41
aI41
aI41
aI41
aI41
aI41
aI41
aI41
aI41
aI41
atp11
a(S'CCAAATGTTCAATTTATT'
(lp12
I34
aI34
aI34
aI37
aI37
aI37
aI37
aI37
aI39
aI39
aI39
aI39
aI39
aI41
aI41
aI41
aI41
aI41
aI41
aI41
aI41
aI41
aI41
aI41
aI41
atp13
a(S'AATACACCACCCCACCCA'
(lp14
I33
aI33
aI34
aI37
aI32
aI35
aI37
aI37
aI39
aI34
aI37
aI39
aI37
aI38
aI39
aI40
aI41
aI41
aI41
aI41
aI41
aI41
aI41
aI41
aI41
atp15
a(S'CTCGACTGGTGGTCGGCC'
(lp16
I34
aI34
aI34
aI37
aI37
aI37
aI37
aI37
aI39
aI39
aI39
aI39
aI39
aI41
aI41
aI41
aI41
aI41
aI41
aI41
aI41
aI41
aI41
aI41
aI41
atp17
a(S'AAGCTCAGGACCTAGGGG'
(lp18
I34
aI34
aI34
aI37
aI37
aI37
aI37
aI35
aI28
aI34
aI37
aI37
aI39
aI41
aI40
aI40
aI41
aI41
aI41
aI41
aI41
aI39
aI39
aI41
aI40
atp19
a(S'CCGTTTCCCGAGGCCCAC'
(lp20
I34
aI34
aI34
aI37
aI37
aI37
aI37
aI37
aI39
aI39
aI39
aI39
aI39
aI41
aI41
aI41
aI41
aI41
aI41
aI41
aI41
aI41
aI41
aI41
aI41
atp21
a(S'AATCCCGGTGTCGCCAAA'
(lp22
I34
aI34
aI34
aI37
aI37
aI37
aI37
aI37
aI39
aI39
aI39
aI39
aI39
aI41
aI41
aI41
aI41
aI41
aI41
aI41
aI41
aI41
aI41
aI41
aI41
atp23
a(S'AGGTTCGTGATACGGACC'
(lp24
I34
aI34
aI34
aI37
aI37
aI37
aI37
aI37
aI39
aI39
aI39
aI39
aI38
aI40
aI40
aI41
aI41
aI41
aI41
aI41
aI41
aI41
aI41
aI41
aI41
atp25
a(S'TCTCGGTCGAAGTGCCAA'
(lp26
I34
aI34
aI34
aI37
aI37
aI37
aI37
aI37
aI39
aI39
aI39
aI39
aI39
aI41
aI41
aI41
aI41
aI41
aI41
aI41
aI41
aI41
aI41
aI41
aI41
atp27
a(S'ACACTAATGAGTGCCAAC'
(lp28
I34
aI34
aI34
aI37
aI37
aI37
aI37
aI37
aI39
aI39
aI39
aI39
aI39
aI41
aI41
aI38
aI39
aI39
aI41
aI40
aI41
aI41
aI41
aI41
aI41
atp29
a(S'CACGCACAGTAGGCGAAG'
(lp30
I34
aI34
aI34
aI37
aI37
aI37
aI37
aI37
aI39
aI39
aI39
aI39
aI39
aI40
aI41
aI41
aI40
aI41
aI41
aI41
aI41
aI41
aI41
aI41
aI40
atp31
a(S'CAGCGTTGGAGTGGTCTA'
(lp32
I34
aI34
aI34
aI37
aI37
aI37
aI37
aI37
aI39
aI39
aI39
aI39
aI39
aI41
aI41
aI41
aI41
aI41
aI41
aI41
aI41
aI41
aI41
aI41
aI41
atp33
a(S'CAGAGCTGTGCATGTCCA'
(lp34
I34
aI34
aI34
aI37
aI37
aI37
aI37
aI37
aI39
aI39
aI39
aI39
aI39
aI41
aI41
aI41
aI41
aI41
aI41
aI41
aI41
aI41
aI41
aI41
aI41
atp35
a(S'TATATCAGGCTGTAGTAA'
(lp36
I34
aI34
aI34
aI37
aI37
aI37
aI37
aI37
aI39
aI39
aI39
aI39
aI38
aI41
aI41
aI41
aI41
aI41
aI41
aI41
aI41
aI41
aI41
aI41
aI40
atp37
a(S'TAGGCGGCGAATGCGCAC'
(lp38
I33
aI33
aI33
aI37
aI37
aI37
aI37
aI37
aI39
aI39
aI39
aI39
aI39
aI41
aI41
aI41
aI41
aI41
aI41
aI40
aI41
aI41
aI41
aI41
aI41
atp39
a(S'ATCAGTTGCTGGAGACTT'
(lp40
I34
aI34
aI34
aI37
aI37
aI37
aI37
aI37
aI39
aI39
aI39
aI39
aI39
aI41
aI41
aI41
aI41
aI41
aI41
aI41
aI41
aI41
aI41
aI41
aI41
atp41
a(S'GTAGTAGCAACAGTTGAG'
(lp42
I34
aI34
aI34
aI37
aI37
aI37
aI37
aI37
aI39
aI39
aI39
aI39
aI39
aI41
aI41
aI41
aI41
aI41
aI41
aI41
aI41
aI41
aI41
aI41
aI41
atp43
a(S'CTTTTCCTATTAACTTTC'
(lp44
I34
aI34
aI34
aI37
aI37
aI35
aI37
aI37
aI39
aI39
aI39
aI39
aI39
aI41
aI41
aI41
aI41
aI41
aI41
aI41
aI41
aI41
aI41
aI41
aI41
atp45
a(S'CTTCAACGCCGCTGTATT'
(lp46
I34
aI34
aI34
aI37
aI37
aI37
aI37
aI37
aI39
aI39
aI38
aI39
aI39
aI41
aI41
aI41
aI41
aI41
aI41
aI41
aI41
aI41
aI41
aI41
aI41
atp47
a(S'TAAACAGCAGGAAATCAN'
(lp48
I2
aI16
aI28
aI35
aI37
aI37
aI37
aI37
aI39
aI39
aI39
aI39
aI39
aI41
aI40
aI41
aI41
aI41
aI41
aI41
aI41
aI41
aI41
aI41
aI41
atp49
a(S'TAACTCGCATGTAGGCAN'
(lp50
I2
aI16
aI25
aI33
aI35
aI35
aI35
aI35
aI39
aI35
aI39
aI39
aI35
aI38
aI38
aI30
aI33
aI38
aI40
aI40
aI40
aI40
aI40
aI40
aI40
atp51
a(S'AGACTAGAGCAACAGGGA'
(lp52
I34
aI34
aI34
aI37
aI37
aI37
aI35
aI35
aI37
aI39
aI37
aI39
aI39
aI41
aI40
aI41
aI40
aI41
aI41
aI41
aI41
aI40
aI41
aI41
aI41
atp53
a(S'GCAATAAGTTTTTCTAAC'
(lp54
I34
aI33
aI34
aI37
aI37
aI37
aI37
aI37
aI39
aI39
aI39
aI39
aI39
aI41
aI41
aI41
aI41
aI41
aI41
aI41
aI41
aI41
aI41
aI41
aI41
atp55
a(S'ATCGGCAAACCCCAGCAA'
(lp56
I34
aI34
aI34
aI37
aI37
aI37
aI37
aI35
aI39
aI39
aI39
aI39
aI39
aI41
aI41
aI41
aI41
aI41
aI41
aI41
aI41
aI41
aI41
aI41
aI41
atp57
a(S'GGGCTTCTACCCATGTAG'
(lp58
I34
aI34
aI34
aI37
aI37
aI37
aI37
aI37
aI39
aI39
aI39
aI39
aI39
aI41
aI41
aI41
aI41
aI41
aI41
aI41
aI41
aI41
aI41
aI41
aI41
atp59
a(S'CCCCGGTCCCCCATGATA'
(lp60
I33
aI33
aI34
aI37
aI37
aI37
aI37
aI37
aI39
aI38
aI39
aI39
aI39
aI41
aI41
aI41
aI40
aI40
aI39
aI40
aI38
aI40
aI41
aI40
aI41
atp61
a(S'ATGATCGGCGCGGGGTAG'
(lp62
I34
aI34
aI34
aI37
aI37
aI37
aI37
aI37
aI39
aI39
aI39
aI39
aI39
aI41
aI41
aI41
aI41
aI41
aI41
aI41
aI41
aI41
aI41
aI41
aI41
atp63
a(S'GGGAGGGATCTCTACGGA'
(lp64
I34
aI34
aI34
aI37
aI35
aI37
aI37
aI37
aI39
aI39
aI39
aI39
aI39
aI41
aI41
aI41
aI41
aI41
aI41
aI41
aI41
aI41
aI41
aI41
aI41
atp65
a(S'TACCAAGCGAGTATCATT'
(lp66
I34
aI34
aI34
aI37
aI37
aI37
aI37
aI37
aI39
aI39
aI39
aI39
aI39
aI41
aI41
aI41
aI39
aI40
aI41
aI41
aI41
aI41
aI41
aI41
aI41
atp67
a(S'AAACGTTTTAGAGTTGGT'
(lp68
I34
aI34
aI34
aI37
aI37
aI37
aI37
aI37
aI39
aI39
aI39
aI39
aI39
aI41
aI41
aI39
aI40
aI41
aI41
aI41
aI41
aI41
aI41
aI41
aI41
atp69
a(S'GGGTCCGGACCGTGGGGA'
(lp70
I33
aI34
aI34
aI37
aI37
aI37
aI37
aI37
aI39
aI39
aI39
aI39
aI39
aI41
aI41
aI41
aI41
aI41
aI41
aI41
aI41
aI41
aI41
aI41
aI41
atp71
a(S'GAGAACCAACGAGCTAAC'
(lp72
I31
aI30
aI31
aI35
aI35
aI35
aI36
aI37
aI38
aI38
aI38
aI39
aI39
aI38
aI38
aI39
aI40
aI40
aI40
aI41
aI38
aI38
aI38
aI40
aI40
atp73
a(S'TGGTGGTCTACCCGGTGG'
(lp74
I34
aI34
aI34
aI37
aI37
aI37
aI37
aI37
aI37
aI39
aI39
aI39
aI39
aI41
aI41
aI41
aI41
aI41
aI41
aI41
aI41
aI41
aI41
aI41
aI41
atp75
a(S'GGCCGCCAGTGAATGTGC'
(lp76
I34
aI34
aI34
aI37
aI37
aI37
aI37
aI37
aI39
aI39
aI39
aI39
aI39
aI41
aI41
aI41
aI41
aI41
aI41
aI41
aI40
aI41
aI41
aI41
aI41
atp77
a(S'AGTATCGAGGGCCATGAC'
(lp78
I34
aI34
aI34
aI37
aI37
aI37
aI37
aI37
aI39
aI39
aI39
aI39
aI39
aI41
aI41
aI41
aI41
aI41
aI41
aI41
aI41
aI41
aI40
aI40
aI41
atp79
a(S'CTATCCTACTAAGGTAAA'
(lp80
I34
aI34
aI34
aI37
aI37
aI37
aI37
aI37
aI39
aI39
aI39
aI39
aI39
aI41
aI41
aI41
aI41
aI41
aI41
aI41
aI41
aI41
aI41
aI41
aI41
atp81
a(S'ACTCCATTCAATCGCTAC'
(lp82
I33
aI33
aI34
aI37
aI37
aI37
aI37
aI37
aI39
aI39
aI39
aI39
aI39
aI41
aI41
aI41
aI41
aI39
aI40
aI41
aI41
aI41
aI41
aI41
aI41
atp83
a(S'GGTGTAACCAATGGTCGT'
(lp84
I34
aI34
aI34
aI37
aI37
aI37
aI37
aI37
aI39
aI39
aI39
aI39
aI39
aI41
aI41
aI41
aI41
aI41
aI41
aI41
aI41
aI41
aI41
aI41
aI41
atp85
a(S'GGCAATACCTTTTCACTA'
(lp86
I31
aI34
aI34
aI37
aI37
aI37
aI37
aI37
aI39
aI38
aI39
aI37
aI37
aI40
aI41
aI41
aI40
aI41
aI41
aI41
aI41
aI41
aI41
aI41
aI40
atp87
a(S'TGTAACTGTTGGATGTAG'
(lp88
I34
aI34
aI34
aI37
aI37
aI37
aI37
aI37
aI39
aI39
aI39
aI39
aI39
aI41
aI41
aI41
aI41
aI41
aI41
aI41
aI41
aI41
aI41
aI41
aI41
atp89
a(S'AAAAGAGGTAGGATTGCA'
(lp90
I34
aI34
aI34
aI37
aI37
aI37
aI37
aI37
aI39
aI39
aI39
aI39
aI39
aI41
aI41
aI41
aI41
aI41
aI41
aI41
aI41
aI41
aI41
aI41
aI41
atp91
a(S'TCAGGCCTTGAGCATCAG'
(lp92
I31
aI31
aI31
aI35
aI35
aI35
aI33
aI25
aI32
aI35
aI37
aI37
aI39
aI40
aI40
aI40
aI40
aI40
aI40
aI40
aI40
aI38
aI36
aI40
aI33
atp93
a(S'AAGCACCCGAACATACGC'
(lp94
I34
aI34
aI34
aI37
aI37
aI37
aI37
aI37
aI39
aI39
aI39
aI39
aI39
aI38
aI39
aI40
aI40
aI41
aI41
aI41
aI41
aI41
aI41
aI41
aI41
atp95
a(S'CCCTTCGGGGTTAGCAGG'
(lp96
I33
aI34
aI34
aI37
aI37
aI37
aI37
aI37
aI39
aI39
aI39
aI39
aI39
aI41
aI41
aI41
aI41
aI41
aI39
aI40
aI40
aI40
aI41
aI41
aI41
atp97
a(S'TTCCTAAATTATGAAATA'
(lp98
I34
aI34
aI34
aI37
aI37
aI37
aI37
aI37
aI39
aI39
aI39
aI39
aI39
aI41
aI41
aI41
aI41
aI41
aI41
aI41
aI41
aI41
aI41
aI41
aI41
atp99
a(S'TGGGTCTATAGCGATGCA'
(lp100
I34
aI34
aI34
aI37
aI37
aI37
aI37
aI37
aI39
aI39
aI39
aI39
aI39
aI41
aI41
aI41
aI41
aI41
aI41
aI41
aI41
aI41
aI41
aI41
aI41
atp101
a(S'CGGATCTAATTTCAAACT'
(lp102
I34
aI34
aI33
aI37
aI37
aI37
aI37
aI37
aI39
aI39
aI39
aI39
aI39
aI41
aI41
aI41
aI41
aI41
aI41
aI41
aI41
aI41
aI41
aI41
aI41
atp103
a(S'TGCCCGGTGACGACTCAG'
(lp104
I34
aI34
aI34
aI37
aI37
aI37
aI37
aI37
aI39
aI39
aI39
aI39
aI39
aI41
aI41
aI41
aI41
aI41
aI41
aI41
aI41
aI41
aI41
aI41
aI41
atp105
a(S'GGTCTGGTGCTATGCGAA'
(lp106
I34
aI34
aI34
aI37
aI37
aI37
aI37
aI37
aI39
aI39
aI39
aI39
aI39
aI41
aI41
aI41
aI41
aI41
aI41
aI41
aI41
aI41
aI41
aI41
aI40
atp107
a(S'TCAGGATACTAAAATTAG'
(lp108
I34
aI34
aI34
aI37
aI37
aI37
aI37
aI37
aI39
aI39
aI39
aI39
aI39
aI41
aI41
aI41
aI41
aI41
aI41
aI41
aI41
aI41
aI41
aI41
aI41
atp109
a(S'CCAAGCCTAATTCTCCTC'
(lp110
I34
aI34
aI34
aI37
aI37
aI37
aI37
aI37
aI39
aI39
aI39
aI39
aI39
aI41
aI41
aI41
aI41
aI41
aI41
aI41
aI41
aI41
aI41
aI41
aI41
atp111
a(S'CACGGCGGCGTAGGTAGA'
(lp112
I34
aI34
aI34
aI37
aI37
aI37
aI37
aI37
aI39
aI39
aI39
aI39
aI39
aI41
aI41
aI41
aI40
aI41
aI41
aI41
aI41
aI41
aI41
aI41
aI41
atp113
a(S'GGAGTCAGGTGGCACATG'
(lp114
I31
aI34
aI34
aI37
aI37
aI37
aI37
aI37
aI39
aI39
aI39
aI39
aI39
aI41
aI41
aI41
aI41
aI41
aI41
aI40
aI41
aI41
aI41
aI41
aI41
atp115
a(S'TCATCAACCTAGATCATG'
(lp116
I34
aI34
aI34
aI37
aI37
aI37
aI37
aI37
aI39
aI38
aI39
aI37
aI39
aI41
aI41
aI41
aI40
aI41
aI41
aI41
aI41
aI41
aI41
aI41
aI41
atp117
a(S'TGATTCGCCCGCACGGTC'
(lp118
I34
aI34
aI34
aI37
aI37
aI35
aI37
aI37
aI39
aI39
aI39
aI39
aI39
aI41
aI41
aI41
aI41
aI41
aI41
aI41
aI41
aI41
aI41
aI41
aI41
atp119
a(S'TCACGACTCAAGCGACTT'
(lp120
I34
aI34
aI34
aI37
aI37
aI37
aI37
aI37
aI39
aI39
aI39
aI39
aI39
aI40
aI40
aI40
aI41
aI41
aI41
aI41
aI41
aI41
aI41
aI41
aI41
atp121
a(S'AACGTTGATATAAAGTCG'
(lp122
I34
aI34
aI34
aI37
aI37
aI37
aI37
aI37
aI39
aI39
aI39
aI39
aI39
aI41
aI41
aI41
aI41
aI41
aI41
aI41
aI41
aI41
aI41
aI41
aI41
atp123
a(S'GGCGCCTTAACAGATGTA'
(lp124
I34
aI34
aI34
aI37
aI37
aI37
aI37
aI37
aI39
aI39
aI39
aI39
aI39
aI41
aI41
aI41
aI41
aI41
aI41
aI41
aI41
aI41
aI41
aI41
aI41
atp125
a(S'AGTTCACGGCATCTTAGA'
(lp126
I34
aI34
aI34
aI37
aI37
aI37
aI37
aI37
aI39
aI39
aI39
aI38
aI37
aI39
aI41
aI41
aI40
aI41
aI41
aI41
aI41
aI41
aI41
aI41
aI41
atp127
a(S'GTATGTGACGCCAGGAGT'
(lp128
I34
aI34
aI34
aI37
aI37
aI37
aI37
aI37
aI39
aI39
aI39
aI39
aI39
aI41
aI41
aI41
aI41
aI41
aI41
aI41
aI41
aI41
aI41
aI41
aI41
atp129
a(S'CGGTCTATGTAGTTTCCC'
(lp130
I34
aI34
aI34
aI37
aI37
aI37
aI37
aI37
aI39
aI39
aI39
aI39
aI39
aI41
aI41
aI41
aI41
aI41
aI41
aI41
aI41
aI41
aI41
aI41
aI41
atp131
a(S'ACAACCAGATAAACTTCT'
(lp132
I34
aI34
aI34
aI37
aI37
aI36
aI37
aI37
aI39
aI39
aI39
aI39
aI39
aI41
aI39
aI40
aI41
aI40
aI41
aI41
aI41
aI41
aI41
aI41
aI41
atp133
a(S'CACTCAGGGGCGAGGGCG'
(lp134
I34
aI34
aI34
aI37
aI37
aI37
aI37
aI37
aI39
aI39
aI39
aI39
aI39
aI41
aI41
aI41
aI39
aI39
aI40
aI41
aI41
aI41
aI41
aI41
aI41
atp135
a(S'AAGTTAGATTGCAGATAA'
(lp136
I34
aI34
aI34
aI37
aI37
aI37
aI37
aI37
aI39
aI39
aI39
aI39
aI39
aI41
aI41
aI41
aI41
aI41
aI41
aI41
aI41
aI41
aI41
aI41
aI41
atp137
a(S'CTCAGGGTCAACATACAG'
(lp138
I33
aI34
aI34
aI35
aI37
aI37
aI37
aI36
aI39
aI39
aI39
aI39
aI39
aI41
aI41
aI41
aI41
aI41
aI41
aI41
aI41
aI41
aI41
aI41
aI41
atp139
a(S'TTCAGAGTTGGGTTGAAT'
(lp140
I34
aI34
aI34
aI37
aI37
aI37
aI37
aI37
aI39
aI39
aI39
aI39
aI39
aI41
aI41
aI41
aI41
aI41
aI41
aI41
aI41
aI41
aI41
aI41
aI41
atp141
asg2
(g3
g4
(I2
I2
S'CTCTAC'
p142
ttRp143
(lp144
(S'TAAGGGTGTACGGGGGAG'
(lp145
I34
aI34
aI34
aI37
aI37
aI37
aI37
aI37
aI39
aI39
aI39
aI39
aI39
aI41
aI41
aI41
aI41
aI41
aI41
aI41
aI41
aI41
aI41
aI41
aI41
atp146
a(S'ACTAGGAAGGTATCCCAC'
(lp147
I34
aI33
aI33
aI37
aI37
aI37
aI37
aI37
aI39
aI39
aI39
aI39
aI39
aI41
aI41
aI41
aI41
aI39
aI41
aI41
aI41
aI41
aI41
aI41
aI41
atp148
a(S'CTCGCACCATTTGTCATG'
(lp149
I34
aI34
aI34
aI37
aI37
aI37
aI37
aI37
aI39
aI39
aI39
aI39
aI39
aI40
aI41
aI41
aI41
aI41
aI41
aI41
aI41
aI41
aI41
aI41
aI41
atp150
a(S'TGAGACTCAGTCGTGTCA'
(lp151
I34
aI34
aI34
aI37
aI37
aI37
aI37
aI37
aI39
aI39
aI39
aI39
aI39
aI39
aI41
aI41
aI41
aI41
aI41
aI41
aI41
aI41
aI41
aI41
aI41
atp152
a(S'GCACTCAAGAAACGCTGN'
(lp153
I2
aI16
aI33
aI35
aI37
aI37
aI35
aI37
aI39
aI39
aI39
aI39
aI39
aI41
aI41
aI39
aI40
aI41
aI41
aI41
aI41
aI41
aI41
aI41
aI41
atp154
a(S'TGTACCTCACCGTTGTGG'
(lp155
I34
aI34
aI34
aI37
aI37
aI37
aI37
aI37
aI39
aI37
aI39
aI39
aI39
aI41
aI38
aI39
aI41
aI41
aI41
aI41
aI41
aI41
aI41
aI41
aI41
atp156
a(S'CATGGTGCGTCGTCGGGA'
(lp157
I34
aI34
aI34
aI37
aI37
aI37
aI37
aI37
aI39
aI39
aI39
aI39
aI39
aI41
aI41
aI41
aI41
aI41
aI41
aI41
aI37
aI38
aI40
aI40
aI40
atp158
a(S'TGTAAATTCGACCACCTA'
(lp159
I31
aI33
aI34
aI37
aI35
aI35
aI35
aI31
aI37
aI39
aI39
aI39
aI39
aI41
aI41
aI41
aI41
aI40
aI40
aI41
aI41
aI41
aI41
aI41
aI40
atp160
a(S'GAAGGGGTTTACCGACGT'
(lp161
I34
aI34
aI34
aI37
aI37
aI37
aI37
aI37
aI39
aI39
aI39
aI39
aI39
aI41
aI41
aI41
aI41
aI41
aI41
aI41
aI41
aI41
aI41
aI41
aI41
atp162
a(S'CGGCGCGGTACGTTTGAA'
(lp163
I34
aI34
aI34
aI37
aI37
aI37
aI37
aI37
aI39
aI39
aI39
aI39
aI39
aI41
aI41
aI41
aI41
aI41
aI40
aI41
aI41
aI41
aI41
aI41
aI41
atp164
a(S'TGCGCTGCAAATTTACGA'
(lp165
I34
aI34
aI34
aI37
aI37
aI37
aI37
aI37
aI39
aI39
aI39
aI39
aI39
aI41
aI41
aI41
aI41
aI41
aI41
aI41
aI41
aI41
aI41
aI41
aI41
atp166
a(S'TGTTCGCCCGGGCCCGTT'
(lp167
I33
aI34
aI34
aI37
aI35
aI37
aI37
aI37
aI39
aI39
aI39
aI39
aI39
aI41
aI41
aI41
aI41
aI41
aI41
aI41
aI41
aI41
aI41
aI41
aI41
atp168
a(S'GCGAGTAATGGCTAAGTT'
(lp169
I34
aI34
aI34
aI37
aI37
aI37
aI37
aI37
aI39
aI39
aI39
aI39
aI39
aI41
aI41
aI41
aI41
aI41
aI41
aI41
aI41
aI41
aI41
aI41
aI41
atp170
a(S'AAAGGACGTAACATGTTA'
(lp171
I34
aI34
aI34
aI37
aI37
aI37
aI37
aI37
aI39
aI39
aI39
aI39
aI39
aI41
aI41
aI41
aI41
aI41
aI41
aI41
aI41
aI41
aI41
aI41
aI41
atp172
a(S'CGACCCGCCCGCTTGGTN'
(lp173
I2
aI16
aI28
aI35
aI37
aI37
aI37
aI37
aI39
aI39
aI39
aI39
aI39
aI41
aI41
aI40
aI39
aI39
aI37
aI37
aI37
aI35
aI36
aI35
aI35
atp174
a(S'GCATGTGAACAGGAGCCC'
(lp175
I34
aI34
aI34
aI37
aI37
aI37
aI37
aI37
aI39
aI39
aI39
aI39
aI39
aI41
aI41
aI41
aI41
aI41
aI41
aI41
aI41
aI41
aI41
aI41
aI41
atp176
a(S'GGACTTTCAAAACCTATN'
(lp177
I2
aI16
aI28
aI35
aI35
aI37
aI33
aI35
aI37
aI37
aI39
aI39
aI39
aI40
aI40
aI40
aI40
aI40
aI40
aI40
aI40
aI40
aI40
aI40
aI40
atp178
a(S'GTGACGCGGGGGGTGCGG'
(lp179
I34
aI34
aI34
aI37
aI37
aI37
aI37
aI37
aI39
aI39
aI39
aI39
aI39
aI41
aI41
aI41
aI41
aI41
aI41
aI41
aI41
aI41
aI41
aI41
aI41
atp180
a(S'CGGTACACTACTCGACGC'
(lp181
I34
aI34
aI34
aI37
aI37
aI37
aI37
aI37
aI39
aI39
aI39
aI39
aI39
aI41
aI40
aI41
aI41
aI41
aI41
aI41
aI41
aI41
aI41
aI41
aI41
atp182
a(S'ACAGCGTGCGTGGCAGGG'
(lp183
I34
aI34
aI34
aI37
aI37
aI37
aI37
aI37
aI39
aI39
aI39
aI39
aI39
aI41
aI41
aI41
aI41
aI40
aI40
aI41
aI41
aI41
aI41
aI41
aI41
atp184
a(S'TTATGTATCTTCATTAAT'
(lp185
I34
aI34
aI34
aI37
aI37
aI37
aI37
aI37
aI39
aI39
aI39
aI39
aI39
aI41
aI41
aI41
aI41
aI41
aI41
aI41
aI41
aI41
aI41
aI41
aI41
atp186
a(S'TTCTAGATTTAACAATCA'
(lp187
I34
aI34
aI34
aI37
aI37
aI37
aI37
aI37
aI39
aI39
aI39
aI39
aI39
aI41
aI41
aI41
aI41
aI41
aI41
aI41
aI41
aI41
aI41
aI41
aI40
atp188
a(S'TGGCGGTGTAGTCATTTC'
(lp189
I34
aI34
aI34
aI37
aI37
aI37
aI37
aI37
aI39
aI39
aI39
aI39
aI39
aI41
aI41
aI41
aI41
aI41
aI41
aI41
aI41
aI41
aI41
aI41
aI41
atp190
a(S'GTTCCGAGCTGGCCGGGG'
(lp191
I34
aI34
aI34
aI37
aI37
aI37
aI37
aI37
aI39
aI39
aI39
aI39
aI39
aI41
aI41
aI41
aI41
aI41
aI41
aI41
aI41
aI41
aI41
aI41
aI41
atp192
a(S'AAGCACCCGAACATACGC'
(lp193
I34
aI34
aI34
aI37
aI37
aI37
aI37
aI37
aI39
aI39
aI39
aI39
aI39
aI38
aI39
aI41
aI41
aI41
aI41
aI41
aI41
aI41
aI41
aI41
aI41
atp194
a(S'GCTTTCCACGTACGTATG'
(lp195
I34
aI34
aI34
aI37
aI37
aI37
aI37
aI37
aI39
aI39
aI39
aI39
aI39
aI41
aI41
aI41
aI41
aI41
aI41
aI41
aI41
aI41
aI41
aI41
aI41
atp196
a(S'CTCCCTTAGCCAAGGCAC'
(lp197
I34
aI34
aI34
aI37
aI37
aI37
aI37
aI37
aI39
aI39
aI39
aI39
aI39
aI41
aI41
aI41
aI41
aI41
aI40
aI41
aI41
aI41
aI41
aI41
aI41
atp198
a(S'ATATACATACCTGTCCTC'
(lp199
I34
aI34
aI34
aI37
aI37
aI37
aI37
aI37
aI39
aI37
aI39
aI39
aI39
aI40
aI41
aI41
aI41
aI41
aI41
aI41
aI41
aI41
aI41
aI41
aI41
atp200
a(S'GTGTTTGTACCCAACCAG'
(lp201
I33
aI34
aI34
aI37
aI35
aI37
aI37
aI37
aI39
aI39
aI39
aI39
aI39
aI41
aI41
aI41
aI41
aI41
aI41
aI41
aI41
aI41
aI41
aI41
aI41
atp202
a(S'AATCTCCCTACTGCTTTA'
(lp203
I34
aI34
aI34
aI37
aI37
aI37
aI37
aI37
aI39
aI39
aI39
aI39
aI39
aI41
aI41
aI41
aI41
aI41
aI41
aI41
aI41
aI41
aI41
aI41
aI41
atp204
a(S'AGCGCCGTGGGAGTGTGA'
(lp205
I31
aI27
aI31
aI35
aI35
aI35
aI35
aI35
aI37
aI35
aI37
aI37
aI37
aI41
aI41
aI40
aI40
aI23
aI30
aI32
aI35
aI39
aI40
aI40
aI35
atp206
a(S'AAGGTGAGATACGCAGAG'
(lp207
I33
aI33
aI33
aI37
aI37
aI37
aI37
aI37
aI39
aI39
aI39
aI39
aI39
aI41
aI41
aI41
aI41
aI41
aI41
aI41
aI41
aI40
aI41
aI41
aI41
atp208
a(S'CACGATGTTTGGGTCTGC'
(lp209
I34
aI34
aI34
aI37
aI37
aI37
aI37
aI37
aI39
aI39
aI39
aI39
aI39
aI41
aI41
aI41
aI40
aI41
aI41
aI41
aI41
aI41
aI41
aI41
aI41
atp210
a(S'CTCCGTAGCCTGGCGTCC'
(lp211
I34
aI34
aI34
aI37
aI37
aI37
aI37
aI37
aI39
aI39
aI39
aI39
aI39
aI41
aI41
aI41
aI41
aI41
aI41
aI41
aI41
aI41
aI41
aI41
aI41
atp212
a(S'GTCAACTGTTTGTCGTCT'
(lp213
I34
aI34
aI34
aI37
aI37
aI37
aI37
aI37
aI39
aI39
aI39
aI39
aI39
aI41
aI40
aI41
aI41
aI41
aI41
aI41
aI41
aI41
aI41
aI41
aI41
atp214
a(S'CAAGCTCCCATACACTAA'
(lp215
I33
aI33
aI33
aI35
aI33
aI35
aI35
aI36
aI39
aI39
aI39
aI39
aI38
aI41
aI41
aI41
aI41
aI41
aI41
aI41
aI41
aI38
aI41
aI41
aI41
atp216
a(S'CGGTATTTCGTTTCAGGG'
(lp217
I34
aI34
aI34
aI37
aI37
aI37
aI37
aI37
aI39
aI39
aI39
aI39
aI39
aI41
aI41
aI41
aI41
aI41
aI41
aI41
aI41
aI41
aI41
aI41
aI41
atp218
a(S'ATGCACTACCGGCGTATA'
(lp219
I33
aI33
aI31
aI32
aI35
aI35
aI32
aI35
aI35
aI39
aI37
aI32
aI39
aI38
aI39
aI35
aI38
aI36
aI38
aI38
aI29
aI37
aI39
aI40
aI41
atp220
a(S'AGGACGTTACGTGCTCCA'
(lp221
I33
aI33
aI34
aI37
aI37
aI37
aI37
aI37
aI39
aI39
aI39
aI39
aI39
aI41
aI41
aI41
aI41
aI41
aI41
aI41
aI41
aI41
aI41
aI41
aI41
atp222
a(S'AAAATTTACCGATACTGG'
(lp223
I33
aI34
aI34
aI37
aI35
aI37
aI37
aI37
aI39
aI39
aI39
aI39
aI39
aI41
aI41
aI40
aI40
aI41
aI41
aI41
aI41
aI41
aI41
aI41
aI41
atp224
a(S'AACGTACACGGCCGATAT'
(lp225
I33
aI33
aI34
aI37
aI37
aI37
aI37
aI37
aI39
aI39
aI39
aI39
aI39
aI40
aI41
aI41
aI39
aI41
aI41
aI41
aI41
aI41
aI41
aI41
aI41
atp226
a(S'GTAAGTTGCCATTGGACG'
(lp227
I31
aI34
aI31
aI37
aI37
aI37
aI37
aI37
aI39
aI38
aI39
aI39
aI39
aI41
aI41
aI41
aI41
aI41
aI41
aI41
aI41
aI41
aI41
aI41
aI40
atp228
a(S'AGATATCCAAGCAACTAT'
(lp229
I34
aI34
aI34
aI37
aI37
aI37
aI37
aI37
aI39
aI39
aI39
aI38
aI39
aI41
aI41
aI41
aI41
aI41
aI41
aI41
aI41
aI41
aI41
aI41
aI41
atp230
a(S'TAATCGGAGGACCTTTGA'
(lp231
I34
aI34
aI34
aI37
aI37
aI37
aI37
aI37
aI39
aI39
aI39
aI39
aI39
aI41
aI41
aI41
aI41
aI41
aI41
aI41
aI41
aI41
aI41
aI41
aI40
atp232
a(S'ACTACGAACTTTACAGAA'
(lp233
I34
aI34
aI34
aI37
aI37
aI36
aI37
aI37
aI39
aI39
aI39
aI39
aI39
aI41
aI41
aI41
aI41
aI39
aI41
aI41
aI41
aI41
aI41
aI41
aI41
atp234
a(S'TATCAAGTAAATTTGAGC'
(lp235
I34
aI34
aI34
aI37
aI37
aI37
aI37
aI37
aI39
aI39
aI39
aI39
aI39
aI41
aI41
aI41
aI41
aI41
aI41
aI41
aI41
aI41
aI41
aI41
aI41
atp236
a(S'CATGGGTGAACAGGATGG'
(lp237
I34
aI34
aI34
aI37
aI37
aI37
aI37
aI37
aI39
aI39
aI39
aI39
aI39
aI41
aI41
aI41
aI41
aI41
aI41
aI41
aI41
aI41
aI41
aI41
aI41
atp238
a(S'CTGTAAGTGCTCGGAAAA'
(lp239
I34
aI34
aI34
aI37
aI37
aI37
aI37
aI37
aI39
aI39
aI39
aI39
aI39
aI41
aI41
aI41
aI41
aI41
aI41
aI41
aI41
aI41
aI41
aI41
aI41
atp240
a(S'GGCCAAGAATCGCATTTA'
(lp241
I34
aI34
aI34
aI37
aI37
aI37
aI37
aI37
aI39
aI39
aI39
aI39
aI39
aI41
aI41
aI41
aI41
aI41
aI41
aI41
aI41
aI41
aI41
aI41
aI41
atp242
a(S'CCGAGTGATAATCAAAGG'
(lp243
I34
aI34
aI34
aI37
aI37
aI37
aI37
aI37
aI39
aI39
aI39
aI39
aI39
aI41
aI41
aI41
aI41
aI41
aI41
aI41
aI41
aI41
aI41
aI41
aI41
atp244
a(S'GGTACCTCTAGGGCGTAA'
(lp245
I34
aI34
aI34
aI37
aI37
aI37
aI37
aI37
aI39
aI39
aI39
aI39
aI39
aI41
aI39
aI38
aI40
aI41
aI41
aI41
aI41
aI41
aI41
aI41
aI41
atp246
a(S'TAACCCTAGAGCACTACT'
(lp247
I34
aI34
aI33
aI37
aI37
aI35
aI37
aI37
aI39
aI39
aI39
aI39
aI39
aI41
aI41
aI39
aI40
aI41
aI41
aI41
aI41
aI41
aI41
aI41
aI41
atp248
a(S'GGACTAACCACACAAATT'
(lp249
I34
aI34
aI34
aI37
aI37
aI37
aI37
aI37
aI39
aI39
aI39
aI39
aI39
aI41
aI41
aI40
aI41
aI41
aI41
aI41
aI41
aI41
aI41
aI41
aI41
atp250
a(S'AGGCGACGCGGGCCTTAG'
(lp251
I34
aI34
aI34
aI37
aI37
aI37
aI37
aI37
aI39
aI39
aI39
aI39
aI39
aI41
aI41
aI41
aI41
aI41
aI41
aI41
aI41
aI41
aI41
aI41
aI41
atp252
a(S'CCATGGTAGAGTCTCTGC'
(lp253
I34
aI34
aI34
aI37
aI37
aI37
aI37
aI37
aI39
aI39
aI39
aI39
aI39
aI41
aI41
aI41
aI41
aI41
aI41
aI41
aI41
aI41
aI41
aI41
aI41
atp254
a(S'TCAGTTGATGTTTACCCT'
(lp255
I33
aI33
aI34
aI37
aI35
aI35
aI37
aI37
aI39
aI39
aI39
aI39
aI39
aI41
aI41
aI41
aI41
aI41
aI41
aI41
aI41
aI41
aI41
aI41
aI41
atp256
a(S'TCGAATCGTCATGCCAAA'
(lp257
I34
aI34
aI34
aI37
aI37
aI37
aI37
aI37
aI39
aI39
aI39
aI39
aI39
aI41
aI41
aI41
aI41
aI41
aI41
aI41
aI41
aI41
aI41
aI41
aI41
atp258
a(S'CTCGCAGGCTTGTCGCCA'
(lp259
I34
aI34
aI34
aI37
aI37
aI37
aI37
aI37
aI39
aI39
aI39
aI39
aI39
aI41
aI41
aI41
aI41
aI41
aI41
aI41
aI41
aI41
aI41
aI41
aI41
atp260
a(S'AGCAGTATGATCAAAGAC'
(lp261
I34
aI34
aI34
aI37
aI37
aI37
aI37
aI37
aI39
aI39
aI39
aI39
aI39
aI41
aI41
aI41
aI41
aI41
aI41
aI41
aI41
aI41
aI41
aI41
aI41
atp262
asg2
(g3
g4
(I1
I3
S'TGACAT'
p263
ttRp264
(lp265
(S'GGCTTCCTTCCTACGTCT'
(lp266
I34
aI34
aI34
aI37
aI37
aI37
aI37
aI37
aI39
aI39
aI39
aI39
aI39
aI41
aI41
aI41
aI41
aI41
aI41
aI41
aI41
aI41
aI41
aI41
aI41
atp267
a(S'GTCCCCAAAAAATCCGTC'
(lp268
I34
aI34
aI34
aI37
aI37
aI37
aI37
aI37
aI39
aI39
aI39
aI39
aI39
aI41
aI41
aI41
aI41
aI41
aI41
aI41
aI41
aI41
aI41
aI41
aI41
atp269
a(S'TAATCACTAGTTAGGCCT'
(lp270
I34
aI34
aI34
aI37
aI37
aI37
aI37
aI37
aI39
aI39
aI39
aI39
aI37
aI40
aI41
aI41
aI41
aI41
aI41
aI41
aI41
aI41
aI41
aI41
aI41
atp271
a(S'GTAGGCCCACTAGAATGG'
(lp272
I34
aI34
aI34
aI37
aI37
aI37
aI37
aI37
aI39
aI39
aI39
aI39
aI39
aI41
aI41
aI41
aI41
aI41
aI41
aI41
aI41
aI41
aI41
aI41
aI41
atp273
a(S'GTGGACTAGGCGTAGCTT'
(lp274
I34
aI34
aI34
aI37
aI37
aI37
aI37
aI37
aI39
aI39
aI39
aI39
aI39
aI41
aI41
aI41
aI41
aI41
aI41
aI41
aI41
aI41
aI41
aI41
aI41
atp275
a(S'AATGGATACTTCTAACGT'
(lp276
I34
aI34
aI34
aI37
aI37
aI37
aI37
aI37
aI39
aI39
aI39
aI39
aI39
aI41
aI41
aI41
aI41
aI41
aI41
aI41
aI41
aI41
aI41
aI41
aI41
atp277
a(S'TGTCTCATCCCTGCGACA'
(lp278
I34
aI34
aI34
aI37
aI37
aI37
aI37
aI37
aI37
aI37
aI39
aI38
aI39
aI41
aI41
aI40
aI40
aI41
aI41
aI41
aI41
aI41
aI41
aI41
aI40
atp279
a(S'ACCATTGATTGTGCGAGC'
(lp280
I34
aI34
aI34
aI37
aI37
aI37
aI37
aI37
aI39
aI39
aI39
aI39
aI39
aI41
aI41
aI41
aI41
aI38
aI39
aI40
aI41
aI41
aI41
aI41
aI41
atp281
a(S'ACGTTAGACCCCCTCACC'
(lp282
I33
aI34
aI33
aI35
aI37
aI37
aI37
aI37
aI39
aI39
aI39
aI39
aI39
aI41
aI41
aI41
aI41
aI40
aI41
aI41
aI41
aI41
aI41
aI41
aI41
atp283
a(S'CGGGCTTTATATGCTGCT'
(lp284
I34
aI34
aI34
aI37
aI37
aI37
aI37
aI37
aI39
aI39
aI39
aI39
aI39
aI41
aI40
aI41
aI41
aI41
aI41
aI41
aI41
aI41
aI41
aI41
aI41
atp285
a(S'GACAGTCGAACGACATAG'
(lp286
I34
aI34
aI34
aI37
aI37
aI37
aI37
aI37
aI39
aI39
aI39
aI39
aI39
aI41
aI41
aI41
aI41
aI41
aI41
aI41
aI41
aI41
aI41
aI41
aI40
atp287
a(S'TTGCGGCGAATCAATCAC'
(lp288
I34
aI33
aI34
aI37
aI37
aI37
aI37
aI37
aI39
aI39
aI39
aI39
aI39
aI41
aI41
aI41
aI41
aI41
aI41
aI41
aI41
aI41
aI41
aI41
aI41
atp289
a(S'ATCAGGAAGTGACGCTTG'
(lp290
I34
aI34
aI34
aI37
aI37
aI37
aI37
aI37
aI39
aI39
aI39
aI39
aI39
aI41
aI41
aI41
aI41
aI41
aI41
aI41
aI41
aI41
aI41
aI41
aI41
atp291
a(S'CAAGCAGCTGGGGCAATC'
(lp292
I31
aI31
aI31
aI35
aI30
aI25
aI35
aI33
aI34
aI32
aI33
aI37
aI33
aI33
aI38
aI40
aI36
aI32
aI38
aI39
aI40
aI40
aI40
aI40
aI40
atp293
a(S'CTTCGAGGAAAATCGTGG'
(lp294
I34
aI34
aI34
aI37
aI37
aI37
aI37
aI37
aI39
aI39
aI39
aI39
aI39
aI41
aI41
aI41
aI41
aI41
aI41
aI41
aI41
aI41
aI41
aI41
aI41
atp295
a(S'AAATTGCTTCGACAACAT'
(lp296
I34
aI34
aI34
aI37
aI37
aI37
aI37
aI37
aI39
aI39
aI39
aI39
aI39
aI41
aI41
aI41
aI41
aI41
aI41
aI41
aI41
aI41
aI41
aI41
aI41
atp297
a(S'CGCGCATTATACATGTGC'
(lp298
I34
aI34
aI34
aI37
aI37
aI37
aI37
aI37
aI39
aI39
aI39
aI39
aI39
aI41
aI41
aI41
aI41
aI41
aI41
aI41
aI41
aI41
aI41
aI41
aI41
atp299
a(S'GGTAGGGGGTACCATGGC'
(lp300
I34
aI34
aI34
aI37
aI37
aI37
aI37
aI35
aI37
aI39
aI39
aI39
aI39
aI41
aI41
aI41
aI41
aI41
aI41
aI41
aI41
aI41
aI41
aI41
aI41
atp301
a(S'TATAACAGGTATGTACAA'
(lp302
I28
aI30
aI30
aI33
aI30
aI35
aI35
aI35
aI37
aI37
aI37
aI37
aI33
aI36
aI36
aI37
aI37
aI36
aI39
aI38
aI33
aI31
aI39
aI34
aI35
atp303
a(S'ACAACTATGAACCCGCCC'
(lp304
I34
aI34
aI34
aI37
aI37
aI37
aI37
aI35
aI39
aI39
aI39
aI39
aI39
aI41
aI41
aI41
aI41
aI39
aI40
aI41
aI41
aI41
aI41
aI41
aI41
atp305
a(S'AGTCGTGAGCGTAAGGCA'
(lp306
I34
aI34
aI34
aI37
aI37
aI37
aI37
aI37
aI39
aI39
aI39
aI39
aI39
aI41
aI41
aI41
aI41
aI41
aI41
aI41
aI41
aI41
aI41
aI41
aI41
atp307
a(S'TAATAGGATCAGTTGGGG'
(lp308
I34
aI34
aI34
aI37
aI37
aI37
aI37
aI37
aI39
aI39
aI39
aI39
aI39
aI41
aI41
aI41
aI41
aI41
aI41
aI41
aI41
aI41
aI41
aI41
aI41
atp309
a(S'GGAATGGGTTTCGGAGTG'
(lp310
I34
aI34
aI34
aI37
aI37
aI37
aI37
aI37
aI39
aI39
aI39
aI39
aI39
aI41
aI41
aI41
aI41
aI41
aI41
aI41
aI41
aI41
aI41
aI41
aI41
atp311
a(S'CGAGAGAGCTACCGTAAG'
(lp312
I34
aI34
aI34
aI37
aI37
aI37
aI37
aI37
aI39
aI39
aI39
aI39
aI39
aI41
aI41
aI41
aI41
aI41
aI41
aI41
aI41
aI41
aI41
aI41
aI41
atp313
a(S'TCCCCGCTCTCGACTCCC'
(lp314
I34
aI34
aI34
aI37
aI37
aI37
aI37
aI37
aI39
aI39
aI39
aI39
aI39
aI41
aI41
aI41
aI41
aI41
aI41
aI41
aI41
aI41
aI41
aI41
aI41
atp315
a(S'TCACGCGTTCCATTAGTT'
(lp316
I34
aI34
aI34
aI37
aI37
aI37
aI37
aI35
aI39
aI39
aI39
aI39
aI39
aI41
aI41
aI41
aI41
aI41
aI41
aI41
aI41
aI41
aI41
aI41
aI40
atp317
a(S'AGTGCTTGAAAGAAAACA'
(lp318
I31
aI34
aI31
aI37
aI37
aI37
aI37
aI37
aI39
aI37
aI38
aI38
aI39
aI41
aI41
aI41
aI40
aI41
aI41
aI41
aI41
aI41
aI41
aI41
aI41
atp319
a(S'GCCCCGTTAAATTCGACG'
(lp320
I31
aI27
aI30
aI28
aI35
aI35
aI37
aI36
aI35
aI35
aI35
aI37
aI32
aI38
aI36
aI33
aI33
aI38
aI39
aI38
aI40
aI41
aI41
aI41
aI41
atp321
a(S'TTCAATTGTCACGCTCGG'
(lp322
I34
aI34
aI34
aI37
aI37
aI37
aI37
aI31
aI35
aI37
aI39
aI37
aI39
aI40
aI38
aI38
aI41
aI40
aI41
aI41
aI41
aI41
aI41
aI41
aI40
atp323
a(S'CCTCGCCCATAAGGGGCG'
(lp324
I34
aI34
aI34
aI37
aI37
aI37
aI37
aI37
aI39
aI39
aI39
aI39
aI39
aI41
aI41
aI41
aI41
aI41
aI41
aI40
aI41
aI41
aI41
aI41
aI41
atp325
a(S'AGCGTAACCACCAAAGTG'
(lp326
I34
aI34
aI34
aI37
aI37
aI37
aI37
aI37
aI37
aI39
aI39
aI39
aI39
aI41
aI41
aI41
aI41
aI41
aI41
aI41
aI41
aI41
aI41
aI41
aI41
atp327
a(S'CAGACACATACGGCCAAC'
(lp328
I34
aI34
aI34
aI37
aI37
aI37
aI37
aI37
aI39
aI39
aI39
aI39
aI39
aI41
aI41
aI41
aI41
aI41
aI41
aI41
aI41
aI41
aI41
aI41
aI41
atp329
a(S'TTGGTGCCTAGGGTACGC'
(lp330
I34
aI34
aI34
aI37
aI37
aI37
aI37
aI37
aI39
aI39
aI39
aI39
aI39
aI41
aI41
aI41
aI41
aI41
aI41
aI41
aI41
aI41
aI41
aI41
aI41
atp331
a(S'CGGGTACCGTACAGCGAC'
(lp332
I34
aI34
aI34
aI37
aI37
aI37
aI37
aI37
aI39
aI39
aI39
aI39
aI39
aI41
aI41
aI41
aI41
aI41
aI41
aI41
aI41
aI41
aI41
aI41
aI41
atp333
a(S'TAATACGCAACGCGCCCG'
(lp334
I34
aI34
aI34
aI37
aI37
aI37
aI37
aI37
aI39
aI39
aI39
aI39
aI39
aI40
aI41
aI41
aI41
aI41
aI41
aI41
aI41
aI41
aI41
aI41
aI41
atp335
a(S'CCTTCAGGGTTGAAAACT'
(lp336
I33
aI34
aI33
aI37
aI37
aI37
aI37
aI37
aI39
aI39
aI39
aI39
aI39
aI41
aI41
aI41
aI41
aI41
aI41
aI41
aI41
aI41
aI41
aI41
aI41
atp337
a(S'GTGCTGGGCGCACTAACT'
(lp338
I34
aI34
aI34
aI37
aI37
aI37
aI37
aI37
aI39
aI39
aI39
aI39
aI39
aI41
aI41
aI41
aI41
aI41
aI41
aI41
aI41
aI41
aI41
aI41
aI41
atp339
a(S'ACGGCAGGTGGCGTATTG'
(lp340
I34
aI34
aI34
aI37
aI37
aI37
aI37
aI37
aI39
aI39
aI39
aI39
aI39
aI41
aI41
aI41
aI41
aI40
aI41
aI41
aI41
aI41
aI41
aI41
aI41
atp341
a(S'GTCTTTTTACTTCGCTTT'
(lp342
I34
aI34
aI34
aI37
aI37
aI37
aI37
aI37
aI39
aI39
aI39
aI39
aI39
aI41
aI41
aI41
aI41
aI41
aI41
aI41
aI41
aI41
aI41
aI41
aI41
atp343
a(S'TAGGTATGCAACCCCTAA'
(lp344
I34
aI34
aI34
aI37
aI37
aI37
aI37
aI35
aI39
aI39
aI39
aI39
aI39
aI41
aI41
aI41
aI41
aI41
aI40
aI40
aI38
aI41
aI40
aI41
aI41
atp345
asg2
(g3
g4
(I2
I3
S'GCGGAC'
p346
ttRp347
(lp348
(S'CCCCAAAACTCCCCGTAG'
(lp349
I34
aI34
aI34
aI37
aI37
aI37
aI37
aI37
aI39
aI39
aI39
aI39
aI39
aI41
aI41
aI41
aI41
aI41
aI41
aI41
aI40
aI41
aI41
aI41
aI41
atp350
a(S'TGGTCTGGTTAAAGGGCG'
(lp351
I34
aI34
aI34
aI37
aI37
aI37
aI37
aI37
aI39
aI39
aI39
aI39
aI39
aI41
aI40
aI41
aI41
aI41
aI41
aI41
aI41
aI34
aI38
aI38
aI40
atp352
a(S'TTAGAATCCTCGACAACT'
(lp353
I31
aI31
aI34
aI37
aI37
aI37
aI37
aI37
aI39
aI39
aI39
aI39
aI39
aI41
aI41
aI41
aI40
aI41
aI41
aI41
aI41
aI41
aI41
aI41
aI41
atp354
a(S'GTTTCCGCATTAGATCCC'
(lp355
I34
aI34
aI34
aI37
aI37
aI37
aI37
aI37
aI39
aI39
aI39
aI39
aI39
aI41
aI41
aI41
aI41
aI41
aI41
aI41
aI41
aI41
aI41
aI41
aI41
atp356
a(S'CGCTCCCTGACGCCCCTG'
(lp357
I34
aI34
aI34
aI37
aI37
aI37
aI37
aI37
aI37
aI37
aI39
aI39
aI39
aI40
aI40
aI40
aI40
aI40
aI40
aI40
aI38
aI34
aI39
aI38
aI38
atp358
a(S'CATTGCCTTCGACAGCTA'
(lp359
I34
aI34
aI34
aI37
aI37
aI37
aI37
aI37
aI38
aI39
aI39
aI39
aI39
aI41
aI41
aI41
aI41
aI41
aI41
aI41
aI38
aI31
aI38
aI38
aI40
atp360
a(S'TCGAGGTGAAGGGGAGGA'
(lp361
I34
aI34
aI34
aI37
aI37
aI37
aI37
aI37
aI39
aI39
aI39
aI39
aI39
aI41
aI41
aI41
aI41
aI41
aI41
aI41
aI41
aI41
aI41
aI41
aI41
atp362
a(S'TATCAAGCAGGACAGTTA'
(lp363
I34
aI34
aI34
aI37
aI37
aI37
aI37
aI37
aI39
aI39
aI39
aI39
aI39
aI41
aI41
aI41
aI41
aI41
aI41
aI41
aI41
aI41
aI41
aI41
aI41
atp364
a(S'AAGCACCCGAACATACGN'
(lp365
I2
aI16
aI28
aI35
aI35
aI37
aI37
aI36
aI39
aI39
aI39
aI39
aI39
aI37
aI38
aI40
aI41
aI41
aI41
aI41
aI41
aI41
aI41
aI41
aI41
atp366
a(S'GTGACGTACTCACCCGTG'
(lp367
I34
aI34
aI34
aI37
aI37
aI37
aI35
aI35
aI39
aI39
aI39
aI39
aI39
aI41
aI40
aI41
aI41
aI41
aI41
aI41
aI41
aI41
aI41
aI41
aI41
atp368
a(S'GCGGTTCACGAATATTAT'
(lp369
I34
aI34
aI34
aI37
aI37
aI37
aI37
aI37
aI39
aI39
aI37
aI39
aI39
aI41
aI41
aI41
aI41
aI41
aI41
aI41
aI41
aI41
aI41
aI41
aI41
atp370
a(S'TCCATTGGTGGGAGCGGG'
(lp371
I34
aI34
aI34
aI37
aI37
aI37
aI37
aI37
aI39
aI39
aI39
aI39
aI39
aI41
aI41
aI41
aI41
aI41
aI41
aI40
aI41
aI41
aI41
aI41
aI41
atp372
a(S'ACACTTCATTTTCCACGA'
(lp373
I33
aI34
aI34
aI37
aI37
aI37
aI37
aI37
aI39
aI39
aI39
aI39
aI39
aI41
aI41
aI39
aI40
aI39
aI39
aI41
aI41
aI41
aI41
aI41
aI41
atp374
a(S'TATAACTGTGGTGGTCGC'
(lp375
I34
aI34
aI34
aI37
aI37
aI37
aI37
aI37
aI39
aI39
aI39
aI39
aI39
aI41
aI41
aI41
aI41
aI41
aI41
aI41
aI41
aI41
aI41
aI41
aI41
atp376
a(S'GATGTGGATGGCATATCG'
(lp377
I34
aI34
aI34
aI37
aI37
aI37
aI37
aI37
aI39
aI39
aI39
aI39
aI39
aI41
aI41
aI41
aI41
aI41
aI41
aI41
aI41
aI41
aI41
aI41
aI41
atp378
a(S'TCCGTGGGGAGGTTGCGT'
(lp379
I34
aI34
aI34
aI37
aI37
aI37
aI37
aI37
aI39
aI39
aI39
aI39
aI39
aI41
aI41
aI41
aI41
aI41
aI41
aI41
aI41
aI41
aI41
aI41
aI41
atp380
a(S'AGGCAATGACCCCGGAGC'
(lp381
I34
aI34
aI34
aI37
aI37
aI37
aI37
aI37
aI39
aI39
aI39
aI39
aI39
aI41
aI41
aI41
aI41
aI41
aI41
aI41
aI41
aI41
aI41
aI41
aI41
atp382
a(S'TGAAGGTGCATATATGGC'
(lp383
I34
aI34
aI34
aI37
aI37
aI37
aI37
aI37
aI39
aI39
aI39
aI39
aI39
aI41
aI41
aI41
aI41
aI41
aI41
aI41
aI41
aI41
aI41
aI41
aI41
atp384
a(S'GTGCGGGAGCTCTTAACA'
(lp385
I33
aI33
aI31
aI35
aI37
aI35
aI37
aI37
aI39
aI39
aI39
aI39
aI39
aI40
aI40
aI41
aI41
aI41
aI40
aI40
aI41
aI41
aI41
aI41
aI40
atp386
a(S'TGTCTGGCGCGCGGCCTG'
(lp387
I34
aI34
aI34
aI37
aI37
aI37
aI37
aI37
aI39
aI39
aI39
aI39
aI39
aI41
aI41
aI41
aI41
aI41
aI41
aI41
aI41
aI41
aI41
aI41
aI41
atp388
a(S'GGAAATGTGGACTCGTAG'
(lp389
I34
aI34
aI34
aI37
aI37
aI37
aI37
aI37
aI39
aI39
aI39
aI39
aI39
aI41
aI41
aI41
aI41
aI41
aI41
aI41
aI41
aI41
aI41
aI41
aI41
atp390
a(S'CGCTCGTTCACCAAAGCC'
(lp391
I34
aI34
aI34
aI37
aI37
aI37
aI37
aI37
aI39
aI39
aI39
aI39
aI39
aI41
aI41
aI41
aI41
aI41
aI41
aI41
aI41
aI41
aI41
aI41
aI41
atp392
a(S'GATATAAAAACAGATCCC'
(lp393
I34
aI34
aI34
aI37
aI37
aI37
aI37
aI37
aI39
aI39
aI39
aI39
aI39
aI41
aI41
aI41
aI41
aI41
aI41
aI41
aI41
aI41
aI41
aI41
aI41
atp394
a(S'TCCAGATGTCCTGATGTG'
(lp395
I34
aI34
aI34
aI37
aI37
aI37
aI37
aI37
aI39
aI39
aI39
aI39
aI39
aI41
aI41
aI41
aI41
aI41
aI41
aI41
aI41
aI41
aI41
aI41
aI41
atp396
a(S'TCTGTGCGTAGGAAATAT'
(lp397
I34
aI34
aI34
aI37
aI37
aI37
aI37
aI37
aI39
aI39
aI39
aI39
aI39
aI41
aI41
aI41
aI41
aI41
aI41
aI41
aI41
aI41
aI41
aI41
aI41
atp398
a(S'AGACGACCTAAACTCCAT'
(lp399
I34
aI34
aI34
aI37
aI37
aI37
aI37
aI37
aI39
aI39
aI39
aI39
aI39
aI40
aI41
aI41
aI41
aI41
aI41
aI41
aI41
aI41
aI41
aI41
aI41
atp400
a(S'CGCGAGTGTCACTAGCCA'
(lp401
I34
aI34
aI34
aI37
aI37
aI37
aI37
aI37
aI39
aI39
aI39
aI39
aI39
aI41
aI41
aI41
aI41
aI41
aI41
aI41
aI41
aI41
aI41
aI41
aI41
atp402
a(S'GAGTCGAGGGAGTCCGCC'
(lp403
I34
aI34
aI34
aI37
aI37
aI37
aI37
aI37
aI39
aI39
aI39
aI39
aI39
aI41
aI41
aI41
aI41
aI41
aI41
aI41
aI41
aI41
aI41
aI41
aI41
atp404
a(S'TATCAAGTAAATTTGAGC'
(lp405
I34
aI34
aI34
aI37
aI37
aI37
aI37
aI37
aI39
aI39
aI39
aI39
aI39
aI41
aI41
aI41
aI41
aI41
aI41
aI41
aI41
aI41
aI41
aI41
aI40
atp406
a(S'TGCCTTCGTGATACCGCT'
(lp407
I34
aI34
aI34
aI37
aI37
aI37
aI37
aI37
aI39
aI39
aI39
aI39
aI39
aI41
aI41
aI41
aI41
aI41
aI41
aI41
aI41
aI41
aI40
aI41
aI41
atp408
a(S'ACTCGAAAGTTCGCTTTA'
(lp409
I34
aI34
aI34
aI37
aI37
aI37
aI37
aI37
aI39
aI39
aI39
aI39
aI39
aI41
aI41
aI41
aI41
aI38
aI39
aI40
aI41
aI41
aI41
aI41
aI41
atp410
a(S'AGGCGCCCCGATCTGCCA'
(lp411
I34
aI34
aI34
aI37
aI37
aI37
aI37
aI37
aI39
aI39
aI39
aI39
aI39
aI41
aI41
aI41
aI41
aI41
aI41
aI41
aI41
aI41
aI41
aI41
aI41
atp412
a(S'CTCCCGTATATTTGTGCA'
(lp413
I34
aI34
aI34
aI37
aI37
aI37
aI37
aI37
aI39
aI39
aI39
aI39
aI39
aI41
aI41
aI41
aI41
aI41
aI41
aI41
aI41
aI41
aI41
aI41
aI41
atp414
a(S'TGTTGGAGTACGTTATGA'
(lp415
I34
aI34
aI34
aI37
aI37
aI37
aI37
aI37
aI39
aI39
aI39
aI39
aI39
aI41
aI41
aI41
aI41
aI41
aI41
aI40
aI41
aI41
aI41
aI41
aI40
atp416
a(S'TTCGTTTGCAACCGTACG'
(lp417
I34
aI34
aI34
aI37
aI37
aI37
aI37
aI37
aI39
aI39
aI39
aI39
aI39
aI41
aI41
aI41
aI41
aI41
aI41
aI40
aI41
aI41
aI41
aI41
aI41
atp418
a(S'CCGTGGCTGCCACTGCTC'
(lp419
I34
aI34
aI34
aI37
aI37
aI37
aI37
aI37
aI39
aI39
aI39
aI39
aI39
aI41
aI41
aI41
aI41
aI41
aI40
aI41
aI41
aI41
aI41
aI41
aI41
atp420
a(S'TCACAAGGGTCGTAAGAT'
(lp421
I34
aI34
aI34
aI37
aI37
aI37
aI37
aI35
aI39
aI39
aI38
aI39
aI39
aI41
aI41
aI41
aI40
aI41
aI41
aI41
aI41
aI40
aI41
aI41
aI41
atp422
a(S'ACGGAAAAGGCGTCCGGC'
(lp423
I34
aI34
aI34
aI37
aI37
aI37
aI37
aI37
aI39
aI39
aI39
aI39
aI39
aI41
aI41
aI41
aI41
aI40
aI41
aI41
aI41
aI41
aI41
aI41
aI41
atp424
a(S'CAGACACATACGGCTAAC'
(lp425
I34
aI31
aI34
aI37
aI37
aI37
aI37
aI37
aI39
aI39
aI39
aI39
aI39
aI41
aI41
aI41
aI41
aI41
aI41
aI41
aI41
aI41
aI41
aI41
aI41
atp426
a(S'CCGTGGCTGCCACTGCTC'
(lp427
I34
aI34
aI34
aI37
aI37
aI37
aI37
aI37
aI39
aI39
aI39
aI39
aI39
aI41
aI41
aI41
aI41
aI41
aI40
aI41
aI41
aI41
aI41
aI41
aI41
atp428
a(S'GTATCTCGCAAAACTGCT'
(lp429
I34
aI34
aI34
aI37
aI37
aI37
aI37
aI37
aI39
aI39
aI39
aI39
aI39
aI41
aI41
aI41
aI41
aI41
aI41
aI41
aI41
aI41
aI41
aI41
aI41
atp430
a(S'ATCCCCCCCGCGTTACTA'
(lp431
I34
aI34
aI34
aI37
aI37
aI37
aI37
aI37
aI39
aI39
aI39
aI39
aI39
aI41
aI35
aI35
aI35
aI35
aI35
aI35
aI35
aI36
aI35
aI35
aI35
atp432
a(S'ACTCACCCGGCAGGATGC'
(lp433
I34
aI34
aI34
aI37
aI37
aI37
aI37
aI37
aI39
aI39
aI39
aI39
aI39
aI34
aI38
aI40
aI41
aI40
aI41
aI41
aI41
aI41
aI41
aI41
aI41
atp434
a(S'TCTTCATCAATGAGGTTC'
(lp435
I34
aI34
aI34
aI37
aI37
aI37
aI37
aI37
aI39
aI39
aI39
aI39
aI39
aI40
aI41
aI41
aI41
aI41
aI41
aI41
aI40
aI41
aI41
aI41
aI41
atp436
a(S'TTCCTACGGGATGTTGCT'
(lp437
I34
aI34
aI34
aI37
aI37
aI37
aI37
aI37
aI39
aI39
aI39
aI39
aI39
aI41
aI41
aI41
aI41
aI41
aI41
aI41
aI41
aI41
aI41
aI41
aI41
atp438
a(S'GTTACTAACTGCGAAATG'
(lp439
I34
aI34
aI34
aI37
aI37
aI37
aI37
aI37
aI39
aI39
aI39
aI39
aI39
aI41
aI40
aI40
aI41
aI41
aI41
aI41
aI41
aI41
aI41
aI41
aI41
atp440
a(S'TATAGCGTCCAACTGGGA'
(lp441
I34
aI34
aI34
aI37
aI37
aI37
aI37
aI37
aI39
aI39
aI39
aI39
aI39
aI40
aI41
aI41
aI41
aI41
aI41
aI41
aI41
aI41
aI41
aI41
aI41
atp442
a(S'CACGTGCTCCTTCCTCCC'
(lp443
I33
aI34
aI34
aI37
aI37
aI37
aI37
aI37
aI39
aI38
aI39
aI39
aI39
aI41
aI41
aI41
aI39
aI40
aI40
aI40
aI41
aI41
aI41
aI41
aI40
atp444
a(S'GGTTTATCCACTAACCAT'
(lp445
I33
aI34
aI34
aI37
aI35
aI37
aI37
aI37
aI39
aI39
aI39
aI39
aI39
aI41
aI41
aI41
aI41
aI41
aI41
aI41
aI41
aI41
aI41
aI41
aI41
atp446
a(S'CGACCTGGGTGCGAAGTG'
(lp447
I34
aI34
aI34
aI37
aI37
aI37
aI37
aI37
aI39
aI39
aI39
aI39
aI39
aI41
aI41
aI40
aI41
aI41
aI41
aI41
aI41
aI41
aI41
aI41
aI41
atp448
a(S'GAAGCTGGGGGCGAAGGG'
(lp449
I34
aI34
aI34
aI37
aI37
aI37
aI37
aI37
aI39
aI39
aI39
aI39
aI39
aI41
aI41
aI41
aI41
aI41
aI41
aI41
aI41
aI41
aI41
aI41
aI41
atp450
a(S'GTGGTCATAGTTGTTTCG'
(lp451
I34
aI34
aI34
aI37
aI37
aI37
aI37
aI37
aI39
aI39
aI39
aI39
aI39
aI41
aI41
aI41
aI41
aI41
aI41
aI41
aI41
aI41
aI41
aI41
aI41
atp452
a(S'ATTTGTCCCGGTCACTGA'
(lp453
I34
aI34
aI34
aI37
aI37
aI37
aI37
aI37
aI39
aI39
aI39
aI39
aI39
aI41
aI41
aI41
aI41
aI41
aI41
aI41
aI41
aI41
aI41
aI41
aI41
atp454
a(S'TAAGATCCTCCTCGACGC'
(lp455
I34
aI34
aI34
aI37
aI37
aI37
aI37
aI37
aI39
aI39
aI39
aI39
aI39
aI41
aI41
aI41
aI41
aI41
aI41
aI41
aI41
aI41
aI41
aI41
aI41
atp456
a(S'ATAGTAGTGAACGAGCGA'
(lp457
I34
aI34
aI34
aI37
aI37
aI37
aI37
aI37
aI39
aI39
aI39
aI39
aI39
aI41
aI41
aI40
aI41
aI41
aI41
aI41
aI41
aI41
aI41
aI41
aI41
atp458
a(S'AATTTCCAGAGCTCCAAT'
(lp459
I33
aI33
aI34
aI37
aI35
aI37
aI37
aI37
aI39
aI39
aI39
aI39
aI39
aI41
aI41
aI41
aI41
aI41
aI41
aI41
aI41
aI41
aI41
aI41
aI41
atp460
a(S'AGTTGGGGGGCTTTAGTG'
(lp461
I34
aI34
aI34
aI37
aI37
aI37
aI37
aI37
aI39
aI39
aI39
aI39
aI39
aI41
aI41
aI41
aI41
aI41
aI41
aI41
aI41
aI41
aI41
aI41
aI41
atp462
a(S'GGAGAGCCCATTAACAAT'
(lp463
I31
aI31
aI31
aI35
aI35
aI35
aI37
aI37
aI37
aI37
aI35
aI35
aI33
aI38
aI39
aI38
aI39
aI38
aI40
aI39
aI40
aI40
aI40
aI40
aI40
atp464
a(S'GCTCCTGGACCCTCTTGA'
(lp465
I31
aI31
aI31
aI35
aI35
aI35
aI35
aI32
aI34
aI27
aI34
aI35
aI39
aI40
aI38
aI36
aI36
aI38
aI40
aI40
aI40
aI40
aI40
aI40
aI37
atp466
a(S'ATAGTACCGCTATAACTT'
(lp467
I34
aI34
aI34
aI37
aI37
aI37
aI37
aI37
aI39
aI39
aI39
aI39
aI39
aI40
aI41
aI41
aI41
aI41
aI41
aI41
aI41
aI41
aI41
aI41
aI41
atp468
a(S'AGGCCGAGGATATTATGT'
(lp469
I33
aI34
aI33
aI37
aI37
aI37
aI37
aI37
aI38
aI39
aI39
aI39
aI38
aI41
aI40
aI40
aI41
aI40
aI40
aI40
aI41
aI41
aI41
aI41
aI41
atp470
a(S'AGGCACAATATACAACAG'
(lp471
I34
aI34
aI34
aI37
aI37
aI37
aI37
aI37
aI39
aI39
aI39
aI39
aI39
aI41
aI41
aI41
aI41
aI41
aI41
aI41
aI41
aI41
aI41
aI41
aI41
atp472
a(S'CCCCCCACGGGCTGCTAT'
(lp473
I34
aI34
aI34
aI37
aI37
aI37
aI37
aI37
aI39
aI39
aI39
aI37
aI39
aI41
aI41
aI41
aI41
aI35
aI33
aI35
aI35
aI35
aI35
aI35
aI35
atp474
a(S'GATCGAAGAAATCTTGTC'
(lp475
I34
aI34
aI34
aI37
aI37
aI37
aI37
aI37
aI38
aI39
aI39
aI39
aI39
aI41
aI41
aI40
aI41
aI41
aI41
aI41
aI41
aI41
aI41
aI41
aI40
atp476
a(S'AAAATCCGCATGCTCCCT'
(lp477
I34
aI34
aI34
aI37
aI37
aI37
aI37
aI37
aI39
aI39
aI39
aI39
aI39
aI41
aI41
aI41
aI41
aI41
aI41
aI41
aI41
aI41
aI41
aI41
aI41
atp478
a(S'GAAACAGTGGGACTTCAA'
(lp479
I34
aI34
aI34
aI37
aI37
aI37
aI35
aI37
aI39
aI39
aI39
aI39
aI39
aI41
aI40
aI41
aI41
aI40
aI41
aI41
aI41
aI41
aI41
aI41
aI41
atp480
a(S'CGACCGTGGATGATAACG'
(lp481
I34
aI34
aI31
aI37
aI37
aI37
aI37
aI37
aI39
aI39
aI39
aI39
aI39
aI41
aI41
aI41
aI41
aI41
aI39
aI40
aI41
aI41
aI41
aI41
aI41
atp482
a(S'GGCCGAGCGGAACAGTTG'
(lp483
I33
aI31
aI33
aI35
aI35
aI35
aI35
aI35
aI39
aI37
aI38
aI38
aI38
aI40
aI40
aI40
aI41
aI40
aI40
aI40
aI41
aI41
aI41
aI40
aI41
atp484
a(S'CGCTCGCGGGTAAGGAGG'
(lp485
I34
aI34
aI34
aI37
aI37
aI37
aI37
aI37
aI39
aI39
aI39
aI39
aI39
aI41
aI41
aI41
aI41
aI41
aI41
aI41
aI41
aI41
aI41
aI41
aI41
atp486
a(S'TGTTTCAAAGGGAGCCCC'
(lp487
I34
aI34
aI34
aI37
aI37
aI37
aI37
aI37
aI39
aI39
aI39
aI39
aI39
aI41
aI41
aI41
aI41
aI41
aI41
aI41
aI41
aI41
aI41
aI41
aI41
atp488
a(S'ATTCTTGTGAGAATGTTT'
(lp489
I34
aI34
aI34
aI37
aI37
aI37
aI37
aI37
aI39
aI39
aI39
aI39
aI39
aI41
aI41
aI41
aI41
aI41
aI41
aI41
aI41
aI41
aI41
aI41
aI41
atp490
a(S'TAGGCTACTTAAACCTAT'
(lp491
I34
aI34
aI34
aI37
aI37
aI35
aI37
aI37
aI39
aI39
aI39
aI39
aI39
aI41
aI41
aI41
aI41
aI41
aI41
aI41
aI41
aI41
aI41
aI41
aI41
atp492
a(S'TAATGGCGGCCTAAGAGA'
(lp493
I34
aI34
aI34
aI37
aI37
aI37
aI37
aI35
aI39
aI39
aI39
aI39
aI39
aI41
aI41
aI41
aI41
aI41
aI41
aI41
aI41
aI41
aI41
aI41
aI41
atp494
a(S'GGGGCAGGTCGAGAAGAC'
(lp495
I33
aI33
aI33
aI37
aI37
aI37
aI37
aI37
aI39
aI39
aI39
aI39
aI39
aI41
aI41
aI41
aI41
aI41
aI41
aI41
aI41
aI41
aI41
aI41
aI41
atp496
a(S'ACTTTTGGCTTCACACCA'
(lp497
I33
aI30
aI33
aI35
aI35
aI35
aI37
aI37
aI39
aI38
aI39
aI39
aI39
aI41
aI41
aI41
aI41
aI36
aI41
aI38
aI40
aI41
aI41
aI41
aI40
atp498
a(S'GGTGTGAATATATTCTAG'
(lp499
I34
aI34
aI34
aI37
aI37
aI37
aI37
aI37
aI39
aI39
aI39
aI39
aI39
aI41
aI41
aI41
aI41
aI41
aI41
aI41
aI41
aI41
aI41
aI41
aI40
atp500
a(S'GTTCAGAAATTAATTAAA'
(lp501
I34
aI34
aI34
aI37
aI37
aI37
aI37
aI37
aI39
aI38
aI38
aI39
aI39
aI41
aI41
aI40
aI41
aI41
aI41
aI41
aI41
aI41
aI41
aI41
aI41
atp502
a(S'TCTAGGCGGGACATGCAG'
(lp503
I34
aI34
aI34
aI37
aI37
aI37
aI37
aI37
aI39
aI39
aI39
aI39
aI39
aI41
aI41
aI41
aI41
aI41
aI41
aI41
aI41
aI41
aI41
aI41
aI40
atp504
a(S'TGGAGTTTGGTATATAGG'
(lp505
I34
aI34
aI34
aI37
aI37
aI37
aI37
aI37
aI39
aI39
aI39
aI39
aI39
aI41
aI41
aI41
aI41
aI41
aI41
aI41
aI41
aI41
aI41
aI41
aI41
atp506
a(S'TTTACCCCCTAATTCCGT'
(lp507
I34
aI34
aI34
aI37
aI37
aI37
aI37
aI37
aI39
aI39
aI39
aI39
aI39
aI41
aI34
aI36
aI39
aI40
aI41
aI41
aI41
aI41
aI41
aI41
aI41
atp508
a(S'TGACACTCCACTAAGGGT'
(lp509
I34
aI34
aI34
aI37
aI37
aI37
aI37
aI37
aI39
aI39
aI39
aI39
aI39
aI38
aI39
aI39
aI40
aI41
aI41
aI41
aI41
aI41
aI41
aI41
aI41
atp510
a(S'GGCCAGTAGTTGATTCTG'
(lp511
I33
aI33
aI34
aI37
aI37
aI37
aI37
aI37
aI39
aI39
aI39
aI39
aI39
aI41
aI41
aI41
aI41
aI41
aI41
aI41
aI41
aI41
aI41
aI41
aI41
atp512
a(S'AAGGGACCATACAGCCAG'
(lp513
I34
aI34
aI34
aI37
aI37
aI37
aI37
aI37
aI39
aI39
aI39
aI39
aI39
aI41
aI41
aI41
aI41
aI41
aI41
aI41
aI41
aI41
aI41
aI41
aI41
atp514
a(S'GAAGTGATTGAAGGGCGG'
(lp515
I34
aI34
aI34
aI37
aI37
aI37
aI37
aI37
aI39
aI39
aI39
aI39
aI39
aI41
aI41
aI41
aI41
aI41
aI41
aI41
aI41
aI41
aI41
aI41
aI41
atp516
a(S'CTGGTACATGAGAATATT'
(lp517
I34
aI34
aI34
aI37
aI37
aI37
aI37
aI37
aI39
aI39
aI39
aI39
aI39
aI39
aI41
aI41
aI41
aI41
aI41
aI41
aI41
aI41
aI41
aI41
aI41
atp518
a(S'GGTCTACAGGGGCTGGCT'
(lp519
I34
aI34
aI34
aI37
aI37
aI37
aI37
aI37
aI39
aI39
aI39
aI39
aI39
aI40
aI41
aI41
aI41
aI41
aI41
aI41
aI41
aI41
aI41
aI41
aI41
atp520
a(S'CCGTATCCCAGAGCATAA'
(lp521
I34
aI34
aI34
aI37
aI37
aI37
aI37
aI37
aI39
aI39
aI39
aI39
aI39
aI41
aI41
aI41
aI41
aI41
aI41
aI41
aI41
aI41
aI41
aI41
aI41
atp522
a(S'AGTCTGCTCTTGAGAACA'
(lp523
I34
aI34
aI34
aI37
aI37
aI37
aI37
aI37
aI39
aI39
aI39
aI39
aI39
aI41
aI41
aI41
aI41
aI41
aI41
aI41
aI41
aI41
aI41
aI41
aI41
atp524
a(S'GGCTTATATGGGGGCCGC'
(lp525
I34
aI34
aI34
aI37
aI37
aI37
aI37
aI37
aI39
aI39
aI39
aI39
aI39
aI41
aI41
aI41
aI41
aI41
aI41
aI41
aI41
aI41
aI41
aI41
aI41
atp526
a(S'TTGTCAGATTTGGTCTGA'
(lp527
I34
aI34
aI34
aI37
aI37
aI37
aI37
aI37
aI39
aI38
aI37
aI39
aI35
aI38
aI38
aI38
aI40
aI40
aI36
aI39
aI36
aI38
aI39
aI40
aI40
atp528
a(S'GCGAGACAGCTCCACCCA'
(lp529
I33
aI34
aI34
aI37
aI35
aI35
aI37
aI37
aI39
aI39
aI39
aI39
aI39
aI41
aI41
aI41
aI41
aI41
aI41
aI41
aI40
aI41
aI41
aI41
aI41
atp530
asg2
(g3
g4
(I2
I1
S'GGACGG'
p531
ttRp532
(lp533
(S'TCAAGTAATATCCTCTGA'
(lp534
I34
aI34
aI34
aI37
aI37
aI37
aI37
aI37
aI39
aI39
aI39
aI39
aI39
aI41
aI41
aI41
aI41
aI41
aI41
aI41
aI41
aI41
aI41
aI41
aI41
atp535
a(S'ACGCTCGCGGGGAATAGC'
(lp536
I34
aI34
aI34
aI37
aI37
aI37
aI37
aI37
aI39
aI39
aI39
aI39
aI39
aI41
aI41
aI41
aI41
aI41
aI41
aI41
aI40
aI41
aI41
aI41
aI40
atp537
a(S'TGTTCCGACTAGGTGCGG'
(lp538
I34
aI34
aI34
aI37
aI37
aI37
aI37
aI37
aI39
aI39
aI39
aI39
aI39
aI41
aI41
aI41
aI41
aI41
aI41
aI41
aI41
aI41
aI41
aI41
aI41
atp539
a(S'CCACACCAGCCACGGACC'
(lp540
I34
aI34
aI34
aI37
aI37
aI37
aI37
aI37
aI39
aI39
aI39
aI39
aI39
aI38
aI39
aI38
aI39
aI40
aI39
aI41
aI41
aI41
aI41
aI41
aI41
atp541
a(S'CCTCCGAAAATCTCGCGC'
(lp542
I34
aI34
aI34
aI37
aI37
aI37
aI37
aI37
aI39
aI39
aI39
aI39
aI39
aI41
aI41
aI41
aI41
aI41
aI41
aI41
aI41
aI41
aI41
aI41
aI41
atp543
a(S'TACAGCACCTTTCTCTTT'
(lp544
I34
aI34
aI34
aI37
aI37
aI37
aI37
aI37
aI39
aI39
aI39
aI37
aI39
aI41
aI41
aI41
aI40
aI41
aI41
aI41
aI41
aI41
aI41
aI41
aI40
atp545
a(S'TCTCTGATTGATGTAGAN'
(lp546
I2
aI16
aI28
aI35
aI37
aI37
aI37
aI37
aI39
aI39
aI39
aI39
aI39
aI41
aI41
aI41
aI41
aI41
aI41
aI41
aI41
aI41
aI41
aI41
aI41
atp547
a(S'GCTTAGAAGTTCATACCC'
(lp548
I33
aI34
aI34
aI35
aI35
aI37
aI37
aI37
aI39
aI39
aI39
aI39
aI39
aI41
aI41
aI41
aI41
aI41
aI41
aI41
aI41
aI41
aI41
aI41
aI40
atp549
a(S'CTCCCAGGCTGACCCTTA'
(lp550
I33
aI31
aI33
aI37
aI37
aI37
aI35
aI36
aI39
aI39
aI39
aI39
aI39
aI41
aI41
aI41
aI41
aI41
aI41
aI40
aI41
aI41
aI41
aI41
aI41
atp551
a(S'ACATTCAGTACAACTTAN'
(lp552
I2
aI19
aI28
aI35
aI37
aI37
aI37
aI37
aI39
aI39
aI39
aI39
aI39
aI41
aI41
aI41
aI41
aI40
aI41
aI41
aI41
aI41
aI41
aI41
aI41
atp553
a(S'CGGATTAGTCTCAGCTCC'
(lp554
I34
aI34
aI34
aI37
aI37
aI37
aI37
aI37
aI39
aI39
aI39
aI39
aI39
aI41
aI41
aI41
aI41
aI41
aI41
aI41
aI41
aI41
aI41
aI41
aI41
atp555
a(S'CACAATCCGACCCTTGGC'
(lp556
I34
aI34
aI34
aI37
aI37
aI37
aI37
aI37
aI39
aI39
aI39
aI39
aI39
aI41
aI41
aI41
aI40
aI41
aI41
aI41
aI41
aI41
aI41
aI41
aI41
atp557
a(S'ACAATATACAGGTATCTN'
(lp558
I2
aI16
aI28
aI35
aI37
aI37
aI37
aI37
aI39
aI39
aI39
aI39
aI39
aI41
aI41
aI41
aI41
aI38
aI41
aI41
aI41
aI41
aI41
aI41
aI41
atp559
a(S'TCCTTCGGGGTAAAAACA'
(lp560
I31
aI34
aI31
aI37
aI37
aI37
aI37
aI37
aI39
aI39
aI39
aI38
aI39
aI41
aI40
aI38
aI40
aI40
aI40
aI41
aI41
aI41
aI40
aI41
aI40
atp561
a(S'GCCGTGTGACGTCAGCAA'
(lp562
I34
aI34
aI34
aI37
aI37
aI37
aI37
aI37
aI39
aI39
aI39
aI39
aI39
aI41
aI41
aI41
aI41
aI41
aI41
aI41
aI41
aI41
aI41
aI41
aI41
atp563
a(S'ATTAAGTCACTAAAGGCN'
(lp564
I2
aI19
aI33
aI35
aI37
aI37
aI37
aI37
aI39
aI39
aI39
aI39
aI39
aI41
aI41
aI41
aI41
aI41
aI41
aI41
aI41
aI41
aI41
aI41
aI41
atp565
a(S'TGTCGACATGGCGGCGGG'
(lp566
I34
aI34
aI34
aI37
aI37
aI37
aI37
aI37
aI39
aI39
aI39
aI39
aI39
aI41
aI41
aI41
aI41
aI41
aI41
aI41
aI41
aI41
aI41
aI41
aI41
atp567
a(S'CTAGCTTAGGCGTATTAT'
(lp568
I34
aI34
aI34
aI37
aI37
aI37
aI37
aI37
aI39
aI39
aI39
aI39
aI39
aI41
aI41
aI41
aI41
aI41
aI41
aI41
aI41
aI41
aI41
aI41
aI41
atp569
a(S'AGATAGTATTTCGGCTGT'
(lp570
I34
aI34
aI34
aI37
aI37
aI37
aI37
aI37
aI39
aI39
aI39
aI39
aI39
aI41
aI41
aI41
aI41
aI41
aI41
aI41
aI41
aI41
aI41
aI41
aI41
atp571
a(S'GGCTACGCCATTCAAACA'
(lp572
I33
aI33
aI33
aI37
aI37
aI37
aI37
aI37
aI39
aI39
aI39
aI39
aI39
aI41
aI41
aI41
aI41
aI41
aI41
aI41
aI41
aI41
aI41
aI41
aI41
atp573
a(S'ACGCAACACCCTCAAGAC'
(lp574
I34
aI33
aI34
aI37
aI37
aI37
aI37
aI37
aI39
aI39
aI35
aI37
aI39
aI40
aI41
aI41
aI41
aI39
aI41
aI41
aI41
aI41
aI41
aI41
aI41
atp575
a(S'TCATGATGCGCGTGGCCC'
(lp576
I34
aI34
aI34
aI37
aI37
aI37
aI37
aI37
aI39
aI39
aI39
aI39
aI39
aI41
aI41
aI41
aI41
aI41
aI41
aI41
aI41
aI41
aI41
aI41
aI41
atp577
a(S'CCTTCCTATGGGAGCCTA'
(lp578
I34
aI34
aI34
aI37
aI37
aI37
aI37
aI37
aI39
aI39
aI39
aI39
aI39
aI41
aI41
aI41
aI41
aI41
aI40
aI40
aI41
aI41
aI41
aI41
aI41
atp579
a(S'CCGGGCAGGGCCCTACTC'
(lp580
I33
aI34
aI34
aI37
aI37
aI37
aI37
aI37
aI39
aI39
aI39
aI39
aI39
aI41
aI41
aI41
aI41
aI41
aI39
aI40
aI40
aI41
aI41
aI41
aI41
atp581
a(S'TCTACCGAAATTCGAATT'
(lp582
I34
aI34
aI34
aI37
aI37
aI37
aI37
aI37
aI39
aI39
aI39
aI39
aI39
aI41
aI40
aI39
aI40
aI41
aI41
aI41
aI40
aI41
aI41
aI41
aI40
atp583
a(S'GTGCTGGGCGCACTAACT'
(lp584
I34
aI34
aI34
aI37
aI37
aI37
aI37
aI37
aI39
aI39
aI39
aI39
aI39
aI41
aI41
aI41
aI41
aI41
aI41
aI41
aI41
aI41
aI41
aI41
aI41
atp585
a(S'ACTAGCTCTTTAAGCGAA'
(lp586
I34
aI34
aI34
aI37
aI37
aI37
aI37
aI37
aI39
aI39
aI39
aI39
aI39
aI41
aI41
aI41
aI41
aI40
aI41
aI41
aI40
aI41
aI41
aI41
aI41
atp587
a(S'AAGGACGCACGGGAGGTT'
(lp588
I34
aI34
aI34
aI37
aI37
aI37
aI37
aI37
aI39
aI39
aI39
aI39
aI39
aI40
aI41
aI41
aI41
aI41
aI41
aI41
aI41
aI41
aI41
aI41
aI40
atp589
a(S'CACGCTTTGAATGATCAG'
(lp590
I34
aI34
aI31
aI35
aI37
aI37
aI37
aI37
aI39
aI39
aI39
aI39
aI39
aI41
aI41
aI41
aI39
aI39
aI41
aI41
aI41
aI41
aI41
aI41
aI40
atp591
a(S'CACGCTTTGAATGATTAG'
(lp592
I34
aI34
aI34
aI37
aI37
aI37
aI37
aI37
aI39
aI39
aI39
aI39
aI39
aI41
aI41
aI41
aI39
aI40
aI40
aI40
aI41
aI41
aI41
aI41
aI41
atp593
a(S'CGTCTGTGTCAGCGATGC'
(lp594
I34
aI34
aI34
aI37
aI37
aI37
aI37
aI37
aI39
aI39
aI39
aI39
aI39
aI41
aI41
aI41
aI41
aI41
aI41
aI41
aI41
aI41
aI41
aI41
aI40
atp595
a(S'AGGGCGTACTTTTTATTC'
(lp596
I34
aI34
aI34
aI37
aI37
aI37
aI37
aI37
aI39
aI39
aI39
aI39
aI39
aI41
aI41
aI41
aI41
aI41
aI41
aI41
aI41
aI41
aI41
aI41
aI41
atp597
a(S'ATTGGCTCAACGCGAAAC'
(lp598
I34
aI31
aI34
aI37
aI37
aI37
aI37
aI37
aI37
aI35
aI39
aI38
aI39
aI39
aI40
aI40
aI40
aI40
aI41
aI41
aI40
aI38
aI39
aI38
aI41
atp599
a(S'GCTTTCTGGCACTATTAC'
(lp600
I34
aI33
aI34
aI37
aI37
aI37
aI37
aI35
aI39
aI39
aI39
aI39
aI39
aI41
aI41
aI41
aI41
aI41
aI41
aI41
aI41
aI41
aI41
aI41
aI40
atp601
a(S'GTAGAAGGCCGGTCCCCG'
(lp602
I34
aI34
aI34
aI37
aI37
aI37
aI37
aI37
aI39
aI39
aI39
aI39
aI39
aI41
aI41
aI41
aI41
aI41
aI41
aI41
aI41
aI41
aI41
aI41
aI41
atp603
a(S'CAACGTGCACAATACACT'
(lp604
I33
aI33
aI33
aI37
aI35
aI37
aI37
aI37
aI39
aI39
aI39
aI39
aI39
aI41
aI41
aI40
aI41
aI41
aI41
aI41
aI41
aI41
aI41
aI41
aI41
atp605
a(S'TCCTTCACCAATCCACGG'
(lp606
I31
aI33
aI34
aI37
aI37
aI37
aI35
aI37
aI39
aI39
aI39
aI39
aI39
aI41
aI41
aI41
aI41
aI41
aI41
aI41
aI41
aI41
aI41
aI41
aI41
atp607
a(S'ATACCTCTGTAACGTTGT'
(lp608
I34
aI34
aI34
aI37
aI37
aI37
aI37
aI37
aI39
aI39
aI39
aI39
aI39
aI41
aI41
aI34
aI39
aI40
aI41
aI41
aI41
aI41
aI41
aI41
aI41
atp609
a(S'ACCGATCTACGGGGTGAT'
(lp610
I34
aI34
aI34
aI37
aI37
aI37
aI37
aI37
aI39
aI39
aI39
aI39
aI39
aI41
aI41
aI41
aI41
aI39
aI41
aI41
aI41
aI41
aI41
aI41
aI41
atp611
a(S'TGATGTCCGAAGGGCCAC'
(lp612
I34
aI34
aI34
aI37
aI37
aI37
aI37
aI37
aI39
aI39
aI39
aI39
aI39
aI41
aI41
aI41
aI41
aI41
aI41
aI41
aI41
aI41
aI41
aI41
aI41
atp613
a(S'GTAAGCGCATTAGAGTCG'
(lp614
I34
aI34
aI34
aI37
aI37
aI37
aI37
aI37
aI39
aI39
aI39
aI39
aI39
aI41
aI41
aI41
aI41
aI41
aI41
aI41
aI41
aI41
aI41
aI41
aI41
atp615
a(S'TTAATCATGCGTTCCATT'
(lp616
I34
aI34
aI34
aI37
aI37
aI37
aI37
aI37
aI39
aI39
aI39
aI39
aI39
aI41
aI41
aI41
aI41
aI41
aI41
aI41
aI41
aI41
aI41
aI41
aI41
atp617
a(S'GCACAATAAGAATATAGT'
(lp618
I34
aI34
aI34
aI37
aI37
aI37
aI37
aI37
aI39
aI39
aI39
aI39
aI39
aI41
aI41
aI39
aI40
aI41
aI41
aI41
aI41
aI41
aI41
aI41
aI41
atp619
a(S'AACAGGTATCCCTTACAA'
(lp620
I34
aI34
aI34
aI37
aI37
aI37
aI37
aI37
aI39
aI39
aI39
aI39
aI39
aI41
aI41
aI41
aI41
aI41
aI41
aI41
aI41
aI41
aI41
aI41
aI41
atp621
a(S'GACCACTTCGTATCTGAT'
(lp622
I34
aI34
aI34
aI37
aI37
aI37
aI37
aI37
aI39
aI39
aI39
aI39
aI39
aI39
aI39
aI41
aI39
aI40
aI41
aI40
aI41
aI41
aI41
aI41
aI40
atp623
a(S'AGGGTACTGTACCATGGC'
(lp624
I34
aI34
aI34
aI37
aI37
aI37
aI37
aI35
aI39
aI39
aI39
aI39
aI39
aI40
aI41
aI41
aI41
aI41
aI41
aI41
aI41
aI41
aI41
aI41
aI40
atp625
a(S'TTGTCCTCCCACTAGAAG'
(lp626
I34
aI34
aI34
aI37
aI37
aI37
aI37
aI35
aI39
aI39
aI39
aI39
aI39
aI41
aI41
aI41
aI41
aI41
aI41
aI41
aI41
aI41
aI40
aI41
aI41
atp627
a(S'GGCATAGGGTGTTAGTAG'
(lp628
I34
aI34
aI34
aI37
aI37
aI37
aI37
aI37
aI39
aI39
aI39
aI39
aI39
aI41
aI41
aI41
aI41
aI41
aI41
aI41
aI41
aI41
aI41
aI41
aI41
atp629
a(S'TAAGCATTCTCGATTCTA'
(lp630
I34
aI34
aI34
aI37
aI37
aI37
aI37
aI37
aI39
aI39
aI39
aI39
aI39
aI41
aI41
aI41
aI41
aI41
aI41
aI41
aI41
aI41
aI41
aI41
aI41
atp631
a(S'ATCCATGCATGAGAACGG'
(lp632
I34
aI34
aI34
aI37
aI37
aI37
aI37
aI37
aI39
aI39
aI39
aI39
aI39
aI41
aI41
aI41
aI40
aI41
aI41
aI41
aI41
aI41
aI41
aI41
aI41
atp633
a(S'ACCAATGTTAAGCGTGAA'
(lp634
I34
aI34
aI34
aI37
aI37
aI37
aI37
aI37
aI39
aI39
aI39
aI39
aI39
aI41
aI41
aI41
aI41
aI38
aI39
aI40
aI41
aI41
aI41
aI41
aI41
atp635
a(S'AGGAACCACTAACGCGAT'
(lp636
I33
aI31
aI31
aI37
aI35
aI37
aI35
aI35
aI39
aI39
aI37
aI39
aI39
aI41
aI40
aI40
aI41
aI40
aI40
aI41
aI41
aI41
aI41
aI41
aI41
atp637
a(S'GATTGTGTGGATGTCCGC'
(lp638
I34
aI34
aI34
aI37
aI37
aI37
aI37
aI37
aI39
aI39
aI39
aI39
aI39
aI41
aI41
aI41
aI41
aI41
aI41
aI41
aI41
aI41
aI41
aI41
aI41
atp639
a(S'CTCCACAAGATAACTATA'
(lp640
I34
aI34
aI34
aI37
aI37
aI37
aI37
aI37
aI39
aI39
aI39
aI39
aI39
aI41
aI41
aI41
aI41
aI41
aI41
aI41
aI41
aI41
aI41
aI41
aI41
atp641
a(S'GTTTCGGCGTTGTTCTCG'
(lp642
I30
aI30
aI31
aI35
aI35
aI32
aI35
aI32
aI35
aI37
aI39
aI38
aI38
aI41
aI40
aI41
aI41
aI41
aI39
aI40
aI32
aI39
aI39
aI38
aI38
atp643
a(S'TATAGCACTAGTTTTGAT'
(lp644
I34
aI34
aI34
aI37
aI37
aI37
aI37
aI37
aI39
aI39
aI39
aI39
aI39
aI41
aI41
aI41
aI41
aI41
aI41
aI41
aI41
aI41
aI41
aI41
aI41
atp645
a(S'CGAGGGGGTCGAGGGTTC'
(lp646
I34
aI34
aI34
aI37
aI37
aI37
aI37
aI37
aI39
aI39
aI39
aI39
aI39
aI41
aI41
aI41
aI41
aI41
aI41
aI41
aI41
aI41
aI41
aI41
aI41
atp647
a(S'GTAGGCACGGTCTAATGC'
(lp648
I31
aI34
aI34
aI37
aI37
aI37
aI35
aI37
aI37
aI39
aI35
aI39
aI39
aI41
aI41
aI41
aI41
aI41
aI41
aI41
aI41
aI40
aI41
aI41
aI40
atp649
a(S'CTCCTATACCTGCCTAGT'
(lp650
I34
aI34
aI34
aI37
aI37
aI37
aI37
aI37
aI39
aI39
aI37
aI39
aI39
aI41
aI41
aI41
aI41
aI41
aI41
aI41
aI41
aI41
aI41
aI41
aI41
atp651
a(S'CGATGTTGTTTCCAACCC'
(lp652
I31
aI34
aI34
aI35
aI35
aI37
aI37
aI37
aI39
aI39
aI39
aI39
aI39
aI41
aI41
aI41
aI41
aI41
aI40
aI41
aI41
aI41
aI41
aI41
aI41
atp653
a(S'GGACCGCGTCCTCGTGCG'
(lp654
I34
aI34
aI34
aI37
aI37
aI37
aI37
aI37
aI39
aI39
aI39
aI39
aI39
aI41
aI41
aI41
aI41
aI41
aI41
aI41
aI41
aI41
aI41
aI41
aI41
atp655
a(S'ATCAGAATGCCCTAGTCG'
(lp656
I34
aI34
aI34
aI37
aI37
aI37
aI37
aI37
aI38
aI39
aI39
aI39
aI39
aI41
aI41
aI41
aI40
aI41
aI41
aI41
aI41
aI41
aI41
aI41
aI41
atp657
a(S'TACAACAATTGAAACTTA'
(lp658
I33
aI34
aI34
aI37
aI35
aI36
aI37
aI37
aI39
aI39
aI39
aI39
aI39
aI40
aI40
aI41
aI40
aI41
aI41
aI41
aI41
aI41
aI40
aI41
aI41
atp659
a(S'CTTAATATCACACGCACA'
(lp660
I34
aI34
aI33
aI37
aI37
aI37
aI37
aI37
aI39
aI39
aI39
aI39
aI39
aI41
aI41
aI41
aI41
aI41
aI41
aI41
aI41
aI41
aI41
aI41
aI40
atp661
a(S'CGCGCCTTCATGTTCTCT'
(lp662
I34
aI34
aI34
aI37
aI37
aI37
aI37
aI37
aI39
aI39
aI39
aI39
aI39
aI41
aI41
aI41
aI41
aI41
aI41
aI41
aI41
aI41
aI41
aI41
aI41
atp663
a(S'AACTAGGTAGACAATGAA'
(lp664
I34
aI34
aI34
aI37
aI37
aI37
aI37
aI37
aI39
aI39
aI39
aI39
aI39
aI41
aI41
aI41
aI41
aI41
aI41
aI41
aI41
aI41
aI41
aI41
aI41
atp665
a(S'GTCGTGCGATGGCAAAAG'
(lp666
I34
aI34
aI34
aI37
aI37
aI37
aI37
aI37
aI39
aI39
aI39
aI39
aI39
aI41
aI41
aI41
aI41
aI41
aI41
aI41
aI41
aI41
aI41
aI41
aI41
atp667
a(S'TGACCCACGGATGGGCAC'
(lp668
I31
aI31
aI33
aI37
aI37
aI37
aI37
aI36
aI37
aI39
aI39
aI39
aI39
aI41
aI41
aI41
aI41
aI41
aI41
aI41
aI41
aI41
aI41
aI41
aI41
atp669
a(S'TAGTGGCGCCATATTAAT'
(lp670
I34
aI34
aI34
aI37
aI37
aI37
aI37
aI37
aI39
aI39
aI39
aI39
aI39
aI41
aI41
aI41
aI41
aI41
aI41
aI41
aI41
aI41
aI41
aI41
aI41
atp671
a(S'ACAGGGGAGAAACATTCT'
(lp672
I34
aI34
aI34
aI37
aI37
aI37
aI35
aI35
aI39
aI39
aI38
aI39
aI39
aI41
aI41
aI41
aI41
aI41
aI41
aI41
aI41
aI40
aI41
aI41
aI41
atp673
a(S'TAAAGAAGCCGACAGACG'
(lp674
I34
aI34
aI34
aI37
aI37
aI37
aI37
aI37
aI39
aI39
aI39
aI39
aI39
aI41
aI41
aI41
aI41
aI41
aI41
aI41
aI41
aI41
aI41
aI41
aI41
atp675
a(S'CGGGTCTCGTGTAACATG'
(lp676
I34
aI34
aI34
aI37
aI37
aI37
aI37
aI37
aI39
aI39
aI39
aI39
aI39
aI41
aI41
aI41
aI41
aI41
aI41
aI41
aI41
aI41
aI41
aI41
aI41
atp677
a(S'CTGATCGTCCACGGGCAG'
(lp678
I34
aI34
aI34
aI37
aI37
aI37
aI37
aI35
aI39
aI39
aI39
aI39
aI39
aI41
aI41
aI41
aI41
aI41
aI41
aI41
aI41
aI41
aI41
aI41
aI41
atp679
a(S'AGCTGAACGCTTTAAGTG'
(lp680
I34
aI34
aI34
aI37
aI37
aI37
aI37
aI37
aI38
aI39
aI39
aI37
aI39
aI41
aI41
aI41
aI41
aI41
aI41
aI41
aI41
aI35
aI39
aI38
aI40
atp681
a(S'GGCGCCGGCACGGCCGGA'
(lp682
I34
aI34
aI34
aI37
aI37
aI37
aI37
aI37
aI39
aI39
aI39
aI39
aI39
aI41
aI41
aI41
aI41
aI41
aI41
aI41
aI41
aI41
aI41
aI41
aI41
atp683
a(S'CGGATAGGGATTACTGAC'
(lp684
I33
aI34
aI34
aI37
aI37
aI35
aI37
aI37
aI39
aI39
aI39
aI39
aI39
aI41
aI41
aI41
aI41
aI41
aI41
aI41
aI41
aI41
aI41
aI41
aI41
atp685
asg2
(g3
g4
(I1
I1
S'TTGACT'
p686
ttRp687
(lp688
(S'CGGCACACCAAGGAAAGA'
(lp689
I34
aI34
aI34
aI37
aI37
aI37
aI37
aI37
aI39
aI39
aI39
aI39
aI39
aI40
aI40
aI41
aI41
aI41
aI41
aI41
aI41
aI41
aI41
aI41
aI41
atp690
a(S'AGCTCAGGGCAGTCCCCT'
(lp691
I34
aI34
aI34
aI37
aI37
aI37
aI37
aI37
aI39
aI39
aI39
aI39
aI39
aI41
aI41
aI41
aI41
aI41
aI41
aI41
aI41
aI41
aI41
aI41
aI41
atp692
a(S'AATGAAACCAATAATCTN'
(lp693
I2
aI16
aI33
aI35
aI37
aI37
aI37
aI37
aI39
aI39
aI39
aI39
aI39
aI41
aI41
aI41
aI41
aI41
aI41
aI41
aI41
aI41
aI41
aI41
aI41
atp694
a(S'CTTGTTATATTCCTTGGA'
(lp695
I34
aI34
aI34
aI37
aI37
aI37
aI37
aI37
aI39
aI39
aI39
aI39
aI39
aI41
aI41
aI41
aI41
aI41
aI41
aI41
aI41
aI41
aI41
aI41
aI41
atp696
a(S'TAACCCATCTCCTCTCAC'
(lp697
I33
aI33
aI33
aI37
aI37
aI37
aI37
aI37
aI39
aI39
aI39
aI39
aI39
aI41
aI41
aI38
aI39
aI40
aI41
aI41
aI41
aI41
aI41
aI41
aI41
atp698
a(S'AGGGTCGGGGATGTATGA'
(lp699
I34
aI34
aI34
aI37
aI37
aI37
aI37
aI37
aI39
aI39
aI39
aI39
aI39
aI41
aI41
aI41
aI41
aI41
aI41
aI41
aI41
aI41
aI41
aI41
aI41
atp700
a(S'GGGGACACCTGCCTGAGA'
(lp701
I34
aI34
aI34
aI37
aI37
aI37
aI37
aI37
aI39
aI39
aI39
aI39
aI39
aI40
aI41
aI41
aI41
aI41
aI41
aI41
aI41
aI41
aI41
aI41
aI41
atp702
a(S'GTGGCATATTCCGAGAGC'
(lp703
I34
aI34
aI34
aI37
aI37
aI37
aI37
aI37
aI39
aI39
aI39
aI39
aI39
aI41
aI41
aI41
aI41
aI41
aI41
aI41
aI41
aI41
aI41
aI37
aI41
atp704
a(S'TGAAGTGTTACGACATCG'
(lp705
I34
aI34
aI34
aI37
aI37
aI37
aI37
aI37
aI39
aI39
aI39
aI39
aI39
aI41
aI41
aI41
aI41
aI41
aI41
aI41
aI41
aI41
aI41
aI41
aI41
atp706
a(S'AACCGAAACAGCCGGTGT'
(lp707
I34
aI34
aI34
aI37
aI37
aI37
aI37
aI37
aI39
aI39
aI39
aI39
aI39
aI41
aI41
aI41
aI38
aI40
aI41
aI41
aI41
aI41
aI41
aI41
aI41
atp708
a(S'CCCTGGACGCCATTATAT'
(lp709
I34
aI34
aI34
aI37
aI37
aI37
aI37
aI37
aI39
aI39
aI39
aI39
aI39
aI41
aI41
aI41
aI41
aI41
aI41
aI41
aI41
aI41
aI41
aI41
aI41
atp710
a(S'CATGACGGCGCAGGGAAG'
(lp711
I34
aI34
aI34
aI37
aI37
aI37
aI37
aI37
aI39
aI39
aI39
aI39
aI39
aI40
aI41
aI41
aI41
aI41
aI41
aI41
aI41
aI41
aI41
aI41
aI41
atp712
a(S'ATGCGTAGCTGCGTAGGG'
(lp713
I34
aI34
aI34
aI37
aI37
aI37
aI37
aI37
aI39
aI39
aI39
aI39
aI39
aI41
aI41
aI41
aI41
aI41
aI41
aI41
aI41
aI41
aI41
aI41
aI41
atp714
a(S'GGATGGTCGTGTTTATCT'
(lp715
I34
aI34
aI34
aI37
aI37
aI37
aI37
aI37
aI39
aI39
aI39
aI39
aI39
aI41
aI41
aI41
aI41
aI41
aI41
aI41
aI41
aI41
aI41
aI41
aI41
atp716
a(S'GGCTGATTGTTGACATTA'
(lp717
I34
aI34
aI34
aI37
aI37
aI37
aI37
aI37
aI39
aI39
aI39
aI39
aI39
aI41
aI41
aI41
aI41
aI41
aI41
aI41
aI41
aI41
aI41
aI41
aI41
atp718
a(S'TGAGAAGATGCTCGTCTN'
(lp719
I2
aI16
aI28
aI35
aI37
aI37
aI37
aI37
aI39
aI39
aI39
aI39
aI39
aI41
aI41
aI41
aI41
aI41
aI41
aI41
aI41
aI41
aI41
aI41
aI41
atp720
a(S'GTCCCCCACACACTACAC'
(lp721
I33
aI33
aI33
aI35
aI37
aI37
aI37
aI37
aI39
aI39
aI39
aI39
aI39
aI41
aI41
aI41
aI41
aI41
aI41
aI41
aI41
aI41
aI41
aI41
aI41
atp722
a(S'AGAGAGCGGCTGCTCGTC'
(lp723
I34
aI34
aI34
aI37
aI37
aI37
aI37
aI37
aI39
aI39
aI39
aI39
aI39
aI41
aI41
aI41
aI41
aI41
aI41
aI41
aI41
aI41
aI41
aI41
aI41
atp724
a(S'ATAACTGGCACGCCCAAC'
(lp725
I31
aI31
aI31
aI37
aI37
aI37
aI37
aI37
aI37
aI32
aI35
aI37
aI39
aI40
aI40
aI40
aI40
aI40
aI40
aI40
aI40
aI27
aI39
aI36
aI39
atp726
a(S'TAATAGCATACCACTCGA'
(lp727
I34
aI34
aI34
aI37
aI37
aI35
aI35
aI37
aI39
aI39
aI39
aI39
aI39
aI41
aI41
aI41
aI41
aI41
aI41
aI41
aI41
aI41
aI41
aI41
aI41
atp728
a(S'TTCCCCGCATTGCTTTTG'
(lp729
I34
aI34
aI34
aI37
aI37
aI37
aI37
aI37
aI39
aI39
aI39
aI39
aI39
aI41
aI41
aI41
aI41
aI41
aI41
aI41
aI41
aI41
aI41
aI41
aI41
atp730
a(S'CGCGCATTTGCTTGAATA'
(lp731
I34
aI34
aI34
aI37
aI37
aI37
aI37
aI37
aI39
aI39
aI39
aI39
aI39
aI41
aI41
aI41
aI41
aI41
aI41
aI41
aI41
aI41
aI41
aI41
aI41
atp732
a(S'GCTCGGGAGAAGGTGGGG'
(lp733
I34
aI34
aI34
aI37
aI37
aI37
aI37
aI37
aI39
aI39
aI39
aI39
aI39
aI41
aI41
aI41
aI41
aI41
aI41
aI41
aI41
aI41
aI41
aI41
aI41
atp734
a(S'GTAGTTCAATGGTAGGCG'
(lp735
I34
aI34
aI34
aI37
aI37
aI37
aI37
aI37
aI39
aI39
aI39
aI39
aI39
aI41
aI41
aI41
aI41
aI41
aI41
aI41
aI41
aI41
aI41
aI41
aI41
atp736
a(S'CCCCAATCTACGACACCC'
(lp737
I33
aI34
aI34
aI35
aI35
aI35
aI37
aI37
aI39
aI39
aI39
aI39
aI39
aI41
aI41
aI41
aI41
aI41
aI40
aI41
aI41
aI41
aI41
aI41
aI41
atp738
a(S'CTCCTTGCCTGATAACAA'
(lp739
I34
aI34
aI34
aI37
aI37
aI37
aI37
aI37
aI39
aI39
aI39
aI39
aI39
aI41
aI41
aI41
aI41
aI41
aI41
aI41
aI41
aI40
aI41
aI40
aI40
atp740
a(S'TTTACACCTCGCTTGACC'
(lp741
I34
aI34
aI31
aI37
aI37
aI37
aI37
aI37
aI39
aI39
aI39
aI39
aI37
aI39
aI39
aI40
aI41
aI41
aI41
aI41
aI41
aI41
aI41
aI41
aI41
atp742
a(S'GTGTTTGCCGTCCAATGC'
(lp743
I34
aI34
aI34
aI37
aI37
aI37
aI37
aI37
aI39
aI37
aI38
aI39
aI39
aI41
aI41
aI41
aI41
aI41
aI41
aI41
aI40
aI41
aI41
aI41
aI41
atp744
a(S'CTAGCCGGGGCTGCTTCT'
(lp745
I34
aI34
aI34
aI37
aI37
aI37
aI37
aI37
aI39
aI39
aI39
aI39
aI39
aI41
aI41
aI41
aI41
aI41
aI41
aI41
aI41
aI41
aI41
aI41
aI41
atp746
a(S'GCATAACTGTAAGATATA'
(lp747
I34
aI34
aI34
aI37
aI37
aI37
aI37
aI37
aI39
aI39
aI39
aI39
aI39
aI41
aI41
aI41
aI41
aI41
aI41
aI41
aI41
aI41
aI41
aI41
aI41
atp748
a(S'CGAGCGATATGAAGGGCG'
(lp749
I34
aI34
aI34
aI37
aI37
aI37
aI37
aI37
aI39
aI39
aI39
aI39
aI39
aI41
aI41
aI41
aI41
aI41
aI41
aI41
aI41
aI41
aI41
aI41
aI41
atp750
a(S'AAGCCTAACGCGGATGCG'
(lp751
I34
aI33
aI34
aI37
aI37
aI37
aI37
aI37
aI39
aI39
aI39
aI39
aI39
aI41
aI41
aI41
aI41
aI41
aI41
aI41
aI41
aI41
aI41
aI41
aI41
atp752
a(S'TGTCCGAAACACTTTCTC'
(lp753
I34
aI34
aI34
aI37
aI37
aI37
aI37
aI35
aI39
aI39
aI39
aI39
aI39
aI41
aI41
aI41
aI41
aI41
aI41
aI41
aI41
aI41
aI41
aI41
aI41
atp754
a(S'ACTAGGACCTAACATTTG'
(lp755
I34
aI34
aI34
aI37
aI37
aI37
aI35
aI35
aI39
aI35
aI37
aI37
aI39
aI41
aI41
aI40
aI41
aI40
aI41
aI41
aI41
aI41
aI41
aI41
aI40
atp756
a(S'TGCAACGACGGGTGACCT'
(lp757
I34
aI34
aI34
aI37
aI37
aI37
aI37
aI37
aI39
aI39
aI39
aI39
aI39
aI41
aI41
aI41
aI41
aI41
aI41
aI41
aI41
aI41
aI41
aI41
aI41
atp758
a(S'CCCCGGCGGGACTCAGTG'
(lp759
I34
aI34
aI34
aI37
aI37
aI37
aI37
aI36
aI39
aI39
aI39
aI39
aI39
aI41
aI40
aI40
aI40
aI41
aI38
aI40
aI41
aI41
aI41
aI41
aI40
atp760
a(S'AAGAGTAGGGCCTACCTA'
(lp761
I33
aI34
aI34
aI37
aI35
aI37
aI37
aI37
aI39
aI39
aI39
aI39
aI39
aI41
aI41
aI41
aI41
aI41
aI41
aI41
aI41
aI41
aI41
aI41
aI40
atp762
a(S'TTTCCTACTGAACTAGTG'
(lp763
I34
aI34
aI34
aI37
aI37
aI37
aI37
aI37
aI39
aI39
aI39
aI39
aI39
aI41
aI41
aI41
aI41
aI41
aI41
aI41
aI41
aI41
aI41
aI41
aI41
atp764
a(S'TGGCCTGGCGGAGATGTG'
(lp765
I34
aI34
aI34
aI37
aI37
aI37
aI37
aI37
aI39
aI39
aI39
aI39
aI39
aI41
aI41
aI41
aI41
aI41
aI41
aI41
aI41
aI41
aI41
aI41
aI41
atp766
a(S'TAGTAGCGGTTAACTCTC'
(lp767
I34
aI34
aI34
aI37
aI37
aI37
aI37
aI37
aI39
aI39
aI39
aI39
aI39
aI41
aI41
aI41
aI41
aI41
aI41
aI40
aI41
aI41
aI41
aI41
aI41
atp768
a(S'GCAGACCACAGATAAGAA'
(lp769
I34
aI34
aI34
aI37
aI37
aI37
aI37
aI37
aI39
aI39
aI39
aI39
aI39
aI40
aI41
aI41
aI41
aI41
aI41
aI41
aI41
aI41
aI41
aI41
aI41
atp770
a(S'TCGACCCGAGACGCCAAA'
(lp771
I34
aI34
aI34
aI37
aI37
aI37
aI37
aI37
aI39
aI39
aI39
aI39
aI39
aI41
aI39
aI41
aI41
aI41
aI41
aI41
aI41
aI41
aI41
aI41
aI41
atp772
a(S'GCGCTCCGTTAATTGATG'
(lp773
I34
aI34
aI34
aI37
aI37
aI37
aI37
aI37
aI39
aI39
aI39
aI39
aI39
aI41
aI41
aI41
aI41
aI41
aI41
aI41
aI41
aI41
aI41
aI41
aI41
atp774
a(S'TGTCCTAGATGCTCATAG'
(lp775
I34
aI34
aI34
aI37
aI37
aI37
aI37
aI37
aI39
aI39
aI39
aI39
aI39
aI41
aI41
aI41
aI41
aI41
aI41
aI41
aI41
aI41
aI41
aI41
aI41
atp776
a(S'CGTGTGAGTTGAGCGGAA'
(lp777
I34
aI34
aI34
aI37
aI37
aI37
aI37
aI37
aI39
aI39
aI39
aI39
aI39
aI41
aI41
aI41
aI41
aI41
aI41
aI41
aI41
aI41
aI41
aI41
aI41
atp778
a(S'CCTGCGCCCGATAATAAG'
(lp779
I34
aI34
aI34
aI37
aI37
aI37
aI37
aI37
aI39
aI39
aI39
aI39
aI39
aI41
aI41
aI41
aI41
aI41
aI41
aI41
aI41
aI41
aI41
aI41
aI41
atp780
a(S'GTGCTGACGGAATAATAT'
(lp781
I34
aI34
aI34
aI37
aI37
aI37
aI37
aI37
aI39
aI39
aI39
aI39
aI39
aI41
aI41
aI41
aI41
aI41
aI41
aI41
aI41
aI41
aI41
aI41
aI41
atp782
a(S'TACAATGGGATCCATAAT'
(lp783
I34
aI34
aI34
aI37
aI37
aI37
aI37
aI37
aI39
aI39
aI39
aI39
aI39
aI41
aI41
aI41
aI40
aI40
aI41
aI41
aI41
aI41
aI41
aI41
aI41
atp784
a(S'GTGTTCTCATTAAAGTGC'
(lp785
I34
aI34
aI34
aI37
aI37
aI37
aI37
aI37
aI39
aI39
aI39
aI39
aI39
aI41
aI41
aI41
aI41
aI41
aI41
aI41
aI41
aI41
aI41
aI41
aI41
atp786
a(S'ACCTAGTGGTACGAACAA'
(lp787
I34
aI34
aI34
aI37
aI37
aI37
aI37
aI37
aI39
aI39
aI39
aI39
aI39
aI41
aI41
aI41
aI41
aI37
aI39
aI40
aI41
aI41
aI41
aI41
aI41
atp788
a(S'ATGGATCTGATTTTAAAT'
(lp789
I34
aI34
aI34
aI37
aI37
aI37
aI37
aI37
aI39
aI39
aI39
aI39
aI39
aI41
aI41
aI41
aI41
aI41
aI41
aI41
aI41
aI41
aI41
aI41
aI41
atp790
as.