(dp1
ccopy_reg
_reconstructor
p2
(c__main__
Timepoint
p3
c__builtin__
tuple
p4
(I1
I2
S'GGAACT'
p5
ttRp6
(lp7
(S'AGAAGACTGCACACCCCA'
(lp8
I34
aI34
aI34
aI37
aI37
aI35
aI35
aI35
aI39
aI39
aI39
aI39
aI39
aI41
aI41
aI41
aI41
aI41
aI41
aI41
aI41
aI41
aI41
aI41
aI41
atp9
a(S'TTCCGACACAGATGCCGT'
(lp10
I34
aI34
aI34
aI37
aI37
aI37
aI37
aI37
aI39
aI39
aI39
aI39
aI39
aI41
aI41
aI41
aI41
aI41
aI41
aI41
aI41
aI41
aI41
aI41
aI41
atp11
a(S'CCAAATGTTCAATTTATT'
(lp12
I34
aI34
aI34
aI37
aI37
aI37
aI37
aI37
aI39
aI39
aI39
aI39
aI39
aI41
aI41
aI41
aI41
aI41
aI41
aI41
aI41
aI41
aI41
aI41
aI41
atp13
a(S'CCAAATGTTCAATTTATT'
(lp14
I34
aI34
aI34
aI37
aI37
aI37
aI37
aI37
aI39
aI39
aI39
aI39
aI39
aI41
aI41
aI41
aI41
aI41
aI41
aI41
aI41
aI41
aI41
aI41
aI41
atp15
asg2
(g3
g4
(I2
I2
S'CTCTAC'
p16
ttRp17
(lp18
(S'TAAGGGTGTACGGGGGAG'
(lp19
I34
aI34
aI34
aI37
aI37
aI37
aI37
aI37
aI39
aI39
aI39
aI39
aI39
aI41
aI41
aI41
aI41
aI41
aI41
aI41
aI41
aI41
aI41
aI41
aI41
atp20
a(S'ACTAGGAAGGTATCCCAC'
(lp21
I34
aI33
aI33
aI37
aI37
aI37
aI37
aI37
aI39
aI39
aI39
aI39
aI39
aI41
aI41
aI41
aI41
aI39
aI41
aI41
aI41
aI41
aI41
aI41
aI41
atp22
a(S'CTCGCACCATTTGTCATG'
(lp23
I34
aI34
aI34
aI37
aI37
aI37
aI37
aI37
aI39
aI39
aI39
aI39
aI39
aI40
aI41
aI41
aI41
aI41
aI41
aI41
aI41
aI41
aI41
aI41
aI41
atp24
a(S'TGAGACTCAGTCGTGTCA'
(lp25
I34
aI34
aI34
aI37
aI37
aI37
aI37
aI37
aI39
aI39
aI39
aI39
aI39
aI39
aI41
aI41
aI41
aI41
aI41
aI41
aI41
aI41
aI41
aI41
aI41
atp26
asg2
(g3
g4
(I1
I3
S'TGACAT'
p27
ttRp28
(lp29
(S'GGCTTCCTTCCTACGTCT'
(lp30
I34
aI34
aI34
aI37
aI37
aI37
aI37
aI37
aI39
aI39
aI39
aI39
aI39
aI41
aI41
aI41
aI41
aI41
aI41
aI41
aI41
aI41
aI41
aI41
aI41
atp31
asg2
(g3
g4
(I2
I3
S'GCGGAC'
p32
ttRp33
(lp34
(S'CCCCAAAACTCCCCGTAG'
(lp35
I34
aI34
aI34
aI37
aI37
aI37
aI37
aI37
aI39
aI39
aI39
aI39
aI39
aI41
aI41
aI41
aI41
aI41
aI41
aI41
aI40
aI41
aI41
aI41
aI41
atp36
a(S'TGGTCTGGTTAAAGGGCG'
(lp37
I34
aI34
aI34
aI37
aI37
aI37
aI37
aI37
aI39
aI39
aI39
aI39
aI39
aI41
aI40
aI41
aI41
aI41
aI41
aI41
aI41
aI34
aI38
aI38
aI40
atp38
a(S'TTAGAATCCTCGACAACT'
(lp39
I31
aI31
aI34
aI37
aI37
aI37
aI37
aI37
aI39
aI39
aI39
aI39
aI39
aI41
aI41
aI41
aI40
aI41
aI41
aI41
aI41
aI41
aI41
aI41
aI41
atp40
a(S'GTTTCCGCATTAGATCCC'
(lp41
I34
aI34
aI34
aI37
aI37
aI37
aI37
aI37
aI39
aI39
aI39
aI39
aI39
aI41
aI41
aI41
aI41
aI41
aI41
aI41
aI41
aI41
aI41
aI41
aI41
atp42
a(S'CGCTCCCTGACGCCCCTG'
(lp43
I34
aI34
aI34
aI37
aI37
aI37
aI37
aI37
aI37
aI37
aI39
aI39
aI39
aI40
aI40
aI40
aI40
aI40
aI40
aI40
aI38
aI34
aI39
aI38
aI38
atp44
a(S'CATTGCCTTCGACAGCTA'
(lp45
I34
aI34
aI34
aI37
aI37
aI37
aI37
aI37
aI38
aI39
aI39
aI39
aI39
aI41
aI41
aI41
aI41
aI41
aI41
aI41
aI38
aI31
aI38
aI38
aI40
atp46
a(S'TCGAGGTGAAGGGGAGGA'
(lp47
I34
aI34
aI34
aI37
aI37
aI37
aI37
aI37
aI39
aI39
aI39
aI39
aI39
aI41
aI41
aI41
aI41
aI41
aI41
aI41
aI41
aI41
aI41
aI41
aI41
atp48
a(S'TATCAAGCAGGACAGTTA'
(lp49
I34
aI34
aI34
aI37
aI37
aI37
aI37
aI37
aI39
aI39
aI39
aI39
aI39
aI41
aI41
aI41
aI41
aI41
aI41
aI41
aI41
aI41
aI41
aI41
aI41
atp50
a(S'AAGCACCCGAACATACGN'
(lp51
I2
aI16
aI28
aI35
aI35
aI37
aI37
aI36
aI39
aI39
aI39
aI39
aI39
aI37
aI38
aI40
aI41
aI41
aI41
aI41
aI41
aI41
aI41
aI41
aI41
atp52
a(S'GTGACGTACTCACCCGTG'
(lp53
I34
aI34
aI34
aI37
aI37
aI37
aI35
aI35
aI39
aI39
aI39
aI39
aI39
aI41
aI40
aI41
aI41
aI41
aI41
aI41
aI41
aI41
aI41
aI41
aI41
atp54
a(S'GCGGTTCACGAATATTAT'
(lp55
I34
aI34
aI34
aI37
aI37
aI37
aI37
aI37
aI39
aI39
aI37
aI39
aI39
aI41
aI41
aI41
aI41
aI41
aI41
aI41
aI41
aI41
aI41
aI41
aI41
atp56
a(S'TCCATTGGTGGGAGCGGG'
(lp57
I34
aI34
aI34
aI37
aI37
aI37
aI37
aI37
aI39
aI39
aI39
aI39
aI39
aI41
aI41
aI41
aI41
aI41
aI41
aI40
aI41
aI41
aI41
aI41
aI41
atp58
a(S'ACACTTCATTTTCCACGA'
(lp59
I33
aI34
aI34
aI37
aI37
aI37
aI37
aI37
aI39
aI39
aI39
aI39
aI39
aI41
aI41
aI39
aI40
aI39
aI39
aI41
aI41
aI41
aI41
aI41
aI41
atp60
a(S'TATAACTGTGGTGGTCGC'
(lp61
I34
aI34
aI34
aI37
aI37
aI37
aI37
aI37
aI39
aI39
aI39
aI39
aI39
aI41
aI41
aI41
aI41
aI41
aI41
aI41
aI41
aI41
aI41
aI41
aI41
atp62
asg2
(g3
g4
(I2
I1
S'GGACGG'
p63
ttRp64
(lp65
(S'TCAAGTAATATCCTCTGA'
(lp66
I34
aI34
aI34
aI37
aI37
aI37
aI37
aI37
aI39
aI39
aI39
aI39
aI39
aI41
aI41
aI41
aI41
aI41
aI41
aI41
aI41
aI41
aI41
aI41
aI41
atp67
a(S'ACGCTCGCGGGGAATAGC'
(lp68
I34
aI34
aI34
aI37
aI37
aI37
aI37
aI37
aI39
aI39
aI39
aI39
aI39
aI41
aI41
aI41
aI41
aI41
aI41
aI41
aI40
aI41
aI41
aI41
aI40
atp69
a(S'TGTTCCGACTAGGTGCGG'
(lp70
I34
aI34
aI34
aI37
aI37
aI37
aI37
aI37
aI39
aI39
aI39
aI39
aI39
aI41
aI41
aI41
aI41
aI41
aI41
aI41
aI41
aI41
aI41
aI41
aI41
atp71
a(S'CCACACCAGCCACGGACC'
(lp72
I34
aI34
aI34
aI37
aI37
aI37
aI37
aI37
aI39
aI39
aI39
aI39
aI39
aI38
aI39
aI38
aI39
aI40
aI39
aI41
aI41
aI41
aI41
aI41
aI41
atp73
a(S'CCTCCGAAAATCTCGCGC'
(lp74
I34
aI34
aI34
aI37
aI37
aI37
aI37
aI37
aI39
aI39
aI39
aI39
aI39
aI41
aI41
aI41
aI41
aI41
aI41
aI41
aI41
aI41
aI41
aI41
aI41
atp75
a(S'TACAGCACCTTTCTCTTT'
(lp76
I34
aI34
aI34
aI37
aI37
aI37
aI37
aI37
aI39
aI39
aI39
aI37
aI39
aI41
aI41
aI41
aI40
aI41
aI41
aI41
aI41
aI41
aI41
aI41
aI40
atp77
a(S'TCTCTGATTGATGTAGAN'
(lp78
I2
aI16
aI28
aI35
aI37
aI37
aI37
aI37
aI39
aI39
aI39
aI39
aI39
aI41
aI41
aI41
aI41
aI41
aI41
aI41
aI41
aI41
aI41
aI41
aI41
atp79
a(S'GCTTAGAAGTTCATACCC'
(lp80
I33
aI34
aI34
aI35
aI35
aI37
aI37
aI37
aI39
aI39
aI39
aI39
aI39
aI41
aI41
aI41
aI41
aI41
aI41
aI41
aI41
aI41
aI41
aI41
aI40
atp81
a(S'CTCCCAGGCTGACCCTTA'
(lp82
I33
aI31
aI33
aI37
aI37
aI37
aI35
aI36
aI39
aI39
aI39
aI39
aI39
aI41
aI41
aI41
aI41
aI41
aI41
aI40
aI41
aI41
aI41
aI41
aI41
atp83
a(S'ACATTCAGTACAACTTAN'
(lp84
I2
aI19
aI28
aI35
aI37
aI37
aI37
aI37
aI39
aI39
aI39
aI39
aI39
aI41
aI41
aI41
aI41
aI40
aI41
aI41
aI41
aI41
aI41
aI41
aI41
atp85
a(S'CGGATTAGTCTCAGCTCC'
(lp86
I34
aI34
aI34
aI37
aI37
aI37
aI37
aI37
aI39
aI39
aI39
aI39
aI39
aI41
aI41
aI41
aI41
aI41
aI41
aI41
aI41
aI41
aI41
aI41
aI41
atp87
a(S'CACAATCCGACCCTTGGC'
(lp88
I34
aI34
aI34
aI37
aI37
aI37
aI37
aI37
aI39
aI39
aI39
aI39
aI39
aI41
aI41
aI41
aI40
aI41
aI41
aI41
aI41
aI41
aI41
aI41
aI41
atp89
asg2
(g3
g4
(I1
I1
S'TTGACT'
p90
ttRp91
(lp92
(S'CGGCACACCAAGGAAAGA'
(lp93
I34
aI34
aI34
aI37
aI37
aI37
aI37
aI37
aI39
aI39
aI39
aI39
aI39
aI40
aI40
aI41
aI41
aI41
aI41
aI41
aI41
aI41
aI41
aI41
aI41
atp94
a(S'AGCTCAGGGCAGTCCCCT'
(lp95
I34
aI34
aI34
aI37
aI37
aI37
aI37
aI37
aI39
aI39
aI39
aI39
aI39
aI41
aI41
aI41
aI41
aI41
aI41
aI41
aI41
aI41
aI41
aI41
aI41
atp96
a(S'AATGAAACCAATAATCTN'
(lp97
I2
aI16
aI33
aI35
aI37
aI37
aI37
aI37
aI39
aI39
aI39
aI39
aI39
aI41
aI41
aI41
aI41
aI41
aI41
aI41
aI41
aI41
aI41
aI41
aI41
atp98
a(S'CTTGTTATATTCCTTGGA'
(lp99
I34
aI34
aI34
aI37
aI37
aI37
aI37
aI37
aI39
aI39
aI39
aI39
aI39
aI41
aI41
aI41
aI41
aI41
aI41
aI41
aI41
aI41
aI41
aI41
aI41
atp100
as.