(dp1
(I12
S'T'
tp2
((lp3
I2079
aI2469
aI2170
a(lp4
I1988
aI2168
aI3176
atp5
s(I2
S'Q'
tp6
((lp7
F0
aF0
aF0
a(lp8
F0
aF0
aF0
atp9
s(I71
S'L'
tp10
((lp11
I3791
aI4159
aI3726
a(lp12
I5079
aI5407
aI7787
atp13
s(I48
S'K'
tp14
((lp15
I395
aI493
aI425
a(lp16
I255
aI296
aI426
atp17
s(I61
S'I'
tp18
((lp19
I2232
aI2533
aI2256
a(lp20
I2035
aI2343
aI3361
atp21
s(I16
S'E'
tp22
((lp23
I1233
aI1362
aI1178
a(lp24
I1351
aI1509
aI2202
atp25
s(I31
S'Q'
tp26
((lp27
I284
aI244
aI220
a(lp28
I174
aI209
aI279
atp29
s(I69
S'L'
tp30
((lp31
I1393
aI1562
aI1412
a(lp32
I1170
aI1216
aI1875
atp33
s(I76
S'G'
tp34
((lp35
I3819
aI4345
aI3837
a(lp36
I3524
aI3896
aI5901
atp37
s(I72
S'R'
tp38
((lp39
I3887
aI4484
aI3909
a(lp40
I3259
aI3858
aI5551
atp41
s(I15
S'L'
tp42
((lp43
I5199
aI5801
aI5235
a(lp44
I5125
aI5963
aI8570
atp45
s(I19
S'S'
tp46
((lp47
I1874
aI2124
aI1877
a(lp48
I2908
aI2978
aI4531
atp49
s(I35
S'G'
tp50
((lp51
I1961
aI2115
aI1882
a(lp52
I1583
aI1714
aI2512
atp53
s(I33
S'K'
tp54
((lp55
I284
aI307
aI303
a(lp56
I167
aI133
aI226
atp57
s(I75
S'G'
tp58
((lp59
I4305
aI4671
aI4161
a(lp60
I5329
aI5757
aI8422
atp61
s(I40
S'Q'
tp62
((lp63
I849
aI927
aI777
a(lp64
I842
aI830
aI1337
atp65
s(I60
S'N'
tp66
((lp67
I146
aI214
aI185
a(lp68
I93
aI101
aI147
atp69
s(I55
S'T'
tp70
((lp71
I4096
aI4521
aI4163
a(lp72
I4232
aI4796
aI6999
atp73
s(I43
S'L'
tp74
((lp75
I2189
aI2275
aI2112
a(lp76
I2319
aI2641
aI3714
atp77
s(I65
S'S'
tp78
((lp79
I4501
aI5107
aI4669
a(lp80
I3864
aI4251
aI6219
atp81
s(I50
S'L'
tp82
((lp83
I1067
aI1158
aI1105
a(lp84
I1419
aI1568
aI2308
atp85
s(I68
S'H'
tp86
((lp87
F0
aF0
aF0
a(lp88
F0
aF0
aF0
atp89
s(I1
S'M'
tp90
((lp91
F0
aF0
aF0
a(lp92
F0
aF0
aF0
atp93
s(I25
S'N'
tp94
((lp95
I585
aI664
aI603
a(lp96
I728
aI805
aI1107
atp97
s(I57
S'S'
tp98
((lp99
I2815
aI2978
aI2659
a(lp100
I3243
aI3541
aI5341
atp101
s(I37
S'P'
tp102
((lp103
I5456
aI6270
aI5726
a(lp104
I5767
aI6161
aI8941
atp105
s(I29
S'K'
tp106
((lp107
I129
aI142
aI126
a(lp108
I85
aI86
aI123
atp109
s(I49
S'Q'
tp110
((lp111
F0
aF0
aF0
a(lp112
F0
aF0
aF0
atp113
s(I3
S'I'
tp114
((lp115
I663
aI648
aI591
a(lp116
I455
aI613
aI886
atp117
s(I41
S'Q'
tp118
((lp119
I267
aI351
aI260
a(lp120
I140
aI128
aI228
atp121
s(I39
S'D'
tp122
((lp123
I1211
aI1322
aI1124
a(lp124
I1046
aI1150
aI1780
atp125
s(I32
S'D'
tp126
((lp127
F0
aF0
aF0
a(lp128
F0
aF0
aF0
atp129
s(I62
S'Q'
tp130
((lp131
I162
aI187
aI176
a(lp132
I140
aI168
aI217
atp133
s(I14
S'T'
tp134
((lp135
I5063
aI5622
aI4910
a(lp136
I5840
aI6370
aI8910
atp137
s(I64
S'E'
tp138
((lp139
I328
aI384
aI410
a(lp140
I309
aI382
aI588
atp141
s(I52
S'D'
tp142
((lp143
I374
aI425
aI402
a(lp144
I366
aI387
aI577
atp145
s(I51
S'E'
tp146
((lp147
I130
aI154
aI156
a(lp148
I375
aI405
aI635
atp149
s(I63
S'K'
tp150
((lp151
I1046
aI1206
aI1064
a(lp152
I969
aI1095
aI1500
atp153
s(I46
S'A'
tp154
((lp155
I3833
aI4425
aI4044
a(lp156
I4655
aI5297
aI7420
atp157
s(I28
S'S'
tp158
((lp159
I3312
aI3745
aI3445
a(lp160
I2699
aI3020
aI4478
atp161
s(I4
S'F'
tp162
((lp163
I268
aI307
aI270
a(lp164
I201
aI212
aI344
atp165
s(I7
S'T'
tp166
((lp167
I2568
aI2933
aI2546
a(lp168
I3605
aI4160
aI5946
atp169
s(I8
S'L'
tp170
((lp171
I2750
aI3099
aI2751
a(lp172
I3015
aI3355
aI5043
atp173
s(I77
S'STOP'
p174
tp175
((lp176
F0
aF0
aF0
a(lp177
F0
aF0
aF0
atp178
s(I67
S'L'
tp179
((lp180
I3606
aI3849
aI3399
a(lp181
I3738
aI3873
aI5644
atp182
s(I26
S'V'
tp183
((lp184
I2549
aI2975
aI2611
a(lp185
I2973
aI3169
aI4736
atp186
s(I74
S'R'
tp187
((lp188
I3262
aI3661
aI3353
a(lp189
I3325
aI3736
aI5368
atp190
s(I10
S'G'
tp191
((lp192
I3107
aI3389
aI3065
a(lp193
I3450
aI3773
aI5346
atp194
s(I23
S'I'
tp195
((lp196
I1227
aI1266
aI1150
a(lp197
I1116
aI1220
aI1736
atp198
s(I18
S'E'
tp199
((lp200
I63
aI91
aI76
a(lp201
I4
aI5
aI3
atp202
s(I30
S'I'
tp203
((lp204
I620
aI750
aI656
a(lp205
I587
aI674
aI998
atp206
s(I47
S'G'
tp207
((lp208
I7827
aI8842
aI8113
a(lp209
I8666
aI9535
aI14381
atp210
s(I70
S'V'
tp211
((lp212
I2082
aI2302
aI2142
a(lp213
I2151
aI2287
aI3397
atp214
s(I13
S'I'
tp215
((lp216
I475
aI524
aI495
a(lp217
I1056
aI1149
aI1720
atp218
s(I5
S'V'
tp219
((lp220
I1819
aI1899
aI1716
a(lp221
I1962
aI2101
aI2963
atp222
s(I34
S'E'
tp223
((lp224
I107
aI179
aI127
a(lp225
I99
aI85
aI143
atp226
s(I44
S'I'
tp227
((lp228
I74
aI69
aI74
a(lp229
I0
aI1
aI0
atp230
s(I42
S'R'
tp231
((lp232
I7152
aI7961
aI7134
a(lp233
I7055
aI7617
aI11519
atp234
s(I11
S'K'
tp235
((lp236
I367
aI358
aI345
a(lp237
I329
aI367
aI553
atp238
s(I73
S'L'
tp239
((lp240
I3903
aI4344
aI4039
a(lp241
I4226
aI4691
aI6589
atp242
s(I36
S'I'
tp243
((lp244
I1159
aI1311
aI1127
a(lp245
I717
aI909
aI1201
atp246
s(I9
S'T'
tp247
((lp248
I2797
aI3225
aI2963
a(lp249
I3295
aI3725
aI5571
atp250
s(I66
S'T'
tp251
((lp252
I751
aI911
aI806
a(lp253
I1096
aI1160
aI1703
atp254
s(I6
S'K'
tp255
((lp256
I842
aI998
aI836
a(lp257
I812
aI819
aI1296
atp258
s(I24
S'D'
tp259
((lp260
I2277
aI2428
aI2285
a(lp261
I2654
aI2816
aI4337
atp262
s(I58
S'D'
tp263
((lp264
I471
aI461
aI450
a(lp265
I478
aI515
aI861
atp266
s(I54
S'R'
tp267
((lp268
I4029
aI4417
aI3921
a(lp269
I4703
aI5281
aI7533
atp270
s(I59
S'Y'
tp271
((lp272
I451
aI424
aI410
a(lp273
I482
aI591
aI724
atp274
s(I27
S'K'
tp275
((lp276
I441
aI565
aI513
a(lp277
I496
aI524
aI826
atp278
s(I45
S'F'
tp279
((lp280
I1171
aI1305
aI1179
a(lp281
I1501
aI1649
aI2510
atp282
s(I56
S'L'
tp283
((lp284
I859
aI929
aI855
a(lp285
I800
aI886
aI1271
atp286
s(I21
S'D'
tp287
((lp288
I411
aI480
aI423
a(lp289
I319
aI379
aI598
atp290
s(I17
S'V'
tp291
((lp292
I2069
aI2361
aI2086
a(lp293
I1542
aI1783
aI2496
atp294
s(I53
S'G'
tp295
((lp296
I2684
aI3228
aI2845
a(lp297
I3966
aI4465
aI6381
atp298
s(I20
S'S'
tp299
((lp300
I3695
aI3896
aI3723
a(lp301
I3769
aI4231
aI5912
atp302
s(I38
S'P'
tp303
((lp304
I4153
aI4821
aI4067
a(lp305
I3709
aI3940
aI5924
atp306
s(I0
S'WT'
p307
tp308
((lp309
I90389
aI101417
aI90590
a(lp310
I95347
aI104939
aI153511
atp311
s(I22
S'T'
tp312
((lp313
I1532
aI1669
aI1502
a(lp314
I1428
aI1625
aI2323
atp315
s.