(dp1
(I3
S'9'
tp2
F-1.5270699999999999
s(I6
S'E'
tp3
F1.0559499999999999
s(I3
S'C'
tp4
F6.2592299999999996
s(I5
S'P'
tp5
F11.5684
s(I5
S'3'
tp6
F-0.999919
s(I5
S'Y'
tp7
F5.3061499999999997
s(I2
S'K'
tp8
F0.220753
s(I2
S'6'
tp9
F4.7318800000000003
s(I5
S'8'
tp10
F-3.0331000000000001
s(I9
S'Q'
tp11
F0.069160100000000002
s(I5
S'N'
tp12
F5.5253199999999998
s(I6
S'V'
tp13
F-0.70251200000000003
s(I3
S'R'
tp14
F11.9956
s(I2
S'Y'
tp15
F-1.43316
s(I7
S'W'
tp16
F-0.893455
s(I9
S'G'
tp17
F0.876691
s(I6
S'D'
tp18
F3.1917300000000002
s(I3
S'D'
tp19
F11.1395
s(I9
S'L'
tp20
F-0.0139352
s(I7
S'A'
tp21
F2.2356500000000001
s(I4
S'G'
tp22
F6.2129599999999998
s(I8
S'W'
tp23
F0.47661399999999998
s(I4
S'N'
tp24
F3.7969300000000001
s(I2
S'5'
tp25
F-1.6063400000000001
s(I4
S'1'
tp26
F2.9246599999999998
s(I1
S'S'
tp27
F2.1628099999999999
s(I3
S'S'
tp28
F7.38089
s(I8
S'I'
tp29
F0.67879100000000003
s(I4
S'8'
tp30
F-1.10365
s(I7
S'P'
tp31
F3.1520600000000001
s(I3
S'E'
tp32
F9.3518100000000004
s(I5
S'1'
tp33
F0.11403000000000001
s(I5
S'G'
tp34
F7.9422300000000003
s(I2
S'I'
tp35
F-1.5637099999999999
s(I2
S'4'
tp36
F-4.4621700000000004
s(I9
S'W'
tp37
F-0.45117099999999999
s(I5
S'L'
tp38
F2.1750699999999998
s(I6
S'T'
tp39
F-0.53093199999999996
s(I3
S'T'
tp40
F5.3432599999999999
s(I2
S'W'
tp41
F-2.4704700000000002
s(I7
S'Q'
tp42
F1.3036799999999999
s(I4
S'W'
tp43
F1.5079400000000001
s(I9
S'E'
tp44
F0.96387
s(I3
S'F'
tp45
F2.4311099999999999
s(I7
S'C'
tp46
F2.21916
s(I4
S'A'
tp47
F4.3068499999999998
s(I1
S'C'
tp48
F1.60199
s(I8
S'Y'
tp49
F1.6867799999999999
s(I4
S'H'
tp50
F3.2782
s(I2
S'H'
tp51
F0.44506299999999999
s(I2
S'3'
tp52
F5.4581600000000003
s(I4
S'3'
tp53
F6.2447800000000004
s(I1
S'Q'
tp54
F1.2259599999999999
s(I8
S'K'
tp55
F2.3331
s(I2
S'V'
tp56
F-2.07274
s(I7
S'R'
tp57
F5.1361400000000001
s(I6
S'9'
tp58
F5.2629599999999996
s(I3
S'G'
tp59
F8.5879899999999996
s(I5
S'W'
tp60
F12.940799999999999
s(I5
S'6'
tp61
F9.8061799999999995
s(I5
S'E'
tp62
F9.4570799999999995
s(I2
S'G'
tp63
F1.78461
s(I2
S'2'
tp64
F-3.1587800000000001
s(I3
S'V'
tp65
F2.5740400000000001
s(I7
S'S'
tp66
F1.3663799999999999
s(I4
S'Q'
tp67
F3.1417600000000001
s(I9
S'K'
tp68
F0.14918600000000001
s(I6
S'8'
tp69
F-2.0459900000000002
s(I3
S'H'
tp70
F4.3605200000000002
s(I1
S'H'
tp71
F1.4109400000000001
s(I8
S'P'
tp72
F-0.0145974
s(I4
S'C'
tp73
F4.6241300000000001
s(I1
S'A'
tp74
F1.30182
s(I2
S'F'
tp75
F-0.86956999999999995
s(I2
S'1'
tp76
F-2.6393800000000001
s(I1
S'9'
tp77
F0.69108899999999995
s(I1
S'W'
tp78
F-0.768648
s(I6
S'I'
tp79
F-0.803782
s(I3
S'W'
tp80
F10.609
s(I8
S'M'
tp81
F1.1107
s(I2
S'T'
tp82
F-0.56391999999999998
s(I7
S'L'
tp83
F-0.00194426
s(I5
S'4'
tp84
F-0.073462200000000005
s(I9
S'R'
tp85
F1.1850700000000001
s(I5
S'C'
tp86
F4.3363500000000004
s(I2
S'E'
tp87
F0.58002200000000004
s(I2
S'0'
tp88
F0.652698
s(I5
S'H'
tp89
F5.6697199999999999
s(I6
S'H'
tp90
F-0.86702599999999996
s(I2
S'S'
tp91
F1.2955700000000001
s(I7
S'M'
tp92
F1.3800699999999999
s(I4
S'S'
tp93
F5.8771800000000001
s(I9
S'I'
tp94
F0.15293200000000001
s(I1
S'N'
tp95
F1.23682
s(I8
S'R'
tp96
F2.12303
s(I4
S'M'
tp97
F4.1550599999999998
s(I1
S'G'
tp98
F2.2513399999999999
s(I6
S'Y'
tp99
F-1.7156499999999999
s(I4
S'4'
tp100
F-3.3279299999999998
s(I2
S'D'
tp101
F2.5558200000000002
s(I4
S'7'
tp102
F1.66421
s(I8
S'D'
tp103
F3.1175000000000002
s(I3
S'Y'
tp104
F3.7156799999999999
s(I1
S'4'
tp105
F1.7743
s(I7
S'4'
tp106
F-2.55389
s(I2
S'R'
tp107
F-0.37037500000000001
s(I7
S'N'
tp108
F3.3904299999999998
s(I1
S'8'
tp109
F-1.5662499999999999
s(I3
S'K'
tp110
F10.8827
s(I5
S'S'
tp111
F5.8029299999999999
s(I5
S'2'
tp112
F2.67944
s(I9
S'P'
tp113
F0.96747399999999995
s(I5
S'A'
tp114
F5.1578999999999997
s(I2
S'C'
tp115
F0.45936100000000002
s(I9
S'Y'
tp116
F-0.37270799999999998
s(I3
S'0'
tp117
F3.21611
s(I6
S'N'
tp118
F1.97099
s(I9
S'F'
tp119
F-0.010559900000000001
s(I7
S'5'
tp120
F3.46441
s(I3
S'L'
tp121
F1.7654700000000001
s(I4
S'D'
tp122
F7.1383599999999996
s(I1
S'L'
tp123
F0.233705
s(I8
S'T'
tp124
F0.96740400000000004
s(I1
S'E'
tp125
F2.48583
s(I4
S'6'
tp126
F-0.16859399999999999
s(I1
S'R'
tp127
F2.0835300000000001
s(I8
S'F'
tp128
F0.96243100000000004
s(I4
S'9'
tp129
F-0.92493099999999995
s(I3
S'1'
tp130
F-2.6843400000000002
s(I6
S'M'
tp131
F0.019366499999999998
s(I7
S'6'
tp132
F0.30802499999999999
s(I2
S'P'
tp133
F1.45048
s(I7
S'H'
tp134
F1.2335
s(I6
S'3'
tp135
F0.14655099999999999
s(I3
S'M'
tp136
F3.3091699999999999
s(I5
S'Q'
tp137
F5.3685999999999998
s(I5
S'0'
tp138
F9.3141999999999996
s(I5
S'F'
tp139
F3.1264400000000001
s(I5
S'9'
tp140
F1.2077199999999999
s(I9
S'V'
tp141
F0.28676499999999999
s(I2
S'A'
tp142
F0.62572000000000005
s(I1
S'2'
tp143
F-0.25520900000000002
s(I3
S'2'
tp144
F-1.5390299999999999
s(I6
S'L'
tp145
F-1.1284799999999999
s(I4
S'T'
tp146
F4.7085400000000002
s(I9
S'D'
tp147
F0.85463199999999995
s(I7
S'I'
tp148
F1.4451400000000001
s(I9
S'M'
tp149
F0.47534100000000001
s(I6
S'2'
tp150
F-0.203733
s(I3
S'N'
tp151
F8.11266
s(I8
S'V'
tp152
F1.0915600000000001
s(I4
S'I'
tp153
F2.2594500000000002
s(I8
S'A'
tp154
F1.6709700000000001
s(I4
S'0'
tp155
F-3.0347599999999999
s(I1
S'P'
tp156
F2.6491500000000001
s(I8
S'H'
tp157
F1.6967300000000001
s(I3
S'3'
tp158
F-0.97097900000000004
s(I6
S'C'
tp159
F0.58060599999999996
s(I7
S'0'
tp160
F-1.90513
s(I6
S'1'
tp161
F6.0175799999999997
s(I1
S'0'
tp162
F3.10276
s(I5
S'D'
tp163
F9.3639899999999994
s(I5
S'M'
tp164
F3.8192699999999999
s(I7
S'Y'
tp165
F1.37239
s(I3
S'4'
tp166
F2.1017100000000002
s(I4
S'V'
tp167
F2.3358099999999999
s(I7
S'1'
tp168
F1.2199899999999999
s(I7
S'K'
tp169
F3.5389400000000002
s(I4
S'Y'
tp170
F0.14346200000000001
s(I1
S'K'
tp171
F1.97502
s(I6
S'0'
tp172
F1.16134
s(I8
S'Q'
tp173
F0.754498
s(I4
S'K'
tp174
F3.6822699999999999
s(I1
S'Y'
tp175
F1.0178700000000001
s(I6
S'S'
tp176
F1.8803399999999999
s(I8
S'C'
tp177
F1.8876500000000001
s(I4
S'2'
tp178
F-0.252691
s(I1
S'V'
tp179
F0.55631200000000003
s(I1
S'1'
tp180
F3.9142600000000001
s(I3
S'5'
tp181
F4.4954599999999996
s(I6
S'A'
tp182
F1.38157
s(I7
S'2'
tp183
F-2.0760800000000001
s(I7
S'D'
tp184
F2.0525899999999999
s(I5
S'T'
tp185
F4.0229999999999997
s(I6
S'7'
tp186
F7.2561999999999998
s(I5
S'7'
tp187
F0.79172900000000002
s(I6
S'R'
tp188
F0.90902099999999997
s(I5
S'K'
tp189
F13.3819
s(I9
S'C'
tp190
F0.87946599999999997
s(I3
S'6'
tp191
F0.63624400000000003
s(I4
S'P'
tp192
F9.0977200000000007
s(I9
S'H'
tp193
F0.40243400000000001
s(I7
S'3'
tp194
F-0.66500499999999996
s(I7
S'E'
tp195
F4.0582599999999998
s(I1
S'I'
tp196
F-1.1524000000000001
s(I6
S'6'
tp197
F-2.1816300000000002
s(I8
S'S'
tp198
F1.3419399999999999
s(I1
S'F'
tp199
F1.2044900000000001
s(I2
S'N'
tp200
F1.1507499999999999
s(I2
S'9'
tp201
F-2.3550200000000001
s(I4
S'5'
tp202
F-0.27826600000000001
s(I6
S'Q'
tp203
F-0.0022264699999999999
s(I8
S'E'
tp204
F2.2330399999999999
s(I1
S'T'
tp205
F1.50467
s(I1
S'7'
tp206
F2.4431799999999999
s(I3
S'7'
tp207
F3.4282599999999999
s(I6
S'G'
tp208
F3.16601
s(I3
S'A'
tp209
F6.1924400000000004
s(I1
S'6'
tp210
F-1.3688899999999999
s(I7
S'F'
tp211
F-0.300786
s(I5
S'R'
tp212
F15.7948
s(I6
S'5'
tp213
F-0.31716499999999997
s(I5
S'5'
tp214
F-0.81311199999999995
s(I2
S'M'
tp215
F-0.75898200000000005
s(I2
S'8'
tp216
F-0.84960000000000002
s(I9
S'S'
tp217
F0.53613299999999997
s(I6
S'P'
tp218
F5.7478100000000003
s(I3
S'P'
tp219
F7.7738399999999999
s(I5
S'I'
tp220
F0.165217
s(I1
S'3'
tp221
F3.8450000000000002
s(I9
S'A'
tp222
F0.54782699999999995
s(I3
S'8'
tp223
F4.5027400000000002
s(I6
S'F'
tp224
F-1.5790500000000001
s(I4
S'R'
tp225
F3.8041800000000001
s(I9
S'N'
tp226
F-0.242174
s(I7
S'G'
tp227
F2.8375400000000002
s(I4
S'E'
tp228
F4.4984700000000002
s(I6
S'4'
tp229
F-2.6135000000000002
s(I4
S'L'
tp230
F1.59935
s(I1
S'D'
tp231
F2.53857
s(I2
S'L'
tp232
F-0.67283400000000004
s(I2
S'7'
tp233
F0.43999100000000002
s(I1
S'5'
tp234
F0.52717400000000003
s(I6
S'W'
tp235
F-2.7221500000000001
s(I3
S'Q'
tp236
F5.7240799999999998
s(I8
S'G'
tp237
F2.13503
s(I7
S'V'
tp238
F2.3415300000000001
s(I8
S'N'
tp239
F1.43546
s.