(dp1
(I17
S'D'
tp2
((lp3
I22
aI9
aI2
a(lp4
I15
aI3
aI2
atp5
s(I13
S'C'
tp6
((lp7
I1519
aI1721
aI1568
a(lp8
I1576
aI1818
aI2582
atp9
s(I43
S'W'
tp10
((lp11
I7
aI1
aI1
a(lp12
I2
aI1
aI0
atp13
s(I72
S'H'
tp14
((lp15
I3080
aI1517
aI616
a(lp16
I2188
aI818
aI493
atp17
s(I66
S'W'
tp18
((lp19
I2
aI0
aI0
a(lp20
I1
aI0
aI0
atp21
s(I71
S'Q'
tp22
((lp23
I5
aI1
aI0
a(lp24
I1
aI0
aI0
atp25
s(I68
S'W'
tp26
((lp27
I4
aI0
aI1
a(lp28
I0
aI0
aI0
atp29
s(I20
S'R'
tp30
((lp31
I3014
aI3490
aI3224
a(lp32
I2183
aI2439
aI3613
atp33
s(I32
S'E'
tp34
((lp35
I1124
aI1302
aI1128
a(lp36
I2146
aI2416
aI3370
atp37
s(I75
S'Y'
tp38
((lp39
I12
aI8
aI2
a(lp40
I5
aI1
aI2
atp41
s(I31
S'STOP'
p42
tp43
((lp44
I685
aI111
aI43
a(lp45
I155
aI63
aI48
atp46
s(I33
S'V'
tp47
((lp48
I6135
aI6195
aI5660
a(lp49
I8669
aI9147
aI12967
atp50
s(I11
S'I'
tp51
((lp52
I358
aI366
aI276
a(lp53
I254
aI249
aI315
atp54
s(I4
S'N'
tp55
((lp56
I15
aI24
aI11
a(lp57
I0
aI1
aI0
atp58
s(I47
S'K'
tp59
((lp60
I0
aI0
aI0
a(lp61
I2
aI0
aI0
atp62
s(I39
S'D'
tp63
((lp64
I1211
aI1322
aI1124
a(lp65
I1046
aI1150
aI1780
atp66
s(I29
S'Y'
tp67
((lp68
I769
aI834
aI746
a(lp69
I899
aI1031
aI1482
atp70
s(I33
S'A'
tp71
((lp72
I6526
aI6675
aI5749
a(lp73
I9294
aI9468
aI13387
atp74
s(I61
S'G'
tp75
((lp76
I29
aI15
aI12
a(lp77
I69
aI60
aI61
atp78
s(I22
S'V'
tp79
((lp80
I5355
aI6163
aI5550
a(lp81
I6717
aI7816
aI10868
atp82
s(I46
S'Q'
tp83
((lp84
I2074
aI1760
aI959
a(lp85
I2531
aI1690
aI1810
atp86
s(I71
S'S'
tp87
((lp88
I0
aI0
aI0
a(lp89
I6
aI3
aI14
atp90
s(I4
S'W'
tp91
((lp92
I525
aI450
aI302
a(lp93
I357
aI302
aI376
atp94
s(I49
S'L'
tp95
((lp96
I164
aI119
aI64
a(lp97
I217
aI172
aI178
atp98
s(I41
S'D'
tp99
((lp100
I14
aI5
aI0
a(lp101
I18
aI13
aI14
atp102
s(I11
S'D'
tp103
((lp104
I428
aI150
aI73
a(lp105
I333
aI110
aI59
atp106
s(I18
S'Q'
tp107
((lp108
I728
aI822
aI858
a(lp109
I1007
aI1140
aI1627
atp110
s(I23
S'G'
tp111
((lp112
I2373
aI1843
aI1470
a(lp113
I3396
aI2925
aI3419
atp114
s(I9
g42
tp115
((lp116
I628
aI126
aI46
a(lp117
I249
aI179
aI137
atp118
s(I58
S'N'
tp119
((lp120
I204
aI193
aI133
a(lp121
I433
aI312
aI350
atp122
s(I29
S'T'
tp123
((lp124
I2693
aI2771
aI2550
a(lp125
I4696
aI5347
aI7669
atp126
s(I60
S'C'
tp127
((lp128
I1286
aI1335
aI1107
a(lp129
I1798
aI1708
aI2216
atp130
s(I34
S'C'
tp131
((lp132
I504
aI438
aI223
a(lp133
I2309
aI2118
aI2169
atp134
s(I7
S'W'
tp135
((lp136
I0
aI0
aI0
a(lp137
I3
aI3
aI1
atp138
s(I10
S'P'
tp139
((lp140
I5
aI0
aI0
a(lp141
I9
aI9
aI9
atp142
s(I19
S'D'
tp143
((lp144
I1722
aI1901
aI1682
a(lp145
I2747
aI3311
aI4981
atp146
s(I54
S'E'
tp147
((lp148
I910
aI853
aI635
a(lp149
I1475
aI1270
aI1467
atp150
s(I66
S'L'
tp151
((lp152
I5295
aI5253
aI3381
a(lp153
I6123
aI5308
aI5825
atp154
s(I61
S'C'
tp155
((lp156
I1191
aI1466
aI1304
a(lp157
I1501
aI1647
aI2455
atp158
s(I20
S'G'
tp159
((lp160
I5840
aI7042
aI6325
a(lp161
I5709
aI6769
aI10181
atp162
s(I58
S'L'
tp163
((lp164
I275
aI207
aI114
a(lp165
I1202
aI627
aI535
atp166
s(I5
S'H'
tp167
((lp168
I0
aI0
aI0
a(lp169
I5
aI3
aI3
atp170
s(I6
S'H'
tp171
((lp172
I1008
aI965
aI819
a(lp173
I1686
aI1767
aI2302
atp174
s(I30
S'I'
tp175
((lp176
I620
aI750
aI656
a(lp177
I587
aI674
aI998
atp178
s(I34
S'A'
tp179
((lp180
I3641
aI3772
aI2788
a(lp181
I5758
aI6049
aI7844
atp182
s(I24
S'W'
tp183
((lp184
I229
aI253
aI173
a(lp185
I429
aI419
aI567
atp186
s(I47
S'Q'
tp187
((lp188
I26
aI15
aI14
a(lp189
I38
aI7
aI4
atp190
s(I53
S'T'
tp191
((lp192
I1469
aI1594
aI1476
a(lp193
I1616
aI1932
aI2606
atp194
s(I52
S'F'
tp195
((lp196
I765
aI922
aI791
a(lp197
I981
aI1189
aI1639
atp198
s(I52
S'P'
tp199
((lp200
I3660
aI4324
aI4056
a(lp201
I3243
aI3625
aI5456
atp202
s(I48
S'P'
tp203
((lp204
I30
aI15
aI5
a(lp205
I11
aI8
aI6
atp206
s(I29
S'P'
tp207
((lp208
I0
aI0
aI0
a(lp209
I13
aI14
aI22
atp210
s(I16
S'I'
tp211
((lp212
I264
aI371
aI298
a(lp213
I272
aI293
aI400
atp214
s(I72
S'A'
tp215
((lp216
I1511
aI937
aI371
a(lp217
I1481
aI832
aI530
atp218
s(I69
S'V'
tp219
((lp220
I2579
aI2612
aI2299
a(lp221
I3435
aI3425
aI4969
atp222
s(I75
S'R'
tp223
((lp224
I17
aI5
aI1
a(lp225
I14
aI4
aI2
atp226
s(I19
S'H'
tp227
((lp228
I225
aI228
aI238
a(lp229
I206
aI269
aI392
atp230
s(I51
S'Y'
tp231
((lp232
I267
aI226
aI142
a(lp233
I529
aI517
aI564
atp234
s(I22
S'I'
tp235
((lp236
I1201
aI1288
aI1176
a(lp237
I1510
aI1538
aI2291
atp238
s(I48
S'R'
tp239
((lp240
I50
aI10
aI7
a(lp241
I142
aI35
aI18
atp242
s(I76
S'T'
tp243
((lp244
I61
aI9
aI2
a(lp245
I33
aI5
aI6
atp246
s(I41
S'L'
tp247
((lp248
I4775
aI3895
aI2689
a(lp249
I6861
aI5512
aI6112
atp250
s(I15
S'R'
tp251
((lp252
I92
aI51
aI18
a(lp253
I48
aI24
aI35
atp254
s(I28
S'M'
tp255
((lp256
I642
aI773
aI559
a(lp257
I1005
aI982
aI1379
atp258
s(I42
S'I'
tp259
((lp260
I0
aI1
aI0
a(lp261
I10
aI3
aI0
atp262
s(I20
S'M'
tp263
((lp264
I279
aI228
aI247
a(lp265
I122
aI138
aI193
atp266
s(I3
g42
tp267
((lp268
I716
aI192
aI31
a(lp269
I145
aI55
aI29
atp270
s(I14
S'D'
tp271
((lp272
I9
aI9
aI4
a(lp273
I93
aI70
aI64
atp274
s(I35
S'A'
tp275
((lp276
I5000
aI6278
aI5800
a(lp277
I7452
aI8948
aI13311
atp278
s(I53
S'C'
tp279
((lp280
I416
aI462
aI429
a(lp281
I586
aI661
aI857
atp282
s(I27
S'D'
tp283
((lp284
I0
aI0
aI0
a(lp285
I0
aI0
aI0
atp286
s(I16
S'S'
tp287
((lp288
I3170
aI3576
aI3101
a(lp289
I3211
aI3547
aI5098
atp290
s(I14
S'K'
tp291
((lp292
I166
aI149
aI131
a(lp293
I648
aI661
aI839
atp294
s(I69
S'R'
tp295
((lp296
I10
aI6
aI9
a(lp297
I11
aI2
aI6
atp298
s(I75
S'V'
tp299
((lp300
I29
aI4
aI0
a(lp301
I15
aI1
aI2
atp302
s(I72
S'R'
tp303
((lp304
I3887
aI4484
aI3909
a(lp305
I3259
aI3858
aI5551
atp306
s(I66
S'D'
tp307
((lp308
I2029
aI2085
aI1244
a(lp309
I2305
aI1868
aI1992
atp310
s(I35
S'T'
tp311
((lp312
I4712
aI4820
aI2825
a(lp313
I8448
aI7659
aI7043
atp314
s(I25
S'K'
tp315
((lp316
I1415
aI1612
aI1446
a(lp317
I1154
aI1396
aI1927
atp318
s(I11
S'F'
tp319
((lp320
I177
aI154
aI94
a(lp321
I212
aI140
aI107
atp322
s(I73
S'A'
tp323
((lp324
I45
aI4
aI4
a(lp325
I21
aI9
aI2
atp326
s(I4
S'P'
tp327
((lp328
I18
aI13
aI4
a(lp329
I32
aI2
aI1
atp330
s(I48
S'V'
tp331
((lp332
I298
aI96
aI27
a(lp333
I459
aI99
aI67
atp334
s(I45
S'G'
tp335
((lp336
I6092
aI7324
aI5997
a(lp337
I36809
aI40966
aI55775
atp338
s(I76
S'P'
tp339
((lp340
I15
aI9
aI0
a(lp341
I10
aI0
aI2
atp342
s(I39
S'W'
tp343
((lp344
I13
aI14
aI10
a(lp345
I21
aI14
aI13
atp346
s(I49
S'E'
tp347
((lp348
I26
aI11
aI8
a(lp349
I93
aI58
aI55
atp350
s(I69
S'P'
tp351
((lp352
I12
aI5
aI3
a(lp353
I16
aI10
aI4
atp354
s(I19
S'N'
tp355
((lp356
I1090
aI1196
aI1159
a(lp357
I1429
aI1647
aI2398
atp358
s(I25
S'I'
tp359
((lp360
I2849
aI3225
aI2754
a(lp361
I4318
aI4845
aI6902
atp362
s(I43
S'G'
tp363
((lp364
I0
aI0
aI0
a(lp365
I0
aI0
aI1
atp366
s(I50
S'F'
tp367
((lp368
I6
aI3
aI1
a(lp369
I8
aI3
aI0
atp370
s(I68
S'G'
tp371
((lp372
I37
aI21
aI8
a(lp373
I78
aI30
aI10
atp374
s(I48
S'H'
tp375
((lp376
I63
aI17
aI3
a(lp377
I110
aI33
aI5
atp378
s(I7
S'G'
tp379
((lp380
I7541
aI9607
aI7620
a(lp381
I9302
aI9917
aI12732
atp382
s(I21
S'D'
tp383
((lp384
I411
aI480
aI423
a(lp385
I319
aI379
aI598
atp386
s(I26
S'M'
tp387
((lp388
I243
aI276
aI223
a(lp389
I295
aI333
aI556
atp390
s(I54
S'C'
tp391
((lp392
I710
aI689
aI541
a(lp393
I1059
aI870
aI1099
atp394
s(I22
S'P'
tp395
((lp396
I3257
aI3661
aI3288
a(lp397
I4289
aI4768
aI7083
atp398
s(I34
S'V'
tp399
((lp400
I1079
aI1030
aI538
a(lp401
I3703
aI3270
aI3172
atp402
s(I73
S'E'
tp403
((lp404
I0
aI0
aI0
a(lp405
I13
aI10
aI13
atp406
s(I40
S'G'
tp407
((lp408
I5603
aI4741
aI4123
a(lp409
I3041
aI2740
aI3599
atp410
s(I4
S'G'
tp411
((lp412
I60
aI29
aI11
a(lp413
I54
aI67
aI50
atp414
s(I24
S'F'
tp415
((lp416
I414
aI412
aI405
a(lp417
I557
aI519
aI798
atp418
s(I72
S'K'
tp419
((lp420
I1505
aI1349
aI849
a(lp421
I1345
aI1186
aI1325
atp422
s(I67
S'G'
tp423
((lp424
I1311
aI1043
aI341
a(lp425
I1460
aI825
aI495
atp426
s(I26
S'K'
tp427
((lp428
I0
aI0
aI0
a(lp429
I2
aI0
aI0
atp430
s(I74
S'A'
tp431
((lp432
I22
aI10
aI3
a(lp433
I25
aI11
aI4
atp434
s(I59
S'W'
tp435
((lp436
I78
aI72
aI62
a(lp437
I207
aI244
aI354
atp438
s(I28
S'E'
tp439
((lp440
I619
aI685
aI653
a(lp441
I734
aI887
aI1231
atp442
s(I41
S'V'
tp443
((lp444
I1480
aI692
aI372
a(lp445
I2459
aI1336
aI1128
atp446
s(I10
S'T'
tp447
((lp448
I1
aI1
aI0
a(lp449
I12
aI1
aI2
atp450
s(I53
S'K'
tp451
((lp452
I325
aI340
aI352
a(lp453
I317
aI290
aI498
atp454
s(I16
S'P'
tp455
((lp456
I6346
aI7372
aI6876
a(lp457
I8530
aI9706
aI14093
atp458
s(I8
S'Y'
tp459
((lp460
I1
aI1
aI1
a(lp461
I5
aI0
aI0
atp462
s(I16
S'K'
tp463
((lp464
I1359
aI1502
aI1277
a(lp465
I1552
aI1649
aI2424
atp466
s(I30
S'V'
tp467
((lp468
I2862
aI3239
aI2852
a(lp469
I4271
aI4626
aI6728
atp470
s(I37
S'R'
tp471
((lp472
I3058
aI3660
aI2948
a(lp473
I2710
aI2970
aI4013
atp474
s(I26
S'I'
tp475
((lp476
I2265
aI2537
aI2332
a(lp477
I2119
aI2354
aI3369
atp478
s(I5
S'W'
tp479
((lp480
I0
aI0
aI0
a(lp481
I0
aI0
aI0
atp482
s(I75
S'N'
tp483
((lp484
I19
aI5
aI1
a(lp485
I20
aI16
aI13
atp486
s(I43
S'R'
tp487
((lp488
I22
aI6
aI0
a(lp489
I20
aI5
aI6
atp490
s(I19
S'T'
tp491
((lp492
I2470
aI2644
aI2231
a(lp493
I2553
aI2873
aI4200
atp494
s(I20
S'W'
tp495
((lp496
I375
aI424
aI399
a(lp497
I512
aI580
aI774
atp498
s(I75
S'L'
tp499
((lp500
I100
aI22
aI5
a(lp501
I83
aI23
aI8
atp502
s(I73
S'I'
tp503
((lp504
I2677
aI1810
aI814
a(lp505
I1778
aI984
aI744
atp506
s(I13
S'Q'
tp507
((lp508
I2267
aI2552
aI2062
a(lp509
I1655
aI1748
aI2203
atp510
s(I48
S'N'
tp511
((lp512
I259
aI89
aI29
a(lp513
I352
aI82
aI34
atp514
s(I76
S'H'
tp515
((lp516
I7
aI0
aI0
a(lp517
I3
aI2
aI0
atp518
s(I67
S'Y'
tp519
((lp520
I78
aI35
aI14
a(lp521
I52
aI11
aI7
atp522
s(I69
S'S'
tp523
((lp524
I829
aI331
aI92
a(lp525
I767
aI252
aI138
atp526
s(I57
S'F'
tp527
((lp528
I1360
aI1483
aI1256
a(lp529
I3264
aI3469
aI5224
atp530
s(I52
S'D'
tp531
((lp532
I374
aI425
aI402
a(lp533
I366
aI387
aI577
atp534
s(I34
S'P'
tp535
((lp536
I357
aI108
aI35
a(lp537
I195
aI91
aI118
atp538
s(I46
S'F'
tp539
((lp540
I1381
aI1224
aI761
a(lp541
I4370
aI3837
aI4033
atp542
s(I75
S'A'
tp543
((lp544
I22
aI5
aI0
a(lp545
I21
aI3
aI0
atp546
s(I62
S'P'
tp547
((lp548
I4174
aI4144
aI3836
a(lp549
I7025
aI7692
aI10675
atp550
s(I65
S'R'
tp551
((lp552
I2996
aI3312
aI2413
a(lp553
I12006
aI11531
aI14232
atp554
s(I39
S'P'
tp555
((lp556
I1337
aI1598
aI1134
a(lp557
I1602
aI1643
aI2101
atp558
s(I62
S'F'
tp559
((lp560
I1080
aI1207
aI1156
a(lp561
I1419
aI1504
aI2359
atp562
s(I21
S'L'
tp563
((lp564
I1528
aI1822
aI1614
a(lp565
I2072
aI2362
aI3473
atp566
s(I14
S'W'
tp567
((lp568
I0
aI0
aI0
a(lp569
I1
aI0
aI0
atp570
s(I69
S'F'
tp571
((lp572
I1801
aI2401
aI2169
a(lp573
I2235
aI2541
aI3504
atp574
s(I37
S'L'
tp575
((lp576
I5035
aI5884
aI5698
a(lp577
I5313
aI6439
aI9246
atp578
s(I76
S'E'
tp579
((lp580
I10
aI0
aI2
a(lp581
I16
aI11
aI5
atp582
s(I50
S'R'
tp583
((lp584
I7
aI8
aI7
a(lp585
I5
aI3
aI1
atp586
s(I25
S'W'
tp587
((lp588
I1113
aI1356
aI1216
a(lp589
I1561
aI1880
aI2456
atp590
s(I73
S'M'
tp591
((lp592
I38
aI7
aI2
a(lp593
I76
aI16
aI5
atp594
s(I39
S'R'
tp595
((lp596
I443
aI330
aI207
a(lp597
I322
aI264
aI330
atp598
s(I56
g42
tp599
((lp600
I218
aI64
aI25
a(lp601
I40
aI26
aI8
atp602
s(I52
S'S'
tp603
((lp604
I2543
aI2997
aI2601
a(lp605
I4127
aI4648
aI6584
atp606
s(I31
S'T'
tp607
((lp608
I6140
aI6762
aI6250
a(lp609
I5180
aI5789
aI8645
atp610
s(I48
S'S'
tp611
((lp612
I425
aI171
aI37
a(lp613
I1042
aI230
aI87
atp614
s(I50
S'M'
tp615
((lp616
I629
aI652
aI574
a(lp617
I1252
aI1291
aI1902
atp618
s(I74
S'I'
tp619
((lp620
I3
aI0
aI0
a(lp621
I0
aI0
aI0
atp622
s(I50
S'Y'
tp623
((lp624
I0
aI0
aI0
a(lp625
I0
aI0
aI0
atp626
s(I9
S'D'
tp627
((lp628
I319
aI160
aI50
a(lp629
I1123
aI430
aI190
atp630
s(I75
S'S'
tp631
((lp632
I0
aI1
aI0
a(lp633
I0
aI0
aI0
atp634
s(I61
S'N'
tp635
((lp636
I7
aI3
aI0
a(lp637
I30
aI23
aI39
atp638
s(I7
S'I'
tp639
((lp640
I512
aI337
aI85
a(lp641
I264
aI139
aI58
atp642
s(I62
S'T'
tp643
((lp644
I8289
aI9847
aI8953
a(lp645
I11037
aI12501
aI18557
atp646
s(I27
S'T'
tp647
((lp648
I4657
aI3589
aI2579
a(lp649
I2889
aI2487
aI2893
atp650
s(I16
S'H'
tp651
((lp652
I2277
aI2623
aI2431
a(lp653
I2298
aI2658
aI4119
atp654
s(I74
S'R'
tp655
((lp656
I3262
aI3661
aI3353
a(lp657
I3325
aI3736
aI5368
atp658
s(I16
S'C'
tp659
((lp660
I1194
aI1434
aI1246
a(lp661
I1084
aI1153
aI1765
atp662
s(I18
S'P'
tp663
((lp664
I2254
aI2662
aI2428
a(lp665
I2516
aI2958
aI4454
atp666
s(I76
S'A'
tp667
((lp668
I0
aI0
aI0
a(lp669
I1
aI3
aI0
atp670
s(I63
S'R'
tp671
((lp672
I992
aI1073
aI615
a(lp673
I783
aI575
aI575
atp674
s(I66
S'T'
tp675
((lp676
I751
aI911
aI806
a(lp677
I1096
aI1160
aI1703
atp678
s(I27
g42
tp679
((lp680
I809
aI315
aI183
a(lp681
I323
aI283
aI312
atp682
s(I45
S'I'
tp683
((lp684
I4675
aI5492
aI4908
a(lp685
I12244
aI13351
aI18583
atp686
s(I76
S'V'
tp687
((lp688
I9
aI3
aI0
a(lp689
I6
aI3
aI0
atp690
s(I74
S'P'
tp691
((lp692
I0
aI0
aI0
a(lp693
I16
aI7
aI18
atp694
s(I55
S'P'
tp695
((lp696
I2139
aI2362
aI1893
a(lp697
I3564
aI3721
aI5125
atp698
s(I39
S'G'
tp699
((lp700
I1721
aI1839
aI1342
a(lp701
I1594
aI1605
aI2112
atp702
s(I34
S'L'
tp703
((lp704
I324
aI289
aI97
a(lp705
I1909
aI1185
aI859
atp706
s(I28
S'F'
tp707
((lp708
I416
aI383
aI237
a(lp709
I492
aI465
aI597
atp710
s(I40
S'Q'
tp711
((lp712
I849
aI927
aI777
a(lp713
I842
aI830
aI1337
atp714
s(I51
S'T'
tp715
((lp716
I210
aI357
aI258
a(lp717
I296
aI387
aI469
atp718
s(I50
S'L'
tp719
((lp720
I1067
aI1158
aI1105
a(lp721
I1419
aI1568
aI2308
atp722
s(I66
S'R'
tp723
((lp724
I21
aI15
aI7
a(lp725
I48
aI20
aI5
atp726
s(I9
S'C'
tp727
((lp728
I2564
aI2572
aI2408
a(lp729
I1851
aI1929
aI2718
atp730
s(I9
S'H'
tp731
((lp732
I1609
aI1652
aI1330
a(lp733
I1467
aI1329
aI1804
atp734
s(I23
S'H'
tp735
((lp736
I112
aI52
aI24
a(lp737
I67
aI19
aI9
atp738
s(I2
S'N'
tp739
((lp740
I64
aI56
aI47
a(lp741
I241
aI248
aI296
atp742
s(I55
S'R'
tp743
((lp744
I4350
aI5036
aI4387
a(lp745
I5133
aI5778
aI8295
atp746
s(I18
S'W'
tp747
((lp748
I613
aI602
aI560
a(lp749
I583
aI598
aI864
atp750
s(I62
S'N'
tp751
((lp752
I3459
aI4047
aI3496
a(lp753
I3330
aI3787
aI5509
atp754
s(I33
S'M'
tp755
((lp756
I385
aI353
aI255
a(lp757
I341
aI392
aI519
atp758
s(I42
g42
tp759
((lp760
I227
aI52
aI20
a(lp761
I47
aI16
aI16
atp762
s(I5
S'R'
tp763
((lp764
I4
aI3
aI1
a(lp765
I11
aI9
aI2
atp766
s(I76
S'S'
tp767
((lp768
I12
aI2
aI0
a(lp769
I13
aI1
aI3
atp770
s(I54
S'S'
tp771
((lp772
I1749
aI1904
aI1620
a(lp773
I2747
aI2806
aI3719
atp774
s(I50
S'S'
tp775
((lp776
I3
aI2
aI0
a(lp777
I0
aI0
aI0
atp778
s(I63
S'G'
tp779
((lp780
I1438
aI1291
aI790
a(lp781
I787
aI567
aI577
atp782
s(I55
S'I'
tp783
((lp784
I1148
aI1358
aI1199
a(lp785
I1483
aI1603
aI2383
atp786
s(I56
S'A'
tp787
((lp788
I271
aI155
aI101
a(lp789
I263
aI147
aI182
atp790
s(I10
S'E'
tp791
((lp792
I76
aI51
aI12
a(lp793
I230
aI108
aI60
atp794
s(I57
S'R'
tp795
((lp796
I3319
aI3824
aI3387
a(lp797
I4171
aI4565
aI6783
atp798
s(I9
S'G'
tp799
((lp800
I6030
aI6849
aI5560
a(lp801
I6411
aI6221
aI7768
atp802
s(I41
S'F'
tp803
((lp804
I280
aI161
aI36
a(lp805
I245
aI127
aI66
atp806
s(I9
S'L'
tp807
((lp808
I5512
aI5253
aI4659
a(lp809
I1583
aI1590
aI2139
atp810
s(I13
g42
tp811
((lp812
I534
aI105
aI30
a(lp813
I131
aI62
aI24
atp814
s(I61
S'F'
tp815
((lp816
I1790
aI1374
aI827
a(lp817
I1570
aI1212
aI1216
atp818
s(I46
S'R'
tp819
((lp820
I4471
aI3431
aI1856
a(lp821
I6564
aI4889
aI4568
atp822
s(I57
g42
tp823
((lp824
I276
aI43
aI26
a(lp825
I59
aI14
aI11
atp826
s(I36
S'Q'
tp827
((lp828
I1897
aI1147
aI474
a(lp829
I1286
aI671
aI528
atp830
s(I25
S'L'
tp831
((lp832
I5195
aI6247
aI5421
a(lp833
I5854
aI6444
aI9474
atp834
s(I30
S'P'
tp835
((lp836
I5
aI5
aI7
a(lp837
I15
aI2
aI5
atp838
s(I8
S'I'
tp839
((lp840
I1932
aI1887
aI1583
a(lp841
I1080
aI1050
aI1362
atp842
s(I56
S'C'
tp843
((lp844
I1009
aI1147
aI936
a(lp845
I1527
aI1714
aI2366
atp846
s(I45
S'R'
tp847
((lp848
I2260
aI2616
aI1814
a(lp849
I5047
aI4875
aI5753
atp850
s(I46
S'C'
tp851
((lp852
I4056
aI4943
aI3843
a(lp853
I8556
aI8540
aI11413
atp854
s(I30
S'F'
tp855
((lp856
I2685
aI2901
aI2768
a(lp857
I2499
aI2434
aI3547
atp858
s(I10
S'C'
tp859
((lp860
I20
aI15
aI7
a(lp861
I19
aI13
aI9
atp862
s(I69
S'E'
tp863
((lp864
I141
aI29
aI11
a(lp865
I263
aI119
aI99
atp866
s(I5
S'G'
tp867
((lp868
I151
aI115
aI51
a(lp869
I93
aI100
aI142
atp870
s(I2
S'I'
tp871
((lp872
I37
aI24
aI16
a(lp873
I91
aI77
aI105
atp874
s(I12
S'M'
tp875
((lp876
I7
aI0
aI0
a(lp877
I8
aI7
aI5
atp878
s(I6
S'T'
tp879
((lp880
I652
aI523
aI389
a(lp881
I676
aI562
aI554
atp882
s(I18
S'R'
tp883
((lp884
I2813
aI3441
aI2913
a(lp885
I2812
aI3242
aI4708
atp886
s(I22
S'G'
tp887
((lp888
I15595
aI18969
aI17319
a(lp889
I18779
aI21746
aI31841
atp890
s(I57
S'C'
tp891
((lp892
I712
aI694
aI628
a(lp893
I772
aI889
aI1287
atp894
s(I24
S'S'
tp895
((lp896
I1809
aI2107
aI1823
a(lp897
I2053
aI2245
aI3157
atp898
s(I36
S'S'
tp899
((lp900
I40
aI13
aI6
a(lp901
I26
aI11
aI11
atp902
s(I40
S'H'
tp903
((lp904
I580
aI646
aI532
a(lp905
I521
aI579
aI731
atp906
s(I53
S'H'
tp907
((lp908
I1073
aI1274
aI1064
a(lp909
I1811
aI2040
aI3103
atp910
s(I54
S'H'
tp911
((lp912
I90
aI69
aI45
a(lp913
I104
aI110
aI130
atp914
s(I33
S'G'
tp915
((lp916
I4739
aI4841
aI4039
a(lp917
I7619
aI7273
aI10097
atp918
s(I34
S'D'
tp919
((lp920
I903
aI954
aI866
a(lp921
I897
aI1036
aI1549
atp922
s(I69
S'C'
tp923
((lp924
I2502
aI2440
aI1866
a(lp925
I2348
aI2151
aI2580
atp926
s(I57
S'V'
tp927
((lp928
I2680
aI2928
aI2603
a(lp929
I2978
aI3520
aI5121
atp930
s(I12
S'T'
tp931
((lp932
I2079
aI2469
aI2170
a(lp933
I1988
aI2168
aI3176
atp934
s(I30
g42
tp935
((lp936
I374
aI109
aI22
a(lp937
I75
aI36
aI8
atp938
s(I72
S'L'
tp939
((lp940
I461
aI168
aI37
a(lp941
I241
aI57
aI34
atp942
s(I71
S'M'
tp943
((lp944
I1569
aI1505
aI1376
a(lp945
I1348
aI1270
aI1694
atp946
s(I32
S'P'
tp947
((lp948
I5862
aI3074
aI1149
a(lp949
I4873
aI2254
aI1355
atp950
s(I57
S'A'
tp951
((lp952
I1549
aI1871
aI1558
a(lp953
I2296
aI2524
aI3566
atp954
s(I46
S'V'
tp955
((lp956
I2720
aI2754
aI1452
a(lp957
I7680
aI6918
aI7623
atp958
s(I29
S'G'
tp959
((lp960
I7683
aI9099
aI8331
a(lp961
I12236
aI13977
aI20762
atp962
s(I14
S'Q'
tp963
((lp964
I11
aI6
aI4
a(lp965
I112
aI123
aI127
atp966
s(I30
S'T'
tp967
((lp968
I260
aI119
aI55
a(lp969
I172
aI67
aI59
atp970
s(I21
S'W'
tp971
((lp972
I375
aI434
aI405
a(lp973
I465
aI579
aI775
atp974
s(I59
S'R'
tp975
((lp976
I8
aI0
aI0
a(lp977
I1
aI1
aI0
atp978
s(I36
g42
tp979
((lp980
I1042
aI190
aI56
a(lp981
I253
aI135
aI115
atp982
s(I58
S'E'
tp983
((lp984
I1283
aI1155
aI798
a(lp985
I2511
aI1912
aI2055
atp986
s(I9
S'R'
tp987
((lp988
I569
aI501
aI246
a(lp989
I917
aI745
aI716
atp990
s(I63
S'F'
tp991
((lp992
I572
aI566
aI322
a(lp993
I540
aI437
aI369
atp994
s(I37
S'Q'
tp995
((lp996
I1914
aI2181
aI2017
a(lp997
I2552
aI2982
aI4329
atp998
s(I24
S'E'
tp999
((lp1000
I1881
aI2259
aI2010
a(lp1001
I1643
aI1864
aI2696
atp1002
s(I52
S'G'
tp1003
((lp1004
I2376
aI2714
aI2421
a(lp1005
I2573
aI2919
aI4035
atp1006
s(I47
S'H'
tp1007
((lp1008
I9
aI8
aI1
a(lp1009
I13
aI3
aI0
atp1010
s(I36
S'T'
tp1011
((lp1012
I3643
aI2655
aI1573
a(lp1013
I5845
aI3990
aI3978
atp1014
s(I13
S'T'
tp1015
((lp1016
I2795
aI3023
aI2680
a(lp1017
I2475
aI2615
aI3671
atp1018
s(I56
S'I'
tp1019
((lp1020
I255
aI303
aI304
a(lp1021
I187
aI195
aI288
atp1022
s(I18
S'M'
tp1023
((lp1024
I365
aI364
aI371
a(lp1025
I538
aI596
aI905
atp1026
s(I31
S'D'
tp1027
((lp1028
I1314
aI1439
aI1457
a(lp1029
I1374
aI1544
aI2347
atp1030
s(I10
S'M'
tp1031
((lp1032
I13
aI10
aI1
a(lp1033
I28
aI15
aI11
atp1034
s(I58
S'C'
tp1035
((lp1036
I262
aI324
aI265
a(lp1037
I489
aI495
aI654
atp1038
s(I50
S'I'
tp1039
((lp1040
I1607
aI1770
aI1613
a(lp1041
I2726
aI3048
aI4383
atp1042
s(I67
S'N'
tp1043
((lp1044
I28
aI10
aI6
a(lp1045
I40
aI24
aI20
atp1046
s(I32
S'T'
tp1047
((lp1048
I4706
aI5371
aI4382
a(lp1049
I9352
aI9999
aI13836
atp1050
s(I7
g42
tp1051
((lp1052
I249
aI47
aI10
a(lp1053
I40
aI11
aI9
atp1054
s(I8
S'F'
tp1055
((lp1056
I14
aI7
aI0
a(lp1057
I28
aI6
aI4
atp1058
s(I36
S'Y'
tp1059
((lp1060
I128
aI61
aI31
a(lp1061
I242
aI115
aI54
atp1062
s(I41
S'Y'
tp1063
((lp1064
I13
aI3
aI2
a(lp1065
I20
aI7
aI3
atp1066
s(I56
S'K'
tp1067
((lp1068
I0
aI0
aI0
a(lp1069
I1
aI0
aI0
atp1070
s(I40
S'N'
tp1071
((lp1072
I942
aI1041
aI1029
a(lp1073
I532
aI572
aI904
atp1074
s(I75
S'D'
tp1075
((lp1076
I25
aI2
aI2
a(lp1077
I21
aI3
aI3
atp1078
s(I58
S'A'
tp1079
((lp1080
I292
aI344
aI275
a(lp1081
I430
aI423
aI573
atp1082
s(I69
S'M'
tp1083
((lp1084
I262
aI283
aI255
a(lp1085
I112
aI150
aI243
atp1086
s(I76
S'G'
tp1087
((lp1088
I3819
aI4345
aI3837
a(lp1089
I3524
aI3896
aI5901
atp1090
s(I9
S'V'
tp1091
((lp1092
I6448
aI7074
aI6577
a(lp1093
I4064
aI4893
aI6982
atp1094
s(I15
S'G'
tp1095
((lp1096
I99
aI35
aI9
a(lp1097
I36
aI7
aI7
atp1098
s(I6
S'L'
tp1099
((lp1100
I1227
aI814
aI446
a(lp1101
I1239
aI872
aI813
atp1102
s(I15
S'Q'
tp1103
((lp1104
I940
aI1129
aI850
a(lp1105
I1132
aI1130
aI1533
atp1106
s(I37
S'K'
tp1107
((lp1108
I1432
aI1657
aI1453
a(lp1109
I755
aI840
aI1239
atp1110
s(I53
S'P'
tp1111
((lp1112
I2066
aI2329
aI2265
a(lp1113
I2429
aI2620
aI3844
atp1114
s(I38
S'Q'
tp1115
((lp1116
I768
aI933
aI850
a(lp1117
I810
aI994
aI1370
atp1118
s(I15
S'V'
tp1119
((lp1120
I3112
aI3758
aI3399
a(lp1121
I4548
aI5216
aI7504
atp1122
s(I69
S'K'
tp1123
((lp1124
I46
aI20
aI8
a(lp1125
I23
aI9
aI2
atp1126
s(I8
g42
tp1127
((lp1128
I634
aI131
aI47
a(lp1129
I143
aI46
aI20
atp1130
s(I28
S'V'
tp1131
((lp1132
I2519
aI2616
aI1933
a(lp1133
I3104
aI3054
aI4069
atp1134
s(I72
S'E'
tp1135
((lp1136
I52
aI19
aI2
a(lp1137
I33
aI10
aI4
atp1138
s(I70
S'S'
tp1139
((lp1140
I204
aI47
aI12
a(lp1141
I136
aI26
aI15
atp1142
s(I74
S'N'
tp1143
((lp1144
I7
aI3
aI2
a(lp1145
I12
aI2
aI4
atp1146
s(I45
S'F'
tp1147
((lp1148
I1171
aI1305
aI1179
a(lp1149
I1501
aI1649
aI2510
atp1150
s(I44
S'T'
tp1151
((lp1152
I1004
aI380
aI91
a(lp1153
I521
aI149
aI73
atp1154
s(I15
S'C'
tp1155
((lp1156
I682
aI753
aI685
a(lp1157
I718
aI816
aI1149
atp1158
s(I50
S'C'
tp1159
((lp1160
I731
aI851
aI668
a(lp1161
I1048
aI1093
aI1604
atp1162
s(I63
S'N'
tp1163
((lp1164
I82
aI89
aI53
a(lp1165
I74
aI49
aI61
atp1166
s(I42
S'Y'
tp1167
((lp1168
I1
aI0
aI0
a(lp1169
I1
aI0
aI0
atp1170
s(I24
S'M'
tp1171
((lp1172
I168
aI202
aI176
a(lp1173
I125
aI115
aI224
atp1174
s(I55
S'Y'
tp1175
((lp1176
I1852
aI2036
aI1665
a(lp1177
I1875
aI2282
aI3312
atp1178
s(I32
S'K'
tp1179
((lp1180
I612
aI651
aI444
a(lp1181
I1277
aI1238
aI1503
atp1182
s(I59
S'A'
tp1183
((lp1184
I2001
aI1667
aI1243
a(lp1185
I2944
aI2226
aI2498
atp1186
s(I15
S'L'
tp1187
((lp1188
I5199
aI5801
aI5235
a(lp1189
I5125
aI5963
aI8570
atp1190
s(I56
S'Q'
tp1191
((lp1192
I0
aI0
aI0
a(lp1193
I0
aI0
aI0
atp1194
s(I31
S'L'
tp1195
((lp1196
I3196
aI3344
aI3069
a(lp1197
I1472
aI1630
aI2360
atp1198
s(I67
S'R'
tp1199
((lp1200
I415
aI76
aI20
a(lp1201
I136
aI47
aI25
atp1202
s(I35
S'E'
tp1203
((lp1204
I371
aI331
aI191
a(lp1205
I315
aI221
aI154
atp1206
s(I57
S'M'
tp1207
((lp1208
I262
aI291
aI269
a(lp1209
I525
aI531
aI757
atp1210
s(I40
S'R'
tp1211
((lp1212
I373
aI274
aI171
a(lp1213
I205
aI153
aI152
atp1214
s(I34
S'W'
tp1215
((lp1216
I0
aI0
aI0
a(lp1217
I0
aI0
aI0
atp1218
s(I68
S'T'
tp1219
((lp1220
I402
aI205
aI72
a(lp1221
I1344
aI601
aI276
atp1222
s(I7
S'V'
tp1223
((lp1224
I941
aI677
aI325
a(lp1225
I935
aI649
aI571
atp1226
s(I21
S'R'
tp1227
((lp1228
I444
aI291
aI180
a(lp1229
I276
aI231
aI210
atp1230
s(I56
S'S'
tp1231
((lp1232
I0
aI0
aI0
a(lp1233
I1
aI2
aI5
atp1234
s(I72
S'V'
tp1235
((lp1236
I495
aI187
aI28
a(lp1237
I439
aI147
aI80
atp1238
s(I28
S'K'
tp1239
((lp1240
I756
aI926
aI746
a(lp1241
I1294
aI1472
aI2189
atp1242
s(I46
S'S'
tp1243
((lp1244
I16951
aI20236
aI19066
a(lp1245
I30068
aI34293
aI51922
atp1246
s(I44
S'P'
tp1247
((lp1248
I7
aI0
aI2
a(lp1249
I11
aI7
aI10
atp1250
s(I2
S'Y'
tp1251
((lp1252
I18
aI16
aI21
a(lp1253
I34
aI18
aI33
atp1254
s(I6
S'D'
tp1255
((lp1256
I20
aI18
aI2
a(lp1257
I64
aI48
aI28
atp1258
s(I57
S'S'
tp1259
((lp1260
I2815
aI2978
aI2659
a(lp1261
I3243
aI3541
aI5341
atp1262
s(I59
S'E'
tp1263
((lp1264
I1
aI0
aI0
a(lp1265
I0
aI1
aI0
atp1266
s(I15
S'H'
tp1267
((lp1268
I117
aI86
aI55
a(lp1269
I87
aI47
aI50
atp1270
s(I13
S'H'
tp1271
((lp1272
I10851
aI10645
aI8878
a(lp1273
I8898
aI8463
aI10788
atp1274
s(I38
S'I'
tp1275
((lp1276
I3472
aI3947
aI3760
a(lp1277
I1938
aI2391
aI3389
atp1278
s(I62
S'V'
tp1279
((lp1280
I4613
aI5376
aI5024
a(lp1281
I5516
aI6321
aI9598
atp1282
s(I12
S'D'
tp1283
((lp1284
I470
aI320
aI314
a(lp1285
I36
aI41
aI35
atp1286
s(I60
S'A'
tp1287
((lp1288
I6324
aI7219
aI6426
a(lp1289
I7318
aI7652
aI11294
atp1290
s(I7
S'C'
tp1291
((lp1292
I472
aI410
aI399
a(lp1293
I923
aI951
aI1305
atp1294
s(I57
S'Q'
tp1295
((lp1296
I739
aI765
aI714
a(lp1297
I793
aI876
aI1264
atp1298
s(I23
S'P'
tp1299
((lp1300
I5037
aI5421
aI4850
a(lp1301
I6407
aI6711
aI9701
atp1302
s(I25
S'H'
tp1303
((lp1304
I765
aI832
aI795
a(lp1305
I788
aI904
aI1326
atp1306
s(I29
S'W'
tp1307
((lp1308
I621
aI728
aI627
a(lp1309
I1389
aI1539
aI2202
atp1310
s(I31
S'W'
tp1311
((lp1312
I832
aI772
aI672
a(lp1313
I449
aI512
aI709
atp1314
s(I30
S'D'
tp1315
((lp1316
I1
aI1
aI0
a(lp1317
I1
aI2
aI1
atp1318
s(I35
S'P'
tp1319
((lp1320
I2364
aI2053
aI956
a(lp1321
I2448
aI1986
aI1307
atp1322
s(I44
S'L'
tp1323
((lp1324
I3020
aI3438
aI3121
a(lp1325
I3686
aI4109
aI5607
atp1326
s(I56
S'D'
tp1327
((lp1328
I0
aI0
aI0
a(lp1329
I0
aI0
aI0
atp1330
s(I22
S'E'
tp1331
((lp1332
I3304
aI4162
aI3779
a(lp1333
I5377
aI6120
aI8528
atp1334
s(I13
S'D'
tp1335
((lp1336
I1778
aI1614
aI1199
a(lp1337
I1769
aI1534
aI1754
atp1338
s(I56
S'Y'
tp1339
((lp1340
I0
aI0
aI0
a(lp1341
I0
aI0
aI0
atp1342
s(I20
S'N'
tp1343
((lp1344
I565
aI683
aI591
a(lp1345
I576
aI675
aI1003
atp1346
s(I60
g42
tp1347
((lp1348
I78
aI17
aI6
a(lp1349
I14
aI7
aI4
atp1350
s(I58
S'S'
tp1351
((lp1352
I281
aI222
aI153
a(lp1353
I713
aI512
aI532
atp1354
s(I10
S'G'
tp1355
((lp1356
I3107
aI3389
aI3065
a(lp1357
I3450
aI3773
aI5346
atp1358
s(I65
S'E'
tp1359
((lp1360
I1359
aI1126
aI694
a(lp1361
I2849
aI1994
aI1989
atp1362
s(I47
S'G'
tp1363
((lp1364
I7827
aI8842
aI8113
a(lp1365
I8666
aI9535
aI14381
atp1366
s(I70
S'V'
tp1367
((lp1368
I2082
aI2302
aI2142
a(lp1369
I2151
aI2287
aI3397
atp1370
s(I57
S'D'
tp1371
((lp1372
I815
aI973
aI853
a(lp1373
I1552
aI1742
aI2697
atp1374
s(I41
S'I'
tp1375
((lp1376
I1288
aI1274
aI1183
a(lp1377
I2690
aI2740
aI3983
atp1378
s(I28
S'C'
tp1379
((lp1380
I189
aI125
aI111
a(lp1381
I139
aI130
aI209
atp1382
s(I51
S'W'
tp1383
((lp1384
I11
aI11
aI12
a(lp1385
I35
aI30
aI33
atp1386
s(I64
S'H'
tp1387
((lp1388
I1142
aI1274
aI1085
a(lp1389
I921
aI919
aI1246
atp1390
s(I58
S'Q'
tp1391
((lp1392
I545
aI474
aI253
a(lp1393
I760
aI508
aI505
atp1394
s(I44
S'H'
tp1395
((lp1396
I73
aI24
aI6
a(lp1397
I40
aI15
aI15
atp1398
s(I25
S'F'
tp1399
((lp1400
I722
aI958
aI866
a(lp1401
I442
aI546
aI769
atp1402
s(I75
g42
tp1403
((lp1404
I12
aI4
aI2
a(lp1405
I8
aI1
aI1
atp1406
s(I2
S'P'
tp1407
((lp1408
I495
aI491
aI352
a(lp1409
I2560
aI2235
aI2926
atp1410
s(I14
S'F'
tp1411
((lp1412
I109
aI93
aI56
a(lp1413
I108
aI96
aI112
atp1414
s(I50
S'G'
tp1415
((lp1416
I3
aI0
aI0
a(lp1417
I19
aI22
aI25
atp1418
s(I52
S'R'
tp1419
((lp1420
I5565
aI6313
aI5550
a(lp1421
I5352
aI6308
aI9139
atp1422
s(I42
S'V'
tp1423
((lp1424
I1213
aI468
aI146
a(lp1425
I961
aI328
aI152
atp1426
s(I21
S'C'
tp1427
((lp1428
I1742
aI2047
aI1914
a(lp1429
I1512
aI1734
aI2565
atp1430
s(I33
S'I'
tp1431
((lp1432
I1958
aI1954
aI1764
a(lp1433
I2069
aI2121
aI3036
atp1434
s(I31
S'V'
tp1435
((lp1436
I9574
aI9961
aI9052
a(lp1437
I4822
aI5451
aI7754
atp1438
s(I57
S'H'
tp1439
((lp1440
I2023
aI2270
aI2097
a(lp1441
I2888
aI3246
aI4872
atp1442
s(I30
S'L'
tp1443
((lp1444
I6287
aI6966
aI6511
a(lp1445
I5187
aI5876
aI8962
atp1446
s(I5
S'M'
tp1447
((lp1448
I457
aI454
aI412
a(lp1449
I395
aI464
aI657
atp1450
s(I64
S'L'
tp1451
((lp1452
I2457
aI2859
aI2353
a(lp1453
I4133
aI4397
aI5886
atp1454
s(I44
S'D'
tp1455
((lp1456
I87
aI14
aI4
a(lp1457
I24
aI8
aI1
atp1458
s(I56
S'P'
tp1459
((lp1460
I10
aI2
aI0
a(lp1461
I6
aI1
aI1
atp1462
s(I56
S'L'
tp1463
((lp1464
I859
aI929
aI855
a(lp1465
I800
aI886
aI1271
atp1466
s(I55
S'M'
tp1467
((lp1468
I422
aI479
aI385
a(lp1469
I408
aI452
aI711
atp1470
s(I47
S'M'
tp1471
((lp1472
I0
aI0
aI0
a(lp1473
I1
aI0
aI0
atp1474
s(I19
S'I'
tp1475
((lp1476
I1542
aI1669
aI1427
a(lp1477
I2101
aI2254
aI3210
atp1478
s(I45
g42
tp1479
((lp1480
I595
aI111
aI30
a(lp1481
I128
aI72
aI26
atp1482
s(I58
S'F'
tp1483
((lp1484
I29
aI29
aI12
a(lp1485
I35
aI22
aI16
atp1486
s(I43
S'S'
tp1487
((lp1488
I0
aI0
aI0
a(lp1489
I0
aI0
aI0
atp1490
s(I64
S'N'
tp1491
((lp1492
I1486
aI1743
aI1319
a(lp1493
I2519
aI2428
aI2910
atp1494
s(I42
S'R'
tp1495
((lp1496
I7152
aI7961
aI7134
a(lp1497
I7055
aI7617
aI11519
atp1498
s(I7
S'E'
tp1499
((lp1500
I377
aI178
aI84
a(lp1501
I644
aI385
aI388
atp1502
s(I27
S'F'
tp1503
((lp1504
I31
aI17
aI1
a(lp1505
I13
aI4
aI0
atp1506
s(I47
S'F'
tp1507
((lp1508
I3
aI9
aI8
a(lp1509
I3
aI2
aI0
atp1510
s(I70
S'N'
tp1511
((lp1512
I58
aI15
aI8
a(lp1513
I59
aI13
aI7
atp1514
s(I44
S'W'
tp1515
((lp1516
I2
aI3
aI2
a(lp1517
I2
aI0
aI4
atp1518
s(I68
S'D'
tp1519
((lp1520
I5
aI3
aI1
a(lp1521
I17
aI8
aI1
atp1522
s(I31
S'R'
tp1523
((lp1524
I2192
aI2553
aI2165
a(lp1525
I2444
aI2775
aI4018
atp1526
s(I63
g42
tp1527
((lp1528
I196
aI32
aI13
a(lp1529
I64
aI24
aI11
atp1530
s(I61
g42
tp1531
((lp1532
I461
aI64
aI24
a(lp1533
I64
aI27
aI15
atp1534
s(I72
S'F'
tp1535
((lp1536
I1451
aI592
aI186
a(lp1537
I1121
aI377
aI211
atp1538
s(I35
S'N'
tp1539
((lp1540
I674
aI803
aI745
a(lp1541
I1167
aI1319
aI1991
atp1542
s(I22
S'C'
tp1543
((lp1544
I1056
aI1220
aI1065
a(lp1545
I1091
aI1251
aI1871
atp1546
s(I42
S'P'
tp1547
((lp1548
I3
aI0
aI0
a(lp1549
I4
aI2
aI5
atp1550
s(I52
S'I'
tp1551
((lp1552
I826
aI920
aI819
a(lp1553
I1102
aI1218
aI1711
atp1554
s(I3
S'Q'
tp1555
((lp1556
I172
aI66
aI24
a(lp1557
I135
aI45
aI25
atp1558
s(I33
S'C'
tp1559
((lp1560
I1015
aI992
aI943
a(lp1561
I1549
aI1611
aI2271
atp1562
s(I65
S'C'
tp1563
((lp1564
I1113
aI1285
aI1035
a(lp1565
I1417
aI1427
aI2055
atp1566
s(I56
S'R'
tp1567
((lp1568
I7
aI8
aI4
a(lp1569
I11
aI3
aI3
atp1570
s(I72
S'Y'
tp1571
((lp1572
I201
aI31
aI14
a(lp1573
I138
aI31
aI10
atp1574
s(I18
g42
tp1575
((lp1576
I789
aI167
aI61
a(lp1577
I232
aI76
aI30
atp1578
s(I23
S'V'
tp1579
((lp1580
I1662
aI1968
aI1676
a(lp1581
I2206
aI2310
aI3251
atp1582
s(I44
S'S'
tp1583
((lp1584
I252
aI76
aI20
a(lp1585
I125
aI23
aI13
atp1586
s(I3
S'S'
tp1587
((lp1588
I11
aI1
aI0
a(lp1589
I2
aI4
aI0
atp1590
s(I21
S'K'
tp1591
((lp1592
I3
aI1
aI0
a(lp1593
I0
aI0
aI0
atp1594
s(I37
S'T'
tp1595
((lp1596
I4410
aI4892
aI4649
a(lp1597
I6075
aI6890
aI10565
atp1598
s(I18
S'S'
tp1599
((lp1600
I3328
aI3690
aI3394
a(lp1601
I3797
aI4291
aI6385
atp1602
s(I60
S'F'
tp1603
((lp1604
I228
aI179
aI118
a(lp1605
I642
aI476
aI423
atp1606
s(I31
S'G'
tp1607
((lp1608
I8246
aI9211
aI8386
a(lp1609
I7300
aI8360
aI12219
atp1610
s(I60
S'P'
tp1611
((lp1612
I1913
aI1485
aI829
a(lp1613
I4631
aI3021
aI2532
atp1614
s(I45
S'S'
tp1615
((lp1616
I6516
aI7104
aI5938
a(lp1617
I10754
aI11223
aI15177
atp1618
s(I31
S'I'
tp1619
((lp1620
I2
aI4
aI1
a(lp1621
I5
aI6
aI5
atp1622
s(I56
S'T'
tp1623
((lp1624
I100
aI70
aI62
a(lp1625
I151
aI118
aI100
atp1626
s(I55
S'E'
tp1627
((lp1628
I438
aI589
aI510
a(lp1629
I653
aI797
aI1159
atp1630
s(I33
S'T'
tp1631
((lp1632
I5857
aI5892
aI5217
a(lp1633
I8631
aI9041
aI13416
atp1634
s(I11
S'K'
tp1635
((lp1636
I367
aI358
aI345
a(lp1637
I329
aI367
aI553
atp1638
s(I32
S'I'
tp1639
((lp1640
I379
aI421
aI318
a(lp1641
I950
aI837
aI1048
atp1642
s(I25
S'R'
tp1643
((lp1644
I5058
aI5660
aI5281
a(lp1645
I5617
aI6421
aI9387
atp1646
s(I35
S'Y'
tp1647
((lp1648
I196
aI123
aI73
a(lp1649
I182
aI122
aI97
atp1650
s(I43
S'K'
tp1651
((lp1652
I3
aI0
aI0
a(lp1653
I0
aI0
aI0
atp1654
s(I29
S'F'
tp1655
((lp1656
I426
aI495
aI400
a(lp1657
I679
aI686
aI985
atp1658
s(I35
g42
tp1659
((lp1660
I780
aI156
aI35
a(lp1661
I160
aI86
aI44
atp1662
s(I33
g42
tp1663
((lp1664
I340
aI64
aI23
a(lp1665
I71
aI33
aI18
atp1666
s(I14
S'R'
tp1667
((lp1668
I252
aI250
aI200
a(lp1669
I1265
aI1183
aI1473
atp1670
s(I3
S'V'
tp1671
((lp1672
I2733
aI3181
aI2983
a(lp1673
I2874
aI3356
aI4835
atp1674
s(I4
S'Q'
tp1675
((lp1676
I11
aI5
aI0
a(lp1677
I7
aI1
aI5
atp1678
s(I70
S'P'
tp1679
((lp1680
I35
aI3
aI1
a(lp1681
I19
aI3
aI6
atp1682
s(I47
S'W'
tp1683
((lp1684
I0
aI0
aI0
a(lp1685
I0
aI0
aI0
atp1686
s(I70
S'F'
tp1687
((lp1688
I0
aI0
aI0
a(lp1689
I1
aI0
aI0
atp1690
s(I8
S'M'
tp1691
((lp1692
I23
aI19
aI10
a(lp1693
I50
aI43
aI30
atp1694
s(I7
S'L'
tp1695
((lp1696
I3218
aI2983
aI2515
a(lp1697
I4198
aI3834
aI4943
atp1698
s(I68
S'L'
tp1699
((lp1700
I0
aI0
aI0
a(lp1701
I2
aI2
aI1
atp1702
s(I63
S'L'
tp1703
((lp1704
I1290
aI1378
aI861
a(lp1705
I1127
aI893
aI1035
atp1706
s(I57
S'T'
tp1707
((lp1708
I2171
aI2491
aI2228
a(lp1709
I2662
aI3031
aI4384
atp1710
s(I2
S'E'
tp1711
((lp1712
I44
aI30
aI16
a(lp1713
I635
aI517
aI614
atp1714
s(I28
S'S'
tp1715
((lp1716
I3312
aI3745
aI3445
a(lp1717
I2699
aI3020
aI4478
atp1718
s(I18
S'N'
tp1719
((lp1720
I2353
aI2595
aI2464
a(lp1721
I2506
aI2786
aI4388
atp1722
s(I4
S'S'
tp1723
((lp1724
I19
aI5
aI1
a(lp1725
I3
aI2
aI1
atp1726
s(I6
S'Y'
tp1727
((lp1728
I306
aI292
aI187
a(lp1729
I635
aI480
aI486
atp1730
s(I6
g42
tp1731
((lp1732
I636
aI141
aI27
a(lp1733
I182
aI77
aI57
atp1734
s(I19
S'F'
tp1735
((lp1736
I961
aI922
aI854
a(lp1737
I1280
aI1341
aI1702
atp1738
s(I54
S'R'
tp1739
((lp1740
I4029
aI4417
aI3921
a(lp1741
I4703
aI5281
aI7533
atp1742
s(I12
S'P'
tp1743
((lp1744
I1040
aI743
aI390
a(lp1745
I430
aI381
aI345
atp1746
s(I26
S'F'
tp1747
((lp1748
I24
aI18
aI13
a(lp1749
I19
aI14
aI19
atp1750
s(I12
S'K'
tp1751
((lp1752
I0
aI0
aI0
a(lp1753
I1
aI0
aI0
atp1754
s(I71
S'I'
tp1755
((lp1756
I23
aI2
aI1
a(lp1757
I19
aI5
aI5
atp1758
s(I42
S'F'
tp1759
((lp1760
I232
aI55
aI12
a(lp1761
I163
aI25
aI15
atp1762
s(I9
S'K'
tp1763
((lp1764
I10
aI0
aI0
a(lp1765
I19
aI5
aI10
atp1766
s(I12
g42
tp1767
((lp1768
I453
aI93
aI37
a(lp1769
I99
aI43
aI23
atp1770
s(I27
S'R'
tp1771
((lp1772
I9766
aI11243
aI10835
a(lp1773
I11589
aI13465
aI20767
atp1774
s(I44
S'K'
tp1775
((lp1776
I75
aI16
aI5
a(lp1777
I14
aI2
aI3
atp1778
s(I31
S'F'
tp1779
((lp1780
I1334
aI1395
aI1057
a(lp1781
I1092
aI1163
aI1564
atp1782
s(I5
S'Q'
tp1783
((lp1784
I0
aI0
aI0
a(lp1785
I3
aI2
aI1
atp1786
s(I12
S'R'
tp1787
((lp1788
I0
aI0
aI1
a(lp1789
I0
aI0
aI0
atp1790
s(I26
S'D'
tp1791
((lp1792
I0
aI0
aI0
a(lp1793
I1
aI0
aI0
atp1794
s(I71
S'K'
tp1795
((lp1796
I5
aI2
aI1
a(lp1797
I14
aI0
aI1
atp1798
s(I4
S'T'
tp1799
((lp1800
I0
aI0
aI0
a(lp1801
I0
aI0
aI0
atp1802
s(I21
g42
tp1803
((lp1804
I374
aI64
aI34
a(lp1805
I96
aI39
aI13
atp1806
s(I16
g42
tp1807
((lp1808
I300
aI66
aI26
a(lp1809
I95
aI26
aI10
atp1810
s(I24
S'I'
tp1811
((lp1812
I247
aI283
aI235
a(lp1813
I448
aI447
aI644
atp1814
s(I11
S'C'
tp1815
((lp1816
I188
aI164
aI151
a(lp1817
I83
aI65
aI87
atp1818
s(I62
S'C'
tp1819
((lp1820
I1170
aI1442
aI1375
a(lp1821
I1026
aI1089
aI1524
atp1822
s(I69
S'T'
tp1823
((lp1824
I1010
aI480
aI133
a(lp1825
I1059
aI348
aI193
atp1826
s(I18
S'I'
tp1827
((lp1828
I939
aI1203
aI1024
a(lp1829
I1341
aI1515
aI2272
atp1830
s(I51
S'R'
tp1831
((lp1832
I20
aI11
aI5
a(lp1833
I24
aI20
aI18
atp1834
s(I58
S'V'
tp1835
((lp1836
I425
aI366
aI172
a(lp1837
I1138
aI711
aI656
atp1838
s(I43
S'C'
tp1839
((lp1840
I521
aI391
aI240
a(lp1841
I327
aI259
aI241
atp1842
s(I32
S'F'
tp1843
((lp1844
I474
aI509
aI353
a(lp1845
I525
aI497
aI603
atp1846
s(I61
S'L'
tp1847
((lp1848
I9122
aI11384
aI10236
a(lp1849
I12596
aI14419
aI20566
atp1850
s(I69
g42
tp1851
((lp1852
I100
aI16
aI5
a(lp1853
I60
aI17
aI10
atp1854
s(I27
S'V'
tp1855
((lp1856
I746
aI213
aI54
a(lp1857
I205
aI59
aI22
atp1858
s(I70
S'H'
tp1859
((lp1860
I2
aI0
aI0
a(lp1861
I11
aI10
aI2
atp1862
s(I47
S'V'
tp1863
((lp1864
I162
aI146
aI129
a(lp1865
I172
aI165
aI273
atp1866
s(I36
S'R'
tp1867
((lp1868
I6
aI1
aI0
a(lp1869
I10
aI2
aI1
atp1870
s(I16
S'E'
tp1871
((lp1872
I1233
aI1362
aI1178
a(lp1873
I1351
aI1509
aI2202
atp1874
s(I44
S'G'
tp1875
((lp1876
I201
aI72
aI21
a(lp1877
I101
aI33
aI13
atp1878
s(I5
S'T'
tp1879
((lp1880
I1904
aI1969
aI1751
a(lp1881
I1669
aI1760
aI2393
atp1882
s(I49
S'V'
tp1883
((lp1884
I302
aI177
aI108
a(lp1885
I331
aI243
aI233
atp1886
s(I28
S'P'
tp1887
((lp1888
I11
aI4
aI0
a(lp1889
I77
aI82
aI93
atp1890
s(I38
S'V'
tp1891
((lp1892
I3678
aI3851
aI3527
a(lp1893
I2529
aI2928
aI4391
atp1894
s(I62
S'Q'
tp1895
((lp1896
I162
aI187
aI176
a(lp1897
I140
aI168
aI217
atp1898
s(I67
S'Q'
tp1899
((lp1900
I15
aI6
aI4
a(lp1901
I9
aI7
aI1
atp1902
s(I24
S'T'
tp1903
((lp1904
I1761
aI2090
aI1842
a(lp1905
I1437
aI1568
aI2330
atp1906
s(I6
S'Q'
tp1907
((lp1908
I940
aI800
aI636
a(lp1909
I438
aI421
aI478
atp1910
s(I62
S'G'
tp1911
((lp1912
I6327
aI7279
aI6579
a(lp1913
I9719
aI11067
aI16288
atp1914
s(I74
S'E'
tp1915
((lp1916
I81
aI13
aI1
a(lp1917
I20
aI9
aI0
atp1918
s(I3
S'A'
tp1919
((lp1920
I6024
aI6244
aI4733
a(lp1921
I3432
aI3272
aI3784
atp1922
s(I52
S'N'
tp1923
((lp1924
I531
aI623
aI537
a(lp1925
I720
aI767
aI1113
atp1926
s(I28
S'R'
tp1927
((lp1928
I3489
aI4180
aI3474
a(lp1929
I5170
aI5351
aI7693
atp1930
s(I67
S'D'
tp1931
((lp1932
I132
aI27
aI5
a(lp1933
I45
aI2
aI4
atp1934
s(I63
S'H'
tp1935
((lp1936
I502
aI501
aI271
a(lp1937
I507
aI363
aI376
atp1938
s(I61
S'H'
tp1939
((lp1940
I22
aI13
aI4
a(lp1941
I11
aI6
aI5
atp1942
s(I60
S'W'
tp1943
((lp1944
I0
aI0
aI0
a(lp1945
I1
aI0
aI0
atp1946
s(I65
S'S'
tp1947
((lp1948
I4501
aI5107
aI4669
a(lp1949
I3864
aI4251
aI6219
atp1950
s(I72
S'I'
tp1951
((lp1952
I96
aI15
aI10
a(lp1953
I53
aI10
aI12
atp1954
s(I74
S'C'
tp1955
((lp1956
I10
aI3
aI0
a(lp1957
I10
aI7
aI15
atp1958
s(I44
S'C'
tp1959
((lp1960
I5079
aI3274
aI1636
a(lp1961
I10772
aI6561
aI5396
atp1962
s(I3
S'C'
tp1963
((lp1964
I2313
aI2707
aI2462
a(lp1965
I1929
aI2309
aI3281
atp1966
s(I63
S'C'
tp1967
((lp1968
I438
aI492
aI318
a(lp1969
I267
aI186
aI217
atp1970
s(I66
S'I'
tp1971
((lp1972
I124
aI82
aI50
a(lp1973
I148
aI114
aI90
atp1974
s(I19
S'P'
tp1975
((lp1976
I1207
aI1308
aI1246
a(lp1977
I1356
aI1546
aI2205
atp1978
s(I9
S'Q'
tp1979
((lp1980
I2371
aI2384
aI2245
a(lp1981
I2203
aI2249
aI3277
atp1982
s(I10
S'V'
tp1983
((lp1984
I0
aI0
aI0
a(lp1985
I5
aI1
aI0
atp1986
s(I15
g42
tp1987
((lp1988
I791
aI165
aI62
a(lp1989
I191
aI83
aI46
atp1990
s(I64
S'P'
tp1991
((lp1992
I4
aI7
aI1
a(lp1993
I3
aI0
aI0
atp1994
s(I37
S'E'
tp1995
((lp1996
I3237
aI3421
aI3332
a(lp1997
I7132
aI7839
aI11498
atp1998
s(I24
S'Q'
tp1999
((lp2000
I1013
aI1120
aI1090
a(lp2001
I1068
aI1190
aI1722
atp2002
s(I62
S'K'
tp2003
((lp2004
I119
aI128
aI108
a(lp2005
I216
aI214
aI347
atp2006
s(I3
S'E'
tp2007
((lp2008
I35
aI3
aI2
a(lp2009
I14
aI7
aI6
atp2010
s(I19
S'R'
tp2011
((lp2012
I2839
aI3283
aI2714
a(lp2013
I2969
aI3196
aI4393
atp2014
s(I63
S'Q'
tp2015
((lp2016
I523
aI553
aI291
a(lp2017
I335
aI281
aI251
atp2018
s(I14
S'L'
tp2019
((lp2020
I213
aI204
aI132
a(lp2021
I1299
aI1105
aI1382
atp2022
s(I35
S'I'
tp2023
((lp2024
I815
aI903
aI545
a(lp2025
I1766
aI1747
aI1961
atp2026
s(I32
S'G'
tp2027
((lp2028
I5616
aI6206
aI5241
a(lp2029
I9479
aI10046
aI13549
atp2030
s(I29
S'V'
tp2031
((lp2032
I2884
aI3289
aI2951
a(lp2033
I5004
aI5835
aI8202
atp2034
s(I3
S'F'
tp2035
((lp2036
I82
aI39
aI30
a(lp2037
I43
aI30
aI30
atp2038
s(I48
S'L'
tp2039
((lp2040
I384
aI155
aI21
a(lp2041
I510
aI104
aI33
atp2042
s(I61
S'D'
tp2043
((lp2044
I13
aI10
aI2
a(lp2045
I6
aI1
aI6
atp2046
s(I4
S'A'
tp2047
((lp2048
I52
aI17
aI13
a(lp2049
I19
aI15
aI19
atp2050
s(I59
S'N'
tp2051
((lp2052
I1019
aI1192
aI941
a(lp2053
I2098
aI1971
aI2665
atp2054
s(I14
S'S'
tp2055
((lp2056
I3552
aI3821
aI3592
a(lp2057
I4588
aI5012
aI7436
atp2058
s(I68
S'P'
tp2059
((lp2060
I4
aI1
aI0
a(lp2061
I3
aI5
aI0
atp2062
s(I21
S'I'
tp2063
((lp2064
I100
aI112
aI109
a(lp2065
I356
aI409
aI532
atp2066
s(I7
S'R'
tp2067
((lp2068
I1
aI2
aI0
a(lp2069
I8
aI8
aI11
atp2070
s(I55
S'T'
tp2071
((lp2072
I4096
aI4521
aI4163
a(lp2073
I4232
aI4796
aI6999
atp2074
s(I73
S'R'
tp2075
((lp2076
I3
aI2
aI0
a(lp2077
I19
aI15
aI24
atp2078
s(I28
S'G'
tp2079
((lp2080
I6943
aI7893
aI6892
a(lp2081
I6920
aI7783
aI11223
atp2082
s(I19
S'Y'
tp2083
((lp2084
I825
aI984
aI835
a(lp2085
I1346
aI1330
aI2028
atp2086
s(I49
S'N'
tp2087
((lp2088
I277
aI300
aI255
a(lp2089
I885
aI913
aI1201
atp2090
s(I51
S'S'
tp2091
((lp2092
I829
aI914
aI708
a(lp2093
I1021
aI1106
aI1388
atp2094
s(I63
S'S'
tp2095
((lp2096
I2080
aI2146
aI1199
a(lp2097
I1458
aI1164
aI1151
atp2098
s(I25
S'S'
tp2099
((lp2100
I4561
aI5286
aI4323
a(lp2101
I5240
aI5941
aI8699
atp2102
s(I37
S'S'
tp2103
((lp2104
I4061
aI4640
aI4249
a(lp2105
I4433
aI5000
aI7302
atp2106
s(I3
S'H'
tp2107
((lp2108
I8
aI3
aI2
a(lp2109
I6
aI4
aI5
atp2110
s(I4
S'C'
tp2111
((lp2112
I71
aI56
aI22
a(lp2113
I30
aI16
aI34
atp2114
s(I38
S'N'
tp2115
((lp2116
I1532
aI1647
aI1513
a(lp2117
I2451
aI2725
aI4010
atp2118
s(I62
S'Y'
tp2119
((lp2120
I1955
aI2252
aI2018
a(lp2121
I1387
aI1674
aI2424
atp2122
s(I6
S'I'
tp2123
((lp2124
I1892
aI1462
aI776
a(lp2125
I3579
aI2592
aI2600
atp2126
s(I10
S'Q'
tp2127
((lp2128
I629
aI445
aI296
a(lp2129
I1085
aI918
aI936
atp2130
s(I26
S'W'
tp2131
((lp2132
I0
aI0
aI0
a(lp2133
I0
aI0
aI0
atp2134
s(I74
S'M'
tp2135
((lp2136
I1
aI1
aI0
a(lp2137
I10
aI3
aI16
atp2138
s(I19
S'V'
tp2139
((lp2140
I2383
aI2744
aI2464
a(lp2141
I3015
aI3273
aI4875
atp2142
s(I50
S'T'
tp2143
((lp2144
I902
aI924
aI629
a(lp2145
I1308
aI1531
aI2164
atp2146
s(I25
S'Q'
tp2147
((lp2148
I1929
aI2032
aI1997
a(lp2149
I2150
aI2473
aI3626
atp2150
s(I65
S'L'
tp2151
((lp2152
I619
aI510
aI383
a(lp2153
I1149
aI786
aI858
atp2154
s(I32
S'R'
tp2155
((lp2156
I3485
aI2907
aI2086
a(lp2157
I4596
aI3725
aI4017
atp2158
s(I36
S'F'
tp2159
((lp2160
I26
aI19
aI4
a(lp2161
I19
aI6
aI3
atp2162
s(I48
S'Q'
tp2163
((lp2164
I100
aI34
aI9
a(lp2165
I193
aI47
aI19
atp2166
s(I74
S'K'
tp2167
((lp2168
I1426
aI1463
aI1251
a(lp2169
I2215
aI2368
aI3253
atp2170
s(I3
S'K'
tp2171
((lp2172
I3
aI2
aI2
a(lp2173
I4
aI0
aI1
atp2174
s(I51
S'E'
tp2175
((lp2176
I130
aI154
aI156
a(lp2177
I375
aI405
aI635
atp2178
s(I74
S'W'
tp2179
((lp2180
I0
aI0
aI0
a(lp2181
I0
aI0
aI0
atp2182
s(I73
S'V'
tp2183
((lp2184
I3748
aI2515
aI1275
a(lp2185
I982
aI749
aI588
atp2186
s(I20
S'H'
tp2187
((lp2188
I1338
aI1520
aI1330
a(lp2189
I1706
aI1915
aI3077
atp2190
s(I5
S'A'
tp2191
((lp2192
I2883
aI2989
aI2573
a(lp2193
I2202
aI2370
aI3516
atp2194
s(I9
S'Y'
tp2195
((lp2196
I39
aI14
aI1
a(lp2197
I24
aI5
aI4
atp2198
s(I45
S'M'
tp2199
((lp2200
I974
aI1019
aI716
a(lp2201
I1470
aI1305
aI1484
atp2202
s(I4
S'D'
tp2203
((lp2204
I73
aI35
aI9
a(lp2205
I31
aI7
aI0
atp2206
s(I74
S'T'
tp2207
((lp2208
I17
aI2
aI0
a(lp2209
I3
aI1
aI0
atp2210
s(I32
S'M'
tp2211
((lp2212
I44
aI60
aI34
a(lp2213
I22
aI24
aI29
atp2214
s(I26
S'S'
tp2215
((lp2216
I4
aI0
aI1
a(lp2217
I1
aI0
aI0
atp2218
s(I38
S'S'
tp2219
((lp2220
I7904
aI8624
aI7910
a(lp2221
I5994
aI7034
aI10805
atp2222
s(I3
S'M'
tp2223
((lp2224
I599
aI666
aI609
a(lp2225
I1478
aI1798
aI2621
atp2226
s(I69
S'D'
tp2227
((lp2228
I159
aI48
aI12
a(lp2229
I55
aI27
aI12
atp2230
s(I63
S'Y'
tp2231
((lp2232
I641
aI709
aI376
a(lp2233
I641
aI483
aI481
atp2234
s(I68
S'Y'
tp2235
((lp2236
I26
aI30
aI3
a(lp2237
I64
aI56
aI43
atp2238
s(I49
S'S'
tp2239
((lp2240
I5375
aI5965
aI4274
a(lp2241
I17276
aI17024
aI19987
atp2242
s(I48
S'D'
tp2243
((lp2244
I215
aI77
aI25
a(lp2245
I175
aI34
aI35
atp2246
s(I14
S'E'
tp2247
((lp2248
I9
aI5
aI7
a(lp2249
I53
aI49
aI36
atp2250
s(I54
S'I'
tp2251
((lp2252
I1180
aI1192
aI1008
a(lp2253
I1280
aI1293
aI1861
atp2254
s(I21
S'Q'
tp2255
((lp2256
I2282
aI2801
aI2551
a(lp2257
I3108
aI3657
aI5366
atp2258
s(I26
S'Q'
tp2259
((lp2260
I0
aI0
aI0
a(lp2261
I1
aI0
aI0
atp2262
s(I5
S'D'
tp2263
((lp2264
I27
aI7
aI5
a(lp2265
I8
aI8
aI5
atp2266
s(I27
S'K'
tp2267
((lp2268
I441
aI565
aI513
a(lp2269
I496
aI524
aI826
atp2270
s(I47
S'D'
tp2271
((lp2272
I8
aI2
aI1
a(lp2273
I2
aI1
aI0
atp2274
s(I4
S'K'
tp2275
((lp2276
I1
aI0
aI0
a(lp2277
I0
aI0
aI0
atp2278
s(I71
S'T'
tp2279
((lp2280
I9
aI18
aI10
a(lp2281
I3
aI1
aI0
atp2282
s(I6
S'A'
tp2283
((lp2284
I2415
aI1998
aI1501
a(lp2285
I2452
aI2214
aI2904
atp2286
s(I10
S'Y'
tp2287
((lp2288
I0
aI0
aI0
a(lp2289
I113
aI116
aI181
atp2290
s(I23
S'Y'
tp2291
((lp2292
I0
aI0
aI0
a(lp2293
I2
aI0
aI0
atp2294
s(I52
S'L'
tp2295
((lp2296
I2435
aI2672
aI2485
a(lp2297
I2891
aI3186
aI4796
atp2298
s(I49
S'D'
tp2299
((lp2300
I45
aI10
aI3
a(lp2301
I24
aI5
aI4
atp2302
s(I32
S'S'
tp2303
((lp2304
I4477
aI4882
aI4151
a(lp2305
I7241
aI7852
aI10449
atp2306
s(I8
S'S'
tp2307
((lp2308
I11
aI3
aI4
a(lp2309
I23
aI29
aI44
atp2310
s(I71
S'V'
tp2311
((lp2312
I0
aI1
aI0
a(lp2313
I0
aI0
aI1
atp2314
s(I39
S'H'
tp2315
((lp2316
I914
aI952
aI735
a(lp2317
I1030
aI1084
aI1437
atp2318
s(I77
S'C'
tp2319
((lp2320
I29
aI23
aI17
a(lp2321
I0
aI0
aI0
atp2322
s(I61
S'P'
tp2323
((lp2324
I83
aI24
aI7
a(lp2325
I28
aI9
aI6
atp2326
s(I36
S'N'
tp2327
((lp2328
I5
aI0
aI0
a(lp2329
I6
aI1
aI0
atp2330
s(I48
S'I'
tp2331
((lp2332
I114
aI36
aI11
a(lp2333
I117
aI30
aI4
atp2334
s(I69
S'Y'
tp2335
((lp2336
I683
aI490
aI210
a(lp2337
I791
aI398
aI333
atp2338
s(I68
g42
tp2339
((lp2340
I279
aI50
aI19
a(lp2341
I149
aI64
aI20
atp2342
s(I66
g42
tp2343
((lp2344
I111
aI23
aI7
a(lp2345
I71
aI22
aI2
atp2346
s(I61
S'Y'
tp2347
((lp2348
I10
aI2
aI1
a(lp2349
I7
aI7
aI16
atp2350
s(I66
S'Y'
tp2351
((lp2352
I36
aI26
aI13
a(lp2353
I52
aI38
aI38
atp2354
s(I22
S'Q'
tp2355
((lp2356
I5
aI3
aI2
a(lp2357
I0
aI0
aI0
atp2358
s(I11
S'W'
tp2359
((lp2360
I84
aI44
aI10
a(lp2361
I37
aI12
aI4
atp2362
s(I4
S'L'
tp2363
((lp2364
I11473
aI11589
aI8581
a(lp2365
I8766
aI7826
aI9821
atp2366
s(I36
S'W'
tp2367
((lp2368
I0
aI0
aI0
a(lp2369
I0
aI0
aI0
atp2370
s(I23
S'K'
tp2371
((lp2372
I1
aI0
aI0
a(lp2373
I12
aI12
aI7
atp2374
s(I69
S'L'
tp2375
((lp2376
I1393
aI1562
aI1412
a(lp2377
I1170
aI1216
aI1875
atp2378
s(I67
S'F'
tp2379
((lp2380
I875
aI1068
aI964
a(lp2381
I1237
aI1410
aI1982
atp2382
s(I18
S'T'
tp2383
((lp2384
I2390
aI2772
aI2554
a(lp2385
I2897
aI3308
aI5080
atp2386
s(I7
S'A'
tp2387
((lp2388
I12027
aI15288
aI14768
a(lp2389
I14441
aI18294
aI27526
atp2390
s(I55
S'K'
tp2391
((lp2392
I2129
aI2473
aI2159
a(lp2393
I2968
aI3301
aI4494
atp2394
s(I39
g42
tp2395
((lp2396
I321
aI68
aI18
a(lp2397
I69
aI21
aI5
atp2398
s(I40
S'F'
tp2399
((lp2400
I248
aI226
aI128
a(lp2401
I488
aI420
aI508
atp2402
s(I28
S'W'
tp2403
((lp2404
I827
aI763
aI579
a(lp2405
I968
aI924
aI1352
atp2406
s(I30
S'W'
tp2407
((lp2408
I0
aI0
aI0
a(lp2409
I0
aI0
aI0
atp2410
s(I45
S'A'
tp2411
((lp2412
I4369
aI5561
aI4672
a(lp2413
I6849
aI7466
aI10774
atp2414
s(I49
S'I'
tp2415
((lp2416
I66
aI30
aI16
a(lp2417
I51
aI52
aI47
atp2418
s(I41
S'W'
tp2419
((lp2420
I0
aI1
aI1
a(lp2421
I1
aI1
aI0
atp2422
s(I66
S'N'
tp2423
((lp2424
I4521
aI4895
aI4111
a(lp2425
I2828
aI3087
aI4496
atp2426
s(I73
S'F'
tp2427
((lp2428
I2
aI0
aI0
a(lp2429
I4
aI1
aI1
atp2430
s(I23
S'Q'
tp2431
((lp2432
I2084
aI1532
aI1044
a(lp2433
I1850
aI1469
aI1509
atp2434
s(I40
g42
tp2435
((lp2436
I714
aI167
aI52
a(lp2437
I207
aI79
aI64
atp2438
s(I54
g42
tp2439
((lp2440
I314
aI59
aI13
a(lp2441
I85
aI23
aI8
atp2442
s(I50
S'D'
tp2443
((lp2444
I2
aI0
aI0
a(lp2445
I8
aI3
aI6
atp2446
s(I65
S'N'
tp2447
((lp2448
I2458
aI2809
aI2477
a(lp2449
I2016
aI2294
aI3170
atp2450
s(I55
S'N'
tp2451
((lp2452
I2080
aI2274
aI2219
a(lp2453
I2570
aI3093
aI4451
atp2454
s(I8
S'P'
tp2455
((lp2456
I19
aI3
aI0
a(lp2457
I82
aI42
aI34
atp2458
s(I33
S'E'
tp2459
((lp2460
I1385
aI1335
aI1084
a(lp2461
I1822
aI1724
aI2380
atp2462
s(I46
S'G'
tp2463
((lp2464
I3836
aI4790
aI4122
a(lp2465
I6059
aI7383
aI10529
atp2466
s(I61
S'Q'
tp2467
((lp2468
I15
aI7
aI0
a(lp2469
I1
aI6
aI4
atp2470
s(I35
S'D'
tp2471
((lp2472
I885
aI568
aI184
a(lp2473
I1795
aI1040
aI577
atp2474
s(I57
S'G'
tp2475
((lp2476
I2988
aI3377
aI2802
a(lp2477
I3821
aI4290
aI6026
atp2478
s(I59
S'I'
tp2479
((lp2480
I357
aI142
aI55
a(lp2481
I552
aI158
aI86
atp2482
s(I53
S'F'
tp2483
((lp2484
I79
aI135
aI105
a(lp2485
I109
aI95
aI160
atp2486
s(I23
S'C'
tp2487
((lp2488
I412
aI476
aI432
a(lp2489
I145
aI183
aI283
atp2490
s(I51
S'N'
tp2491
((lp2492
I40
aI37
aI26
a(lp2493
I54
aI52
aI78
atp2494
s(I46
S'D'
tp2495
((lp2496
I2771
aI2095
aI1007
a(lp2497
I3954
aI2034
aI1675
atp2498
s(I68
S'I'
tp2499
((lp2500
I18
aI10
aI10
a(lp2501
I122
aI45
aI26
atp2502
s(I70
S'T'
tp2503
((lp2504
I4016
aI2852
aI1079
a(lp2505
I3899
aI2055
aI1429
atp2506
s(I25
S'T'
tp2507
((lp2508
I3506
aI4022
aI3607
a(lp2509
I3200
aI3514
aI5131
atp2510
s(I7
S'H'
tp2511
((lp2512
I634
aI423
aI207
a(lp2513
I516
aI301
aI269
atp2514
s(I46
S'K'
tp2515
((lp2516
I124
aI64
aI22
a(lp2517
I304
aI142
aI74
atp2518
s(I54
S'Y'
tp2519
((lp2520
I313
aI404
aI312
a(lp2521
I326
aI381
aI446
atp2522
s(I26
g42
tp2523
((lp2524
I680
aI159
aI41
a(lp2525
I159
aI107
aI54
atp2526
s(I57
S'K'
tp2527
((lp2528
I1433
aI1671
aI1476
a(lp2529
I1468
aI1574
aI2221
atp2530
s(I47
S'T'
tp2531
((lp2532
I5
aI4
aI0
a(lp2533
I7
aI1
aI0
atp2534
s(I23
S'M'
tp2535
((lp2536
I1779
aI2041
aI1868
a(lp2537
I2491
aI2673
aI4315
atp2538
s(I36
S'L'
tp2539
((lp2540
I15267
aI18246
aI18463
a(lp2541
I11415
aI14090
aI22090
atp2542
s(I32
g42
tp2543
((lp2544
I284
aI75
aI15
a(lp2545
I65
aI33
aI6
atp2546
s(I71
S'E'
tp2547
((lp2548
I0
aI0
aI0
a(lp2549
I1
aI0
aI0
atp2550
s(I4
S'V'
tp2551
((lp2552
I0
aI0
aI1
a(lp2553
I7
aI7
aI6
atp2554
s(I46
S'H'
tp2555
((lp2556
I1395
aI1431
aI1006
a(lp2557
I6427
aI6063
aI7939
atp2558
s(I10
S'H'
tp2559
((lp2560
I1170
aI899
aI451
a(lp2561
I3188
aI1814
aI1435
atp2562
s(I8
S'C'
tp2563
((lp2564
I240
aI105
aI33
a(lp2565
I933
aI241
aI72
atp2566
s(I14
S'Y'
tp2567
((lp2568
I5
aI4
aI2
a(lp2569
I49
aI38
aI23
atp2570
s(I66
S'M'
tp2571
((lp2572
I21
aI22
aI28
a(lp2573
I4
aI3
aI1
atp2574
s(I41
g42
tp2575
((lp2576
I105
aI19
aI4
a(lp2577
I23
aI14
aI5
atp2578
s(I40
S'C'
tp2579
((lp2580
I331
aI331
aI266
a(lp2581
I923
aI846
aI1110
atp2582
s(I33
S'L'
tp2583
((lp2584
I2328
aI2217
aI1806
a(lp2585
I2322
aI2165
aI2949
atp2586
s(I71
S'G'
tp2587
((lp2588
I2
aI5
aI3
a(lp2589
I2
aI2
aI0
atp2590
s(I47
S'P'
tp2591
((lp2592
I15
aI13
aI9
a(lp2593
I2
aI0
aI0
atp2594
s(I67
S'C'
tp2595
((lp2596
I2597
aI2653
aI2333
a(lp2597
I3259
aI3753
aI5566
atp2598
s(I53
S'N'
tp2599
((lp2600
I2333
aI2647
aI2383
a(lp2601
I2579
aI2860
aI4207
atp2602
s(I18
S'E'
tp2603
((lp2604
I63
aI91
aI76
a(lp2605
I4
aI5
aI3
atp2606
s(I20
S'F'
tp2607
((lp2608
I480
aI608
aI515
a(lp2609
I801
aI899
aI1246
atp2610
s(I58
S'K'
tp2611
((lp2612
I183
aI156
aI97
a(lp2613
I368
aI254
aI253
atp2614
s(I51
S'V'
tp2615
((lp2616
I905
aI1083
aI907
a(lp2617
I2511
aI2666
aI3586
atp2618
s(I60
S'E'
tp2619
((lp2620
I274
aI127
aI38
a(lp2621
I366
aI125
aI70
atp2622
s(I4
S'R'
tp2623
((lp2624
I6
aI9
aI8
a(lp2625
I4
aI4
aI1
atp2626
s(I14
g42
tp2627
((lp2628
I27
aI5
aI4
a(lp2629
I9
aI7
aI4
atp2630
s(I29
S'M'
tp2631
((lp2632
I433
aI416
aI349
a(lp2633
I646
aI698
aI1042
atp2634
s(I70
S'L'
tp2635
((lp2636
I415
aI381
aI212
a(lp2637
I629
aI483
aI494
atp2638
s(I8
S'N'
tp2639
((lp2640
I35
aI7
aI0
a(lp2641
I31
aI8
aI23
atp2642
s(I30
S'Q'
tp2643
((lp2644
I0
aI0
aI0
a(lp2645
I1
aI0
aI0
atp2646
s(I37
S'W'
tp2647
((lp2648
I392
aI424
aI366
a(lp2649
I952
aI1016
aI1293
atp2650
s(I30
S'G'
tp2651
((lp2652
I2
aI0
aI1
a(lp2653
I9
aI0
aI0
atp2654
s(I20
g42
tp2655
((lp2656
I508
aI147
aI40
a(lp2657
I93
aI15
aI15
atp2658
s(I15
S'Y'
tp2659
((lp2660
I132
aI167
aI86
a(lp2661
I84
aI90
aI115
atp2662
s(I41
S'G'
tp2663
((lp2664
I4835
aI3272
aI1554
a(lp2665
I7097
aI4660
aI4250
atp2666
s(I23
S'E'
tp2667
((lp2668
I4
aI5
aI0
a(lp2669
I10
aI9
aI2
atp2670
s(I70
S'R'
tp2671
((lp2672
I120
aI30
aI7
a(lp2673
I109
aI32
aI8
atp2674
s(I31
S'H'
tp2675
((lp2676
I708
aI720
aI625
a(lp2677
I308
aI322
aI494
atp2678
s(I29
S'H'
tp2679
((lp2680
I2690
aI3120
aI2748
a(lp2681
I3624
aI4172
aI6102
atp2682
s(I40
S'I'
tp2683
((lp2684
I222
aI211
aI205
a(lp2685
I531
aI468
aI513
atp2686
s(I55
S'C'
tp2687
((lp2688
I1915
aI2163
aI1950
a(lp2689
I2560
aI2827
aI4111
atp2690
s(I33
S'F'
tp2691
((lp2692
I1890
aI1961
aI1662
a(lp2693
I2554
aI2581
aI3393
atp2694
s(I11
S'Y'
tp2695
((lp2696
I31
aI27
aI16
a(lp2697
I32
aI16
aI10
atp2698
s(I16
S'Y'
tp2699
((lp2700
I1325
aI1419
aI1173
a(lp2701
I1558
aI1681
aI2545
atp2702
s(I72
S'M'
tp2703
((lp2704
I93
aI49
aI10
a(lp2705
I96
aI39
aI21
atp2706
s(I22
S'F'
tp2707
((lp2708
I690
aI914
aI739
a(lp2709
I867
aI979
aI1435
atp2710
s(I54
S'G'
tp2711
((lp2712
I3330
aI3246
aI2769
a(lp2713
I4977
aI4951
aI6897
atp2714
s(I66
S'E'
tp2715
((lp2716
I360
aI210
aI86
a(lp2717
I665
aI386
aI262
atp2718
s(I22
S'T'
tp2719
((lp2720
I1532
aI1669
aI1502
a(lp2721
I1428
aI1625
aI2323
atp2722
s(I46
S'W'
tp2723
((lp2724
I581
aI545
aI343
a(lp2725
I1186
aI1077
aI1334
atp2726
s(I50
S'V'
tp2727
((lp2728
I9197
aI9675
aI8639
a(lp2729
I15601
aI17315
aI25098
atp2730
s(I15
S'K'
tp2731
((lp2732
I3
aI4
aI4
a(lp2733
I4
aI3
aI0
atp2734
s(I70
S'Y'
tp2735
((lp2736
I2
aI0
aI0
a(lp2737
I28
aI35
aI31
atp2738
s(I57
S'W'
tp2739
((lp2740
I112
aI101
aI62
a(lp2741
I370
aI302
aI401
atp2742
s(I39
S'V'
tp2743
((lp2744
I525
aI564
aI390
a(lp2745
I683
aI720
aI849
atp2746
s(I15
S'T'
tp2747
((lp2748
I2782
aI3183
aI2946
a(lp2749
I3500
aI3924
aI5836
atp2750
s(I31
S'Q'
tp2751
((lp2752
I284
aI244
aI220
a(lp2753
I174
aI209
aI279
atp2754
s(I28
S'A'
tp2755
((lp2756
I4125
aI4241
aI3837
a(lp2757
I3184
aI3726
aI5125
atp2758
s(I43
S'M'
tp2759
((lp2760
I573
aI609
aI563
a(lp2761
I576
aI664
aI1057
atp2762
s(I35
S'M'
tp2763
((lp2764
I280
aI295
aI239
a(lp2765
I272
aI282
aI320
atp2766
s(I46
S'T'
tp2767
((lp2768
I6879
aI8314
aI6863
a(lp2769
I14435
aI15925
aI22561
atp2770
s(I29
S'E'
tp2771
((lp2772
I1434
aI1593
aI1478
a(lp2773
I2330
aI2558
aI3837
atp2774
s(I70
S'D'
tp2775
((lp2776
I230
aI49
aI18
a(lp2777
I52
aI16
aI10
atp2778
s(I7
S'N'
tp2779
((lp2780
I3510
aI3706
aI3547
a(lp2781
I3700
aI4020
aI5493
atp2782
s(I31
S'S'
tp2783
((lp2784
I15502
aI16853
aI14897
a(lp2785
I13771
aI15274
aI21994
atp2786
s(I68
S'N'
tp2787
((lp2788
I215
aI216
aI140
a(lp2789
I289
aI280
aI268
atp2790
s(I5
S'S'
tp2791
((lp2792
I107
aI55
aI52
a(lp2793
I76
aI38
aI43
atp2794
s(I17
S'Y'
tp2795
((lp2796
I1232
aI1576
aI1446
a(lp2797
I2149
aI2582
aI3636
atp2798
s(I35
S'V'
tp2799
((lp2800
I2449
aI2832
aI1980
a(lp2801
I4217
aI4373
aI4858
atp2802
s(I73
S'D'
tp2803
((lp2804
I5
aI5
aI3
a(lp2805
I4
aI2
aI3
atp2806
s(I24
S'G'
tp2807
((lp2808
I1587
aI1764
aI1509
a(lp2809
I1827
aI1971
aI2745
atp2810
s(I15
S'F'
tp2811
((lp2812
I846
aI1064
aI824
a(lp2813
I955
aI1052
aI1585
atp2814
s(I39
S'K'
tp2815
((lp2816
I26
aI17
aI18
a(lp2817
I11
aI10
aI10
atp2818
s(I15
S'P'
tp2819
((lp2820
I614
aI413
aI219
a(lp2821
I519
aI330
aI258
atp2822
s(I11
S'P'
tp2823
((lp2824
I5707
aI3472
aI1650
a(lp2825
I3993
aI2076
aI1610
atp2826
s(I54
S'P'
tp2827
((lp2828
I3113
aI3071
aI2865
a(lp2829
I3174
aI3230
aI4692
atp2830
s(I50
S'P'
tp2831
((lp2832
I1
aI0
aI0
a(lp2833
I3
aI0
aI0
atp2834
s(I53
S'E'
tp2835
((lp2836
I896
aI979
aI874
a(lp2837
I879
aI986
aI1541
atp2838
s(I4
S'F'
tp2839
((lp2840
I268
aI307
aI270
a(lp2841
I201
aI212
aI344
atp2842
s(I16
S'Q'
tp2843
((lp2844
I348
aI389
aI308
a(lp2845
I420
aI517
aI703
atp2846
s(I29
S'A'
tp2847
((lp2848
I5776
aI6327
aI5900
a(lp2849
I7282
aI8421
aI12416
atp2850
s(I60
S'N'
tp2851
((lp2852
I146
aI214
aI185
a(lp2853
I93
aI101
aI147
atp2854
s(I34
S'N'
tp2855
((lp2856
I203
aI265
aI197
a(lp2857
I485
aI583
aI689
atp2858
s(I5
S'V'
tp2859
((lp2860
I1819
aI1899
aI1716
a(lp2861
I1962
aI2101
aI2963
atp2862
s(I51
S'I'
tp2863
((lp2864
I117
aI142
aI130
a(lp2865
I339
aI377
aI534
atp2866
s(I50
S'W'
tp2867
((lp2868
I0
aI0
aI0
a(lp2869
I1
aI0
aI0
atp2870
s(I73
S'C'
tp2871
((lp2872
I7
aI4
aI1
a(lp2873
I17
aI9
aI2
atp2874
s(I73
S'H'
tp2875
((lp2876
I0
aI0
aI0
a(lp2877
I1
aI0
aI0
atp2878
s(I42
S'T'
tp2879
((lp2880
I201
aI71
aI24
a(lp2881
I183
aI54
aI22
atp2882
s(I63
S'K'
tp2883
((lp2884
I1046
aI1206
aI1064
a(lp2885
I969
aI1095
aI1500
atp2886
s(I70
S'Q'
tp2887
((lp2888
I41
aI10
aI6
a(lp2889
I35
aI8
aI5
atp2890
s(I37
S'I'
tp2891
((lp2892
I2289
aI2678
aI2355
a(lp2893
I2717
aI3105
aI4555
atp2894
s(I24
S'R'
tp2895
((lp2896
I1040
aI1241
aI986
a(lp2897
I1316
aI1367
aI1647
atp2898
s(I6
S'S'
tp2899
((lp2900
I3084
aI2664
aI1982
a(lp2901
I1817
aI1541
aI1863
atp2902
s(I17
S'S'
tp2903
((lp2904
I4558
aI5186
aI4727
a(lp2905
I5002
aI5613
aI8229
atp2906
s(I20
S'V'
tp2907
((lp2908
I3773
aI4253
aI4086
a(lp2909
I3408
aI3787
aI5358
atp2910
s(I43
S'E'
tp2911
((lp2912
I0
aI0
aI0
a(lp2913
I2
aI0
aI0
atp2914
s(I65
g42
tp2915
((lp2916
I154
aI19
aI5
a(lp2917
I47
aI10
aI5
atp2918
s(I47
S'I'
tp2919
((lp2920
I0
aI0
aI0
a(lp2921
I0
aI0
aI0
atp2922
s(I37
S'F'
tp2923
((lp2924
I587
aI592
aI535
a(lp2925
I780
aI816
aI1211
atp2926
s(I23
S'T'
tp2927
((lp2928
I5108
aI5622
aI4831
a(lp2929
I4932
aI5205
aI7490
atp2930
s(I60
S'T'
tp2931
((lp2932
I5862
aI6294
aI5356
a(lp2933
I7933
aI7650
aI10194
atp2934
s(I57
S'L'
tp2935
((lp2936
I2670
aI3091
aI2957
a(lp2937
I2956
aI3348
aI4971
atp2938
s(I73
S'Q'
tp2939
((lp2940
I0
aI2
aI0
a(lp2941
I1
aI0
aI0
atp2942
s(I12
S'Q'
tp2943
((lp2944
I5
aI0
aI2
a(lp2945
I0
aI2
aI0
atp2946
s(I17
S'Q'
tp2947
((lp2948
I2131
aI2400
aI2122
a(lp2949
I3370
aI3770
aI5292
atp2950
s(I73
S'G'
tp2951
((lp2952
I0
aI0
aI0
a(lp2953
I6
aI4
aI4
atp2954
s(I66
S'P'
tp2955
((lp2956
I730
aI462
aI183
a(lp2957
I2511
aI1287
aI928
atp2958
s(I45
S'W'
tp2959
((lp2960
I974
aI1076
aI926
a(lp2961
I1287
aI1418
aI1984
atp2962
s(I73
S'L'
tp2963
((lp2964
I3903
aI4344
aI4039
a(lp2965
I4226
aI4691
aI6589
atp2966
s(I30
S'A'
tp2967
((lp2968
I751
aI203
aI63
a(lp2969
I305
aI56
aI35
atp2970
s(I59
S'L'
tp2971
((lp2972
I1225
aI861
aI533
a(lp2973
I1635
aI1022
aI915
atp2974
s(I25
S'N'
tp2975
((lp2976
I585
aI664
aI603
a(lp2977
I728
aI805
aI1107
atp2978
s(I40
S'D'
tp2979
((lp2980
I278
aI242
aI106
a(lp2981
I971
aI615
aI404
atp2982
s(I6
S'E'
tp2983
((lp2984
I154
aI64
aI33
a(lp2985
I151
aI38
aI22
atp2986
s(I36
S'H'
tp2987
((lp2988
I34
aI7
aI1
a(lp2989
I35
aI10
aI7
atp2990
s(I34
S'H'
tp2991
((lp2992
I1918
aI2116
aI1486
a(lp2993
I3457
aI3665
aI4219
atp2994
s(I11
S'H'
tp2995
((lp2996
I2137
aI2016
aI1762
a(lp2997
I730
aI667
aI949
atp2998
s(I12
S'S'
tp2999
((lp3000
I5279
aI5521
aI5021
a(lp3001
I3353
aI3684
aI5553
atp3002
s(I14
S'N'
tp3003
((lp3004
I6
aI4
aI5
a(lp3005
I207
aI194
aI236
atp3006
s(I53
S'M'
tp3007
((lp3008
I367
aI479
aI415
a(lp3009
I513
aI641
aI906
atp3010
s(I8
S'W'
tp3011
((lp3012
I2
aI1
aI1
a(lp3013
I2
aI2
aI0
atp3014
s(I44
g42
tp3015
((lp3016
I292
aI60
aI18
a(lp3017
I87
aI29
aI15
atp3018
s(I71
S'R'
tp3019
((lp3020
I8
aI1
aI2
a(lp3021
I7
aI0
aI0
atp3022
s(I34
S'F'
tp3023
((lp3024
I21
aI14
aI4
a(lp3025
I101
aI75
aI31
atp3026
s(I57
S'P'
tp3027
((lp3028
I3451
aI4005
aI3732
a(lp3029
I6397
aI7238
aI10690
atp3030
s(I54
S'W'
tp3031
((lp3032
I327
aI427
aI331
a(lp3033
I730
aI799
aI1209
atp3034
s(I51
S'Q'
tp3035
((lp3036
I413
aI541
aI426
a(lp3037
I815
aI944
aI1246
atp3038
s(I40
S'W'
tp3039
((lp3040
I0
aI0
aI0
a(lp3041
I1
aI0
aI0
atp3042
s(I73
S'K'
tp3043
((lp3044
I0
aI2
aI0
a(lp3045
I1
aI1
aI5
atp3046
s(I55
g42
tp3047
((lp3048
I271
aI71
aI15
a(lp3049
I63
aI22
aI13
atp3050
s(I64
S'D'
tp3051
((lp3052
I929
aI826
aI580
a(lp3053
I265
aI216
aI266
atp3054
s(I30
S'E'
tp3055
((lp3056
I2
aI0
aI0
a(lp3057
I9
aI7
aI7
atp3058
s(I48
S'W'
tp3059
((lp3060
I6
aI2
aI0
a(lp3061
I69
aI26
aI21
atp3062
s(I70
S'I'
tp3063
((lp3064
I2453
aI2192
aI1681
a(lp3065
I1298
aI1292
aI1849
atp3066
s(I67
S'W'
tp3067
((lp3068
I12
aI4
aI2
a(lp3069
I4
aI0
aI0
atp3070
s(I74
S'Q'
tp3071
((lp3072
I0
aI0
aI0
a(lp3073
I0
aI0
aI0
atp3074
s(I6
S'K'
tp3075
((lp3076
I842
aI998
aI836
a(lp3077
I812
aI819
aI1296
atp3078
s(I39
S'F'
tp3079
((lp3080
I541
aI551
aI393
a(lp3081
I609
aI489
aI578
atp3082
s(I59
S'G'
tp3083
((lp3084
I19
aI3
aI0
a(lp3085
I5
aI2
aI1
atp3086
s(I56
S'E'
tp3087
((lp3088
I0
aI0
aI0
a(lp3089
I1
aI0
aI0
atp3090
s(I31
S'A'
tp3091
((lp3092
I26638
aI28944
aI25134
a(lp3093
I22580
aI24876
aI36158
atp3094
s(I50
S'H'
tp3095
((lp3096
I0
aI0
aI0
a(lp3097
I11
aI3
aI7
atp3098
s(I32
S'N'
tp3099
((lp3100
I404
aI419
aI369
a(lp3101
I595
aI562
aI845
atp3102
s(I28
S'Q'
tp3103
((lp3104
I1745
aI1997
aI1592
a(lp3105
I1486
aI1709
aI2425
atp3106
s(I17
S'K'
tp3107
((lp3108
I16
aI8
aI4
a(lp3109
I17
aI8
aI4
atp3110
s(I63
S'D'
tp3111
((lp3112
I343
aI359
aI205
a(lp3113
I294
aI233
aI280
atp3114
s(I59
g42
tp3115
((lp3116
I103
aI24
aI10
a(lp3117
I21
aI8
aI4
atp3118
s(I64
S'F'
tp3119
((lp3120
I303
aI260
aI233
a(lp3121
I261
aI253
aI350
atp3122
s(I19
S'C'
tp3123
((lp3124
I2692
aI2929
aI2563
a(lp3125
I2316
aI2357
aI3424
atp3126
s(I62
S'R'
tp3127
((lp3128
I3382
aI4369
aI3545
a(lp3129
I5869
aI6417
aI8790
atp3130
s(I55
S'G'
tp3131
((lp3132
I4245
aI4910
aI4355
a(lp3133
I6852
aI7848
aI11422
atp3134
s(I60
S'I'
tp3135
((lp3136
I421
aI336
aI239
a(lp3137
I805
aI564
aI493
atp3138
s(I21
S'N'
tp3139
((lp3140
I237
aI241
aI180
a(lp3141
I178
aI194
aI294
atp3142
s(I68
S'R'
tp3143
((lp3144
I5
aI2
aI1
a(lp3145
I3
aI0
aI0
atp3146
s(I56
S'G'
tp3147
((lp3148
I4
aI1
aI0
a(lp3149
I4
aI0
aI0
atp3150
s(I31
S'C'
tp3151
((lp3152
I3101
aI3565
aI3020
a(lp3153
I3277
aI3666
aI5043
atp3154
s(I11
S'N'
tp3155
((lp3156
I3276
aI3042
aI3060
a(lp3157
I993
aI971
aI1429
atp3158
s(I73
S'Y'
tp3159
((lp3160
I0
aI0
aI0
a(lp3161
I8
aI2
aI5
atp3162
s(I5
S'C'
tp3163
((lp3164
I429
aI448
aI422
a(lp3165
I422
aI442
aI645
atp3166
s(I72
S'N'
tp3167
((lp3168
I576
aI287
aI97
a(lp3169
I634
aI379
aI248
atp3170
s(I17
S'I'
tp3171
((lp3172
I2484
aI2973
aI2424
a(lp3173
I4280
aI4485
aI6215
atp3174
s(I19
S'E'
tp3175
((lp3176
I584
aI720
aI687
a(lp3177
I1490
aI1591
aI2287
atp3178
s(I41
S'H'
tp3179
((lp3180
I288
aI147
aI37
a(lp3181
I141
aI63
aI32
atp3182
s(I55
S'H'
tp3183
((lp3184
I616
aI701
aI660
a(lp3185
I983
aI1083
aI1647
atp3186
s(I38
S'L'
tp3187
((lp3188
I7548
aI8800
aI8564
a(lp3189
I3969
aI4638
aI7179
atp3190
s(I64
S'I'
tp3191
((lp3192
I2052
aI2375
aI1871
a(lp3193
I2741
aI2771
aI3589
atp3194
s(I52
S'Q'
tp3195
((lp3196
I511
aI580
aI586
a(lp3197
I518
aI604
aI934
atp3198
s(I13
S'M'
tp3199
((lp3200
I34
aI38
aI31
a(lp3201
I52
aI54
aI78
atp3202
s(I54
S'L'
tp3203
((lp3204
I1329
aI1292
aI1099
a(lp3205
I1523
aI1624
aI1997
atp3206
s(I74
g42
tp3207
((lp3208
I151
aI33
aI6
a(lp3209
I85
aI15
aI13
atp3210
s(I27
S'P'
tp3211
((lp3212
I3
aI4
aI1
a(lp3213
I3
aI2
aI0
atp3214
s(I9
S'P'
tp3215
((lp3216
I5738
aI5586
aI5060
a(lp3217
I2286
aI2131
aI3048
atp3218
s(I75
S'Q'
tp3219
((lp3220
I44
aI8
aI0
a(lp3221
I26
aI13
aI7
atp3222
s(I8
S'T'
tp3223
((lp3224
I76
aI40
aI16
a(lp3225
I108
aI41
aI11
atp3226
s(I14
S'G'
tp3227
((lp3228
I3161
aI3371
aI3323
a(lp3229
I8244
aI8888
aI12651
atp3230
s(I11
S'A'
tp3231
((lp3232
I5662
aI5689
aI5077
a(lp3233
I2703
aI2965
aI4153
atp3234
s(I74
S'V'
tp3235
((lp3236
I7
aI2
aI1
a(lp3237
I10
aI7
aI7
atp3238
s(I16
S'A'
tp3239
((lp3240
I2514
aI3156
aI2722
a(lp3241
I3234
aI3452
aI5213
atp3242
s(I64
S'K'
tp3243
((lp3244
I34
aI15
aI10
a(lp3245
I19
aI8
aI1
atp3246
s(I29
S'Q'
tp3247
((lp3248
I2092
aI2409
aI2121
a(lp3249
I3462
aI3909
aI6037
atp3250
s(I18
S'K'
tp3251
((lp3252
I1251
aI1615
aI1383
a(lp3253
I1461
aI1673
aI2392
atp3254
s(I20
S'C'
tp3255
((lp3256
I2025
aI2295
aI2182
a(lp3257
I1151
aI1421
aI2188
atp3258
s(I5
S'F'
tp3259
((lp3260
I171
aI95
aI101
a(lp3261
I139
aI149
aI174
atp3262
s(I25
S'G'
tp3263
((lp3264
I3409
aI3946
aI3741
a(lp3265
I3091
aI3418
aI5047
atp3266
s(I58
S'H'
tp3267
((lp3268
I47
aI28
aI14
a(lp3269
I119
aI48
aI28
atp3270
s(I35
S'H'
tp3271
((lp3272
I279
aI290
aI220
a(lp3273
I739
aI709
aI886
atp3274
s(I33
S'H'
tp3275
((lp3276
I1284
aI1250
aI1112
a(lp3277
I1642
aI1677
aI2312
atp3278
s(I27
S'I'
tp3279
((lp3280
I537
aI233
aI61
a(lp3281
I243
aI107
aI57
atp3282
s(I45
S'K'
tp3283
((lp3284
I74
aI48
aI22
a(lp3285
I217
aI111
aI57
atp3286
s(I47
g42
tp3287
((lp3288
I118
aI18
aI12
a(lp3289
I36
aI17
aI6
atp3290
s(I42
S'D'
tp3291
((lp3292
I57
aI11
aI2
a(lp3293
I12
aI3
aI4
atp3294
s(I52
S'C'
tp3295
((lp3296
I731
aI853
aI646
a(lp3297
I1169
aI1348
aI1907
atp3298
s(I70
S'A'
tp3299
((lp3300
I722
aI406
aI143
a(lp3301
I2084
aI841
aI458
atp3302
s(I64
S'M'
tp3303
((lp3304
I791
aI929
aI796
a(lp3305
I1032
aI1006
aI1514
atp3306
s(I74
S'Y'
tp3307
((lp3308
I0
aI0
aI0
a(lp3309
I2
aI0
aI0
atp3310
s(I6
S'C'
tp3311
((lp3312
I732
aI429
aI210
a(lp3313
I582
aI362
aI294
atp3314
s(I56
S'M'
tp3315
((lp3316
I295
aI377
aI332
a(lp3317
I506
aI499
aI718
atp3318
s(I25
S'E'
tp3319
((lp3320
I3245
aI3769
aI3213
a(lp3321
I2991
aI3386
aI5037
atp3322
s(I38
S'G'
tp3323
((lp3324
I6170
aI6653
aI5958
a(lp3325
I5271
aI5898
aI8646
atp3326
s(I9
S'T'
tp3327
((lp3328
I2797
aI3225
aI2963
a(lp3329
I3295
aI3725
aI5571
atp3330
s(I7
S'Y'
tp3331
((lp3332
I2
aI0
aI0
a(lp3333
I3
aI2
aI1
atp3334
s(I17
S'C'
tp3335
((lp3336
I3510
aI4268
aI3694
a(lp3337
I3078
aI3444
aI5112
atp3338
s(I65
S'I'
tp3339
((lp3340
I1268
aI1275
aI928
a(lp3341
I1790
aI1668
aI2347
atp3342
s(I32
S'Q'
tp3343
((lp3344
I1097
aI1203
aI1052
a(lp3345
I1613
aI1718
aI2439
atp3346
s(I49
S'G'
tp3347
((lp3348
I7047
aI6783
aI4569
a(lp3349
I20176
aI17874
aI19715
atp3350
s(I21
S'V'
tp3351
((lp3352
I1307
aI1462
aI1283
a(lp3353
I1961
aI2233
aI3174
atp3354
s(I7
S'D'
tp3355
((lp3356
I12
aI4
aI2
a(lp3357
I10
aI11
aI14
atp3358
s(I2
g42
tp3359
((lp3360
I174
aI19
aI7
a(lp3361
I36
aI14
aI7
atp3362
s(I76
S'Q'
tp3363
((lp3364
I18
aI2
aI0
a(lp3365
I3
aI2
aI0
atp3366
s(I20
S'D'
tp3367
((lp3368
I1321
aI1438
aI1307
a(lp3369
I2218
aI2434
aI3518
atp3370
s(I31
S'K'
tp3371
((lp3372
I751
aI918
aI818
a(lp3373
I1601
aI1807
aI2401
atp3374
s(I62
g42
tp3375
((lp3376
I617
aI92
aI23
a(lp3377
I134
aI39
aI11
atp3378
s(I45
S'Y'
tp3379
((lp3380
I775
aI943
aI795
a(lp3381
I1382
aI1534
aI2066
atp3382
s(I12
S'A'
tp3383
((lp3384
I92
aI75
aI46
a(lp3385
I93
aI70
aI67
atp3386
s(I17
S'A'
tp3387
((lp3388
I3312
aI3520
aI3140
a(lp3389
I3397
aI3643
aI5441
atp3390
s(I27
S'M'
tp3391
((lp3392
I1474
aI856
aI292
a(lp3393
I792
aI362
aI307
atp3394
s(I18
S'F'
tp3395
((lp3396
I1548
aI1896
aI1593
a(lp3397
I3077
aI3529
aI5168
atp3398
s(I69
S'I'
tp3399
((lp3400
I1924
aI2182
aI1896
a(lp3401
I3064
aI3333
aI4483
atp3402
s(I34
S'Y'
tp3403
((lp3404
I62
aI43
aI23
a(lp3405
I298
aI194
aI148
atp3406
s(I38
S'D'
tp3407
((lp3408
I4003
aI4700
aI4380
a(lp3409
I3389
aI4062
aI6243
atp3410
s(I59
S'S'
tp3411
((lp3412
I5388
aI5688
aI4712
a(lp3413
I8626
aI8362
aI10673
atp3414
s(I51
S'D'
tp3415
((lp3416
I501
aI549
aI472
a(lp3417
I394
aI451
aI682
atp3418
s(I35
S'S'
tp3419
((lp3420
I5034
aI6021
aI5047
a(lp3421
I6534
aI7591
aI10447
atp3422
s(I20
S'I'
tp3423
((lp3424
I630
aI674
aI621
a(lp3425
I617
aI660
aI985
atp3426
s(I9
S'S'
tp3427
((lp3428
I5211
aI5849
aI5426
a(lp3429
I6059
aI6761
aI9883
atp3430
s(I14
S'H'
tp3431
((lp3432
I35
aI25
aI23
a(lp3433
I555
aI523
aI573
atp3434
s(I41
S'R'
tp3435
((lp3436
I29
aI22
aI19
a(lp3437
I15
aI7
aI5
atp3438
s(I26
S'N'
tp3439
((lp3440
I0
aI0
aI0
a(lp3441
I20
aI23
aI21
atp3442
s(I12
S'C'
tp3443
((lp3444
I837
aI798
aI576
a(lp3445
I714
aI694
aI820
atp3446
s(I71
S'A'
tp3447
((lp3448
I1
aI0
aI2
a(lp3449
I6
aI5
aI2
atp3450
s(I75
S'I'
tp3451
((lp3452
I33
aI2
aI2
a(lp3453
I8
aI3
aI0
atp3454
s(I64
S'R'
tp3455
((lp3456
I424
aI243
aI118
a(lp3457
I189
aI90
aI82
atp3458
s(I4
S'E'
tp3459
((lp3460
I0
aI0
aI0
a(lp3461
I3
aI2
aI6
atp3462
s(I17
g42
tp3463
((lp3464
I720
aI137
aI47
a(lp3465
I206
aI113
aI32
atp3466
s(I30
S'R'
tp3467
((lp3468
I10
aI3
aI0
a(lp3469
I7
aI0
aI0
atp3470
s(I8
S'G'
tp3471
((lp3472
I48
aI17
aI6
a(lp3473
I68
aI17
aI8
atp3474
s(I45
S'T'
tp3475
((lp3476
I3739
aI4154
aI3229
a(lp3477
I11625
aI11915
aI15465
atp3478
s(I33
S'Q'
tp3479
((lp3480
I1913
aI1822
aI1432
a(lp3481
I2488
aI2500
aI3493
atp3482
s(I5
S'Y'
tp3483
((lp3484
I662
aI651
aI429
a(lp3485
I473
aI312
aI337
atp3486
s(I61
S'W'
tp3487
((lp3488
I2
aI0
aI0
a(lp3489
I1
aI0
aI0
atp3490
s(I63
S'W'
tp3491
((lp3492
I181
aI181
aI110
a(lp3493
I170
aI112
aI90
atp3494
s(I26
S'L'
tp3495
((lp3496
I6394
aI7322
aI6841
a(lp3497
I9061
aI10126
aI15296
atp3498
s(I71
S'C'
tp3499
((lp3500
I15
aI5
aI2
a(lp3501
I23
aI4
aI0
atp3502
s(I64
S'T'
tp3503
((lp3504
I5804
aI6793
aI5689
a(lp3505
I10194
aI10418
aI14598
atp3506
s(I76
S'L'
tp3507
((lp3508
I25
aI5
aI3
a(lp3509
I22
aI9
aI3
atp3510
s(I42
S'L'
tp3511
((lp3512
I452
aI150
aI29
a(lp3513
I485
aI110
aI66
atp3514
s(I13
S'A'
tp3515
((lp3516
I6973
aI7939
aI6774
a(lp3517
I9042
aI9613
aI13067
atp3518
s(I18
S'A'
tp3519
((lp3520
I3563
aI4345
aI3809
a(lp3521
I5312
aI6127
aI8963
atp3522
s(I23
S'W'
tp3523
((lp3524
I3
aI3
aI0
a(lp3525
I2
aI1
aI0
atp3526
s(I9
S'W'
tp3527
((lp3528
I20
aI6
aI0
a(lp3529
I3
aI1
aI0
atp3530
s(I10
S'I'
tp3531
((lp3532
I0
aI0
aI0
a(lp3533
I1
aI0
aI0
atp3534
s(I64
S'V'
tp3535
((lp3536
I5994
aI7494
aI6176
a(lp3537
I19044
aI20942
aI29037
atp3538
s(I60
S'S'
tp3539
((lp3540
I3798
aI4691
aI4052
a(lp3541
I4881
aI5200
aI7204
atp3542
s(I19
S'S'
tp3543
((lp3544
I1874
aI2124
aI1877
a(lp3545
I2908
aI2978
aI4531
atp3546
s(I34
S'S'
tp3547
((lp3548
I3739
aI3845
aI2591
a(lp3549
I7097
aI7199
aI8335
atp3550
s(I55
S'W'
tp3551
((lp3552
I52
aI47
aI38
a(lp3553
I74
aI69
aI80
atp3554
s(I10
S'S'
tp3555
((lp3556
I7013
aI5259
aI2990
a(lp3557
I8188
aI5878
aI6094
atp3558
s(I56
S'W'
tp3559
((lp3560
I9
aI3
aI1
a(lp3561
I8
aI2
aI2
atp3562
s(I76
S'I'
tp3563
((lp3564
I31
aI4
aI0
a(lp3565
I22
aI6
aI0
atp3566
s(I61
S'S'
tp3567
((lp3568
I34
aI4
aI3
a(lp3569
I26
aI12
aI12
atp3570
s(I26
S'H'
tp3571
((lp3572
I0
aI0
aI0
a(lp3573
I1
aI0
aI0
atp3574
s(I24
S'C'
tp3575
((lp3576
I882
aI935
aI752
a(lp3577
I982
aI949
aI1311
atp3578
s(I70
g42
tp3579
((lp3580
I741
aI120
aI47
a(lp3581
I163
aI87
aI37
atp3582
s(I52
S'E'
tp3583
((lp3584
I376
aI406
aI363
a(lp3585
I444
aI468
aI765
atp3586
s(I36
S'G'
tp3587
((lp3588
I55
aI24
aI20
a(lp3589
I49
aI17
aI15
atp3590
s(I34
S'Q'
tp3591
((lp3592
I376
aI490
aI389
a(lp3593
I1701
aI1775
aI2345
atp3594
s(I5
g42
tp3595
((lp3596
I576
aI131
aI38
a(lp3597
I133
aI80
aI21
atp3598
s(I64
S'Y'
tp3599
((lp3600
I57
aI70
aI54
a(lp3601
I157
aI168
aI152
atp3602
s(I54
S'N'
tp3603
((lp3604
I716
aI670
aI485
a(lp3605
I942
aI849
aI1119
atp3606
s(I28
S'N'
tp3607
((lp3608
I607
aI667
aI636
a(lp3609
I481
aI574
aI836
atp3610
s(I51
S'L'
tp3611
((lp3612
I1155
aI1246
aI989
a(lp3613
I2892
aI3121
aI4179
atp3614
s(I52
S'V'
tp3615
((lp3616
I2019
aI2320
aI2189
a(lp3617
I3096
aI3782
aI5283
atp3618
s(I67
S'L'
tp3619
((lp3620
I3606
aI3849
aI3399
a(lp3621
I3738
aI3873
aI5644
atp3622
s(I4
S'M'
tp3623
((lp3624
I22
aI25
aI14
a(lp3625
I28
aI30
aI34
atp3626
s(I14
S'A'
tp3627
((lp3628
I2551
aI2860
aI2670
a(lp3629
I3259
aI3687
aI5172
atp3630
s(I21
S'G'
tp3631
((lp3632
I3219
aI3767
aI3215
a(lp3633
I4136
aI4675
aI6650
atp3634
s(I11
g42
tp3635
((lp3636
I482
aI103
aI21
a(lp3637
I134
aI47
aI21
atp3638
s(I43
S'V'
tp3639
((lp3640
I3218
aI3629
aI3029
a(lp3641
I3662
aI3825
aI5594
atp3642
s(I63
S'V'
tp3643
((lp3644
I1034
aI1029
aI582
a(lp3645
I834
aI648
aI688
atp3646
s(I15
S'E'
tp3647
((lp3648
I1316
aI840
aI610
a(lp3649
I1062
aI653
aI728
atp3650
s(I20
S'S'
tp3651
((lp3652
I3695
aI3896
aI3723
a(lp3653
I3769
aI4231
aI5912
atp3654
s(I22
S'Y'
tp3655
((lp3656
I407
aI514
aI517
a(lp3657
I511
aI621
aI876
atp3658
s(I27
S'Y'
tp3659
((lp3660
I2905
aI1707
aI876
a(lp3661
I2330
aI1326
aI1214
atp3662
s(I37
S'M'
tp3663
((lp3664
I1519
aI1593
aI1492
a(lp3665
I1977
aI2159
aI3154
atp3666
s(I24
S'N'
tp3667
((lp3668
I699
aI778
aI720
a(lp3669
I1213
aI1385
aI1830
atp3670
s(I76
S'D'
tp3671
((lp3672
I11
aI1
aI0
a(lp3673
I7
aI6
aI0
atp3674
s(I53
S'R'
tp3675
((lp3676
I4172
aI4972
aI4439
a(lp3677
I4705
aI5422
aI7779
atp3678
s(I14
S'T'
tp3679
((lp3680
I5063
aI5622
aI4910
a(lp3681
I5840
aI6370
aI8910
atp3682
s(I65
S'Y'
tp3683
((lp3684
I784
aI629
aI543
a(lp3685
I1516
aI1470
aI2017
atp3686
s(I39
S'E'
tp3687
((lp3688
I411
aI499
aI416
a(lp3689
I294
aI364
aI504
atp3690
s(I75
S'T'
tp3691
((lp3692
I0
aI0
aI0
a(lp3693
I4
aI0
aI0
atp3694
s(I45
S'H'
tp3695
((lp3696
I1595
aI1778
aI1601
a(lp3697
I2689
aI3157
aI4358
atp3698
s(I76
S'W'
tp3699
((lp3700
I3
aI0
aI1
a(lp3701
I7
aI2
aI0
atp3702
s(I75
S'F'
tp3703
((lp3704
I13
aI6
aI0
a(lp3705
I19
aI24
aI17
atp3706
s(I20
S'T'
tp3707
((lp3708
I2065
aI2381
aI2100
a(lp3709
I2768
aI3095
aI4451
atp3710
s(I53
S'S'
tp3711
((lp3712
I2914
aI3313
aI2959
a(lp3713
I3785
aI4146
aI6097
atp3714
s(I15
S'A'
tp3715
((lp3716
I4973
aI5939
aI5495
a(lp3717
I6008
aI6797
aI9437
atp3718
s(I34
S'M'
tp3719
((lp3720
I72
aI85
aI49
a(lp3721
I221
aI210
aI230
atp3722
s(I24
S'K'
tp3723
((lp3724
I399
aI338
aI256
a(lp3725
I323
aI290
aI344
atp3726
s(I48
S'F'
tp3727
((lp3728
I38
aI8
aI3
a(lp3729
I39
aI17
aI4
atp3730
s(I11
S'T'
tp3731
((lp3732
I4549
aI4602
aI4050
a(lp3733
I2396
aI2384
aI3502
atp3734
s(I67
S'P'
tp3735
((lp3736
I49
aI17
aI12
a(lp3737
I18
aI13
aI3
atp3738
s(I16
S'R'
tp3739
((lp3740
I4587
aI5128
aI4619
a(lp3741
I6763
aI7406
aI10397
atp3742
s(I35
S'C'
tp3743
((lp3744
I1572
aI1668
aI1262
a(lp3745
I1748
aI2048
aI2591
atp3746
s(I8
S'V'
tp3747
((lp3748
I1355
aI1141
aI694
a(lp3749
I1457
aI1091
aI1120
atp3750
s(I53
S'A'
tp3751
((lp3752
I2885
aI3216
aI2943
a(lp3753
I3738
aI4185
aI5978
atp3754
s(I20
S'Y'
tp3755
((lp3756
I489
aI667
aI600
a(lp3757
I621
aI714
aI906
atp3758
s(I25
S'Y'
tp3759
((lp3760
I1911
aI2336
aI1955
a(lp3761
I2777
aI3165
aI4528
atp3762
s(I65
S'D'
tp3763
((lp3764
I3122
aI2872
aI1655
a(lp3765
I6385
aI4534
aI5111
atp3766
s(I45
S'V'
tp3767
((lp3768
I8911
aI9820
aI7404
a(lp3769
I22665
aI21017
aI26131
atp3770
s(I21
S'T'
tp3771
((lp3772
I544
aI623
aI520
a(lp3773
I540
aI608
aI983
atp3774
s(I22
S'L'
tp3775
((lp3776
I4877
aI5449
aI4875
a(lp3777
I6086
aI6813
aI9968
atp3778
s(I69
S'N'
tp3779
((lp3780
I232
aI132
aI51
a(lp3781
I185
aI112
aI41
atp3782
s(I43
S'N'
tp3783
((lp3784
I0
aI0
aI0
a(lp3785
I1
aI0
aI0
atp3786
s(I20
S'P'
tp3787
((lp3788
I2166
aI2511
aI2163
a(lp3789
I2786
aI3043
aI4510
atp3790
s(I5
S'I'
tp3791
((lp3792
I1157
aI1142
aI1027
a(lp3793
I1670
aI1671
aI2376
atp3794
s(I45
S'E'
tp3795
((lp3796
I156
aI42
aI19
a(lp3797
I110
aI24
aI9
atp3798
s(I76
S'R'
tp3799
((lp3800
I19
aI1
aI3
a(lp3801
I28
aI8
aI2
atp3802
s(I24
S'V'
tp3803
((lp3804
I1704
aI2031
aI1786
a(lp3805
I2073
aI2239
aI3446
atp3806
s(I6
S'W'
tp3807
((lp3808
I54
aI16
aI11
a(lp3809
I65
aI22
aI9
atp3810
s(I48
S'K'
tp3811
((lp3812
I395
aI493
aI425
a(lp3813
I255
aI296
aI426
atp3814
s(I2
S'K'
tp3815
((lp3816
I4
aI4
aI3
a(lp3817
I21
aI17
aI13
atp3818
s(I17
S'W'
tp3819
((lp3820
I2
aI0
aI0
a(lp3821
I2
aI2
aI0
atp3822
s(I42
S'W'
tp3823
((lp3824
I67
aI12
aI4
a(lp3825
I67
aI10
aI4
atp3826
s(I75
S'K'
tp3827
((lp3828
I26
aI5
aI5
a(lp3829
I38
aI8
aI10
atp3830
s(I34
S'G'
tp3831
((lp3832
I7479
aI8054
aI6446
a(lp3833
I8593
aI9249
aI12570
atp3834
s(I29
S'K'
tp3835
((lp3836
I129
aI142
aI126
a(lp3837
I85
aI86
aI123
atp3838
s(I14
S'M'
tp3839
((lp3840
I100
aI118
aI115
a(lp3841
I309
aI350
aI445
atp3842
s(I41
S'Q'
tp3843
((lp3844
I267
aI351
aI260
a(lp3845
I140
aI128
aI228
atp3846
s(I37
S'N'
tp3847
((lp3848
I1485
aI1801
aI1688
a(lp3849
I1338
aI1681
aI2489
atp3850
s(I54
S'A'
tp3851
((lp3852
I2481
aI2602
aI2205
a(lp3853
I2786
aI2895
aI4176
atp3854
s(I48
S'M'
tp3855
((lp3856
I4
aI1
aI1
a(lp3857
I11
aI3
aI0
atp3858
s(I26
S'Y'
tp3859
((lp3860
I0
aI0
aI0
a(lp3861
I0
aI0
aI0
atp3862
s(I5
S'L'
tp3863
((lp3864
I5348
aI6286
aI5530
a(lp3865
I4834
aI5120
aI7043
atp3866
s(I27
S'C'
tp3867
((lp3868
I888
aI751
aI765
a(lp3869
I703
aI748
aI1078
atp3870
s(I55
S'L'
tp3871
((lp3872
I3707
aI4436
aI3974
a(lp3873
I4403
aI4828
aI7301
atp3874
s(I34
S'E'
tp3875
((lp3876
I107
aI179
aI127
a(lp3877
I99
aI85
aI143
atp3878
s(I47
S'L'
tp3879
((lp3880
I0
aI0
aI0
a(lp3881
I11
aI9
aI11
atp3882
s(I4
S'H'
tp3883
((lp3884
I17
aI12
aI3
a(lp3885
I21
aI8
aI4
atp3886
s(I2
S'H'
tp3887
((lp3888
I117
aI95
aI62
a(lp3889
I199
aI188
aI231
atp3890
s(I71
S'L'
tp3891
((lp3892
I3791
aI4159
aI3726
a(lp3893
I5079
aI5407
aI7787
atp3894
s(I67
S'I'
tp3895
((lp3896
I1405
aI1664
aI1500
a(lp3897
I1580
aI1684
aI2414
atp3898
s(I38
S'Y'
tp3899
((lp3900
I2474
aI2669
aI2546
a(lp3901
I1747
aI2142
aI3035
atp3902
s(I43
S'Y'
tp3903
((lp3904
I141
aI90
aI44
a(lp3905
I78
aI40
aI37
atp3906
s(I58
S'G'
tp3907
((lp3908
I5100
aI5076
aI3688
a(lp3909
I12772
aI10333
aI11955
atp3910
s(I69
S'H'
tp3911
((lp3912
I380
aI207
aI113
a(lp3913
I755
aI441
aI311
atp3914
s(I52
S'T'
tp3915
((lp3916
I2034
aI2319
aI2155
a(lp3917
I2339
aI2703
aI3940
atp3918
s(I68
S'S'
tp3919
((lp3920
I3950
aI3480
aI1801
a(lp3921
I7955
aI5927
aI5089
atp3922
s(I7
S'S'
tp3923
((lp3924
I6727
aI7675
aI6755
a(lp3925
I4042
aI4294
aI6171
atp3926
s(I64
g42
tp3927
((lp3928
I157
aI23
aI5
a(lp3929
I41
aI10
aI5
atp3930
s(I65
S'G'
tp3931
((lp3932
I10604
aI11435
aI10534
a(lp3933
I12155
aI13762
aI20698
atp3934
s(I11
S'M'
tp3935
((lp3936
I48
aI40
aI39
a(lp3937
I4
aI8
aI10
atp3938
s(I2
S'F'
tp3939
((lp3940
I37
aI32
aI17
a(lp3941
I254
aI186
aI247
atp3942
s(I71
S'N'
tp3943
((lp3944
I0
aI0
aI0
a(lp3945
I0
aI0
aI0
atp3946
s(I37
S'P'
tp3947
((lp3948
I5456
aI6270
aI5726
a(lp3949
I5767
aI6161
aI8941
atp3950
s(I43
S'T'
tp3951
((lp3952
I5
aI0
aI0
a(lp3953
I4
aI0
aI0
atp3954
s(I12
S'V'
tp3955
((lp3956
I109
aI84
aI24
a(lp3957
I128
aI76
aI74
atp3958
s(I73
g42
tp3959
((lp3960
I243
aI45
aI16
a(lp3961
I98
aI23
aI13
atp3962
s(I43
S'F'
tp3963
((lp3964
I872
aI791
aI632
a(lp3965
I848
aI781
aI1002
atp3966
s(I42
S'Q'
tp3967
((lp3968
I111
aI46
aI9
a(lp3969
I498
aI174
aI54
atp3970
s(I27
S'G'
tp3971
((lp3972
I12
aI3
aI0
a(lp3973
I8
aI1
aI0
atp3974
s(I55
S'A'
tp3975
((lp3976
I4874
aI5728
aI4956
a(lp3977
I6920
aI8014
aI11827
atp3978
s(I70
S'M'
tp3979
((lp3980
I0
aI0
aI0
a(lp3981
I1
aI0
aI0
atp3982
s(I48
S'C'
tp3983
((lp3984
I114
aI43
aI11
a(lp3985
I253
aI52
aI19
atp3986
s(I2
S'C'
tp3987
((lp3988
I202
aI149
aI124
a(lp3989
I782
aI630
aI815
atp3990
s(I18
S'L'
tp3991
((lp3992
I4961
aI6017
aI5415
a(lp3993
I5886
aI7033
aI10024
atp3994
s(I41
S'N'
tp3995
((lp3996
I681
aI345
aI121
a(lp3997
I715
aI382
aI273
atp3998
s(I10
S'L'
tp3999
((lp4000
I56
aI30
aI13
a(lp4001
I32
aI19
aI24
atp4002
s(I44
S'Y'
tp4003
((lp4004
I51
aI8
aI3
a(lp4005
I37
aI8
aI5
atp4006
s(I21
S'E'
tp4007
((lp4008
I704
aI874
aI807
a(lp4009
I578
aI712
aI926
atp4010
s(I29
S'C'
tp4011
((lp4012
I1777
aI2109
aI1815
a(lp4013
I2736
aI3116
aI4511
atp4014
s(I62
S'D'
tp4015
((lp4016
I1037
aI1335
aI1128
a(lp4017
I1939
aI2025
aI2920
atp4018
s(I60
S'L'
tp4019
((lp4020
I711
aI618
aI438
a(lp4021
I1498
aI1077
aI1114
atp4022
s(I59
S'V'
tp4023
((lp4024
I127
aI57
aI26
a(lp4025
I221
aI84
aI65
atp4026
s(I49
S'R'
tp4027
((lp4028
I67
aI45
aI12
a(lp4029
I57
aI24
aI12
atp4030
s(I30
S'N'
tp4031
((lp4032
I0
aI0
aI0
a(lp4033
I0
aI0
aI0
atp4034
s(I51
S'G'
tp4035
((lp4036
I1383
aI1764
aI1557
a(lp4037
I3014
aI3568
aI5116
atp4038
s(I48
S'E'
tp4039
((lp4040
I143
aI46
aI10
a(lp4041
I180
aI31
aI12
atp4042
s(I2
S'A'
tp4043
((lp4044
I2634
aI2644
aI2129
a(lp4045
I8923
aI8633
aI11186
atp4046
s(I17
S'M'
tp4047
((lp4048
I1304
aI1436
aI1184
a(lp4049
I2602
aI2818
aI3989
atp4050
s(I71
S'H'
tp4051
((lp4052
I14
aI3
aI0
a(lp4053
I6
aI1
aI0
atp4054
s(I38
S'R'
tp4055
((lp4056
I4771
aI5234
aI4867
a(lp4057
I4574
aI5335
aI7926
atp4058
s(I52
g42
tp4059
((lp4060
I552
aI99
aI27
a(lp4061
I181
aI66
aI39
atp4062
s(I50
g42
tp4063
((lp4064
I83
aI15
aI1
a(lp4065
I7
aI0
aI0
atp4066
s(I76
S'F'
tp4067
((lp4068
I3
aI0
aI1
a(lp4069
I5
aI0
aI0
atp4070
s(I72
S'P'
tp4071
((lp4072
I366
aI93
aI17
a(lp4073
I334
aI90
aI37
atp4074
s(I49
S'P'
tp4075
((lp4076
I211
aI72
aI32
a(lp4077
I167
aI56
aI23
atp4078
s(I43
S'Q'
tp4079
((lp4080
I0
aI0
aI0
a(lp4081
I1
aI0
aI0
atp4082
s(I40
S'A'
tp4083
((lp4084
I8978
aI8846
aI7759
a(lp4085
I11908
aI12811
aI18073
atp4086
s(I33
S'N'
tp4087
((lp4088
I2040
aI2103
aI1779
a(lp4089
I3990
aI4073
aI5722
atp4090
s(I23
S'N'
tp4091
((lp4092
I5
aI4
aI2
a(lp4093
I2
aI0
aI1
atp4094
s(I53
S'Q'
tp4095
((lp4096
I1332
aI1513
aI1381
a(lp4097
I1221
aI1360
aI1935
atp4098
s(I65
S'F'
tp4099
((lp4100
I705
aI773
aI561
a(lp4101
I1612
aI1643
aI2347
atp4102
s(I77
S'W'
tp4103
((lp4104
I428
aI426
aI372
a(lp4105
I320
aI356
aI441
atp4106
s(I65
S'T'
tp4107
((lp4108
I2225
aI2734
aI2624
a(lp4109
I2537
aI2898
aI4089
atp4110
s(I11
S'E'
tp4111
((lp4112
I500
aI174
aI55
a(lp4113
I376
aI148
aI51
atp4114
s(I62
S'H'
tp4115
((lp4116
I1785
aI2090
aI1862
a(lp4117
I2393
aI2542
aI3625
atp4118
s(I22
S'N'
tp4119
((lp4120
I818
aI1039
aI1038
a(lp4121
I747
aI794
aI1329
atp4122
s(I18
S'G'
tp4123
((lp4124
I1596
aI1869
aI1740
a(lp4125
I2744
aI3207
aI4854
atp4126
s(I43
S'L'
tp4127
((lp4128
I2189
aI2275
aI2112
a(lp4129
I2319
aI2641
aI3714
atp4130
s(I76
S'C'
tp4131
((lp4132
I26
aI8
aI2
a(lp4133
I37
aI16
aI19
atp4134
s(I67
g42
tp4135
((lp4136
I116
aI16
aI3
a(lp4137
I43
aI19
aI9
atp4138
s(I35
S'L'
tp4139
((lp4140
I1717
aI1699
aI1180
a(lp4141
I1986
aI1951
aI1993
atp4142
s(I13
S'W'
tp4143
((lp4144
I123
aI88
aI56
a(lp4145
I477
aI341
aI383
atp4146
s(I70
S'E'
tp4147
((lp4148
I114
aI23
aI3
a(lp4149
I33
aI7
aI10
atp4150
s(I6
S'G'
tp4151
((lp4152
I2349
aI2216
aI1729
a(lp4153
I2129
aI1763
aI1999
atp4154
s(I17
S'G'
tp4155
((lp4156
I4947
aI5853
aI5217
a(lp4157
I4310
aI4862
aI6824
atp4158
s(I42
S'G'
tp4159
((lp4160
I590
aI174
aI45
a(lp4161
I445
aI125
aI38
atp4162
s(I46
S'L'
tp4163
((lp4164
I1594
aI1430
aI767
a(lp4165
I2544
aI1734
aI1230
atp4166
s(I63
S'E'
tp4167
((lp4168
I215
aI211
aI120
a(lp4169
I79
aI54
aI58
atp4170
s(I61
S'V'
tp4171
((lp4172
I1985
aI2226
aI1704
a(lp4173
I3279
aI3691
aI4924
atp4174
s(I39
S'Q'
tp4175
((lp4176
I270
aI294
aI218
a(lp4177
I127
aI128
aI161
atp4178
s(I44
S'Q'
tp4179
((lp4180
I42
aI13
aI0
a(lp4181
I21
aI8
aI5
atp4182
s(I38
g42
tp4183
((lp4184
I386
aI64
aI22
a(lp4185
I92
aI39
aI14
atp4186
s(I21
S'M'
tp4187
((lp4188
I362
aI388
aI342
a(lp4189
I414
aI465
aI653
atp4190
s(I62
S'L'
tp4191
((lp4192
I5984
aI6705
aI6416
a(lp4193
I6012
aI6744
aI9525
atp4194
s(I36
S'A'
tp4195
((lp4196
I182
aI53
aI15
a(lp4197
I186
aI48
aI45
atp4198
s(I41
S'A'
tp4199
((lp4200
I14721
aI15051
aI13348
a(lp4201
I16044
aI17075
aI24398
atp4202
s(I5
S'P'
tp4203
((lp4204
I0
aI0
aI1
a(lp4205
I2
aI0
aI0
atp4206
s(I54
S'Q'
tp4207
((lp4208
I1544
aI1487
aI1306
a(lp4209
I2431
aI2461
aI3278
atp4210
s(I17
S'E'
tp4211
((lp4212
I88
aI55
aI25
a(lp4213
I98
aI69
aI33
atp4214
s(I22
S'W'
tp4215
((lp4216
I1732
aI1849
aI1545
a(lp4217
I2398
aI2685
aI3669
atp4218
s(I27
S'S'
tp4219
((lp4220
I1271
aI670
aI332
a(lp4221
I837
aI416
aI317
atp4222
s(I70
S'K'
tp4223
((lp4224
I76
aI17
aI5
a(lp4225
I34
aI14
aI4
atp4226
s(I39
S'S'
tp4227
((lp4228
I2473
aI2694
aI2007
a(lp4229
I2043
aI2149
aI2877
atp4230
s(I36
S'C'
tp4231
((lp4232
I1031
aI789
aI670
a(lp4233
I1216
aI957
aI1347
atp4234
s(I74
S'H'
tp4235
((lp4236
I0
aI0
aI0
a(lp4237
I1
aI1
aI0
atp4238
s(I51
S'H'
tp4239
((lp4240
I449
aI502
aI394
a(lp4241
I801
aI757
aI1019
atp4242
s(I33
S'W'
tp4243
((lp4244
I1515
aI1516
aI1228
a(lp4245
I2225
aI2039
aI2693
atp4246
s(I49
S'H'
tp4247
((lp4248
I15
aI6
aI9
a(lp4249
I14
aI22
aI20
atp4250
s(I35
S'W'
tp4251
((lp4252
I128
aI63
aI38
a(lp4253
I138
aI76
aI74
atp4254
s(I43
S'I'
tp4255
((lp4256
I1400
aI1563
aI1452
a(lp4257
I727
aI793
aI1102
atp4258
s(I34
S'T'
tp4259
((lp4260
I1575
aI1365
aI693
a(lp4261
I5765
aI4543
aI3976
atp4262
s(I58
S'W'
tp4263
((lp4264
I111
aI128
aI70
a(lp4265
I340
aI273
aI202
atp4266
s(I65
S'P'
tp4267
((lp4268
I1732
aI809
aI296
a(lp4269
I2084
aI841
aI432
atp4270
s(I68
S'C'
tp4271
((lp4272
I452
aI367
aI192
a(lp4273
I1803
aI1305
aI888
atp4274
s(I53
g42
tp4275
((lp4276
I74
aI14
aI5
a(lp4277
I25
aI12
aI14
atp4278
s(I23
S'F'
tp4279
((lp4280
I193
aI207
aI210
a(lp4281
I160
aI179
aI257
atp4282
s(I53
S'Y'
tp4283
((lp4284
I268
aI349
aI303
a(lp4285
I532
aI624
aI841
atp4286
s(I46
S'P'
tp4287
((lp4288
I19
aI7
aI1
a(lp4289
I8
aI2
aI7
atp4290
s(I65
S'W'
tp4291
((lp4292
I318
aI226
aI138
a(lp4293
I820
aI591
aI564
atp4294
s(I61
S'R'
tp4295
((lp4296
I54
aI46
aI17
a(lp4297
I29
aI25
aI22
atp4298
s(I44
S'M'
tp4299
((lp4300
I305
aI194
aI60
a(lp4301
I192
aI100
aI59
atp4302
s(I8
S'K'
tp4303
((lp4304
I66
aI15
aI3
a(lp4305
I53
aI20
aI20
atp4306
s(I2
S'V'
tp4307
((lp4308
I210
aI179
aI127
a(lp4309
I431
aI343
aI450
atp4310
s(I41
S'E'
tp4311
((lp4312
I75
aI25
aI7
a(lp4313
I42
aI12
aI1
atp4314
s(I34
S'R'
tp4315
((lp4316
I149
aI97
aI53
a(lp4317
I211
aI157
aI128
atp4318
s(I43
S'D'
tp4319
((lp4320
I0
aI0
aI0
a(lp4321
I1
aI0
aI0
atp4322
s(I12
S'F'
tp4323
((lp4324
I69
aI42
aI17
a(lp4325
I123
aI96
aI73
atp4326
s(I40
S'K'
tp4327
((lp4328
I159
aI149
aI104
a(lp4329
I111
aI72
aI103
atp4330
s(I33
S'D'
tp4331
((lp4332
I1518
aI1370
aI1111
a(lp4333
I1900
aI1932
aI2552
atp4334
s(I37
S'A'
tp4335
((lp4336
I4358
aI4808
aI4252
a(lp4337
I6064
aI6804
aI9629
atp4338
s(I42
S'A'
tp4339
((lp4340
I3186
aI1530
aI535
a(lp4341
I2636
aI1256
aI677
atp4342
s(I27
S'W'
tp4343
((lp4344
I3
aI0
aI0
a(lp4345
I4
aI1
aI1
atp4346
s(I13
S'V'
tp4347
((lp4348
I7990
aI9221
aI8455
a(lp4349
I6935
aI8013
aI12020
atp4350
s(I55
S'Q'
tp4351
((lp4352
I1397
aI1544
aI1343
a(lp4353
I2055
aI2326
aI3302
atp4354
s(I52
S'W'
tp4355
((lp4356
I369
aI432
aI363
a(lp4357
I485
aI545
aI660
atp4358
s(I36
S'D'
tp4359
((lp4360
I2
aI0
aI0
a(lp4361
I0
aI0
aI0
atp4362
s(I67
S'K'
tp4363
((lp4364
I49
aI4
aI5
a(lp4365
I22
aI10
aI9
atp4366
s(I10
g42
tp4367
((lp4368
I65
aI18
aI3
a(lp4369
I6
aI4
aI2
atp4370
s(I2
S'S'
tp4371
((lp4372
I1273
aI1310
aI1100
a(lp4373
I5766
aI5384
aI7041
atp4374
s(I45
S'D'
tp4375
((lp4376
I51
aI11
aI7
a(lp4377
I44
aI23
aI8
atp4378
s(I44
S'I'
tp4379
((lp4380
I74
aI69
aI74
a(lp4381
I0
aI1
aI0
atp4382
s(I29
S'S'
tp4383
((lp4384
I2286
aI2754
aI2512
a(lp4385
I2729
aI3144
aI4549
atp4386
s(I36
S'I'
tp4387
((lp4388
I1159
aI1311
aI1127
a(lp4389
I717
aI909
aI1201
atp4390
s(I46
S'E'
tp4391
((lp4392
I5951
aI3193
aI1076
a(lp4393
I3386
aI1502
aI744
atp4394
s(I30
S'H'
tp4395
((lp4396
I3
aI1
aI2
a(lp4397
I1
aI0
aI0
atp4398
s(I28
S'H'
tp4399
((lp4400
I1076
aI1212
aI1074
a(lp4401
I1120
aI1215
aI1694
atp4402
s(I12
S'Y'
tp4403
((lp4404
I60
aI66
aI37
a(lp4405
I151
aI123
aI138
atp4406
s(I9
S'F'
tp4407
((lp4408
I89
aI25
aI8
a(lp4409
I104
aI41
aI52
atp4410
s(I15
S'W'
tp4411
((lp4412
I2
aI2
aI0
a(lp4413
I1
aI0
aI0
atp4414
s(I25
g42
tp4415
((lp4416
I529
aI97
aI25
a(lp4417
I92
aI38
aI18
atp4418
s(I59
S'K'
tp4419
((lp4420
I1
aI0
aI0
a(lp4421
I0
aI0
aI0
atp4422
s(I70
S'C'
tp4423
((lp4424
I11
aI18
aI16
a(lp4425
I20
aI17
aI17
atp4426
s(I13
S'R'
tp4427
((lp4428
I13877
aI14776
aI11510
a(lp4429
I22816
aI23000
aI27764
atp4430
s(I13
S'K'
tp4431
((lp4432
I356
aI437
aI316
a(lp4433
I828
aI780
aI837
atp4434
s(I36
S'K'
tp4435
((lp4436
I2
aI0
aI0
a(lp4437
I0
aI0
aI0
atp4438
s(I51
S'P'
tp4439
((lp4440
I1892
aI2097
aI1419
a(lp4441
I5248
aI4793
aI5333
atp4442
s(I71
S'Y'
tp4443
((lp4444
I97
aI27
aI4
a(lp4445
I30
aI11
aI12
atp4446
s(I38
S'A'
tp4447
((lp4448
I6249
aI6717
aI5974
a(lp4449
I5824
aI6902
aI10057
atp4450
s(I63
S'P'
tp4451
((lp4452
I2308
aI2301
aI1365
a(lp4453
I1243
aI988
aI1085
atp4454
s(I43
S'A'
tp4455
((lp4456
I3
aI3
aI0
a(lp4457
I10
aI2
aI0
atp4458
s(I23
S'L'
tp4459
((lp4460
I5718
aI6135
aI5644
a(lp4461
I4850
aI5248
aI8307
atp4462
s(I68
S'K'
tp4463
((lp4464
I0
aI0
aI0
a(lp4465
I0
aI0
aI0
atp4466
s(I65
S'V'
tp4467
((lp4468
I1425
aI1665
aI1357
a(lp4469
I3634
aI3859
aI5331
atp4470
s(I39
S'L'
tp4471
((lp4472
I1745
aI1940
aI1471
a(lp4473
I1748
aI1822
aI2227
atp4474
s(I8
S'H'
tp4475
((lp4476
I3
aI2
aI2
a(lp4477
I8
aI0
aI1
atp4478
s(I21
S'H'
tp4479
((lp4480
I105
aI124
aI120
a(lp4481
I176
aI191
aI299
atp4482
s(I22
S'H'
tp4483
((lp4484
I185
aI203
aI257
a(lp4485
I230
aI271
aI377
atp4486
s(I44
S'E'
tp4487
((lp4488
I66
aI16
aI7
a(lp4489
I14
aI7
aI9
atp4490
s(I46
S'I'
tp4491
((lp4492
I3278
aI3465
aI1771
a(lp4493
I12220
aI10796
aI11729
atp4494
s(I72
S'S'
tp4495
((lp4496
I1842
aI1164
aI531
a(lp4497
I2369
aI1524
aI1177
atp4498
s(I15
S'S'
tp4499
((lp4500
I891
aI685
aI417
a(lp4501
I443
aI299
aI330
atp4502
s(I11
S'S'
tp4503
((lp4504
I9765
aI9863
aI8762
a(lp4505
I4780
aI4776
aI7181
atp4506
s(I62
S'S'
tp4507
((lp4508
I5960
aI6983
aI6284
a(lp4509
I7674
aI8730
aI13034
atp4510
s(I39
S'N'
tp4511
((lp4512
I170
aI162
aI153
a(lp4513
I273
aI291
aI384
atp4514
s(I13
S'Y'
tp4515
((lp4516
I516
aI451
aI314
a(lp4517
I2460
aI2134
aI2764
atp4518
s(I18
S'Y'
tp4519
((lp4520
I944
aI1137
aI909
a(lp4521
I1551
aI1758
aI2506
atp4522
s(I13
S'G'
tp4523
((lp4524
I2700
aI2447
aI2191
a(lp4525
I1875
aI1834
aI2521
atp4526
s(I4
g42
tp4527
((lp4528
I964
aI206
aI56
a(lp4529
I261
aI146
aI84
atp4530
s(I29
S'N'
tp4531
((lp4532
I646
aI769
aI676
a(lp4533
I632
aI685
aI1173
atp4534
s(I60
S'K'
tp4535
((lp4536
I880
aI903
aI683
a(lp4537
I1099
aI1089
aI1206
atp4538
s(I68
S'E'
tp4539
((lp4540
I18
aI10
aI6
a(lp4541
I11
aI4
aI3
atp4542
s(I39
S'A'
tp4543
((lp4544
I545
aI517
aI425
a(lp4545
I634
aI704
aI881
atp4546
s(I44
S'A'
tp4547
((lp4548
I226
aI70
aI18
a(lp4549
I153
aI28
aI8
atp4550
s(I7
S'F'
tp4551
((lp4552
I5
aI0
aI0
a(lp4553
I0
aI0
aI0
atp4554
s(I58
S'D'
tp4555
((lp4556
I471
aI461
aI450
a(lp4557
I478
aI515
aI861
atp4558
s(I44
S'V'
tp4559
((lp4560
I3312
aI3615
aI3145
a(lp4561
I7229
aI7671
aI10960
atp4562
s(I3
S'P'
tp4563
((lp4564
I8
aI8
aI2
a(lp4565
I3
aI2
aI4
atp4566
s(I74
S'G'
tp4567
((lp4568
I2
aI0
aI6
a(lp4569
I2
aI1
aI1
atp4570
s(I9
S'N'
tp4571
((lp4572
I3165
aI3751
aI3422
a(lp4573
I3162
aI3150
aI4283
atp4574
s(I24
S'D'
tp4575
((lp4576
I2277
aI2428
aI2285
a(lp4577
I2654
aI2816
aI4337
atp4578
s(I62
S'W'
tp4579
((lp4580
I172
aI250
aI205
a(lp4581
I286
aI328
aI487
atp4582
s(I2
S'L'
tp4583
((lp4584
I18
aI11
aI10
a(lp4585
I72
aI89
aI125
atp4586
s(I19
g42
tp4587
((lp4588
I437
aI83
aI18
a(lp4589
I86
aI45
aI19
atp4590
s(I15
S'N'
tp4591
((lp4592
I57
aI22
aI12
a(lp4593
I22
aI13
aI22
atp4594
s(I39
S'C'
tp4595
((lp4596
I339
aI278
aI210
a(lp4597
I283
aI304
aI367
atp4598
s(I53
S'V'
tp4599
((lp4600
I577
aI597
aI584
a(lp4601
I794
aI901
aI1446
atp4602
s(I31
S'E'
tp4603
((lp4604
I700
aI651
aI665
a(lp4605
I506
aI633
aI855
atp4606
s(I67
S'T'
tp4607
((lp4608
I5270
aI5401
aI3530
a(lp4609
I8634
aI7091
aI7929
atp4610
s(I52
S'H'
tp4611
((lp4612
I943
aI1042
aI991
a(lp4613
I1434
aI1604
aI2347
atp4614
s(I3
S'R'
tp4615
((lp4616
I22
aI17
aI9
a(lp4617
I23
aI18
aI17
atp4618
s(I35
S'G'
tp4619
((lp4620
I1961
aI2115
aI1882
a(lp4621
I1583
aI1714
aI2512
atp4622
s(I27
S'H'
tp4623
((lp4624
I3226
aI2672
aI2318
a(lp4625
I1816
aI1730
aI2267
atp4626
s(I60
S'G'
tp4627
((lp4628
I5363
aI5783
aI4800
a(lp4629
I7614
aI7287
aI9501
atp4630
s(I23
S'D'
tp4631
((lp4632
I0
aI1
aI3
a(lp4633
I5
aI3
aI0
atp4634
s(I60
S'Q'
tp4635
((lp4636
I2069
aI1990
aI1396
a(lp4637
I2401
aI1946
aI2153
atp4638
s(I74
S'S'
tp4639
((lp4640
I68
aI8
aI4
a(lp4641
I11
aI3
aI1
atp4642
s(I21
S'P'
tp4643
((lp4644
I12
aI5
aI3
a(lp4645
I13
aI3
aI7
atp4646
s(I44
S'R'
tp4647
((lp4648
I57
aI14
aI6
a(lp4649
I63
aI20
aI9
atp4650
s(I3
S'T'
tp4651
((lp4652
I2031
aI1667
aI1570
a(lp4653
I2284
aI2365
aI3346
atp4654
s(I19
S'A'
tp4655
((lp4656
I2673
aI3012
aI2630
a(lp4657
I2964
aI3312
aI4875
atp4658
s(I24
S'A'
tp4659
((lp4660
I1413
aI1546
aI1320
a(lp4661
I1445
aI1577
aI2115
atp4662
s(I13
S'F'
tp4663
((lp4664
I41
aI21
aI19
a(lp4665
I181
aI111
aI102
atp4666
s(I20
S'E'
tp4667
((lp4668
I1254
aI1254
aI1193
a(lp4669
I1964
aI2119
aI3127
atp4670
s(I2
S'G'
tp4671
((lp4672
I2051
aI1657
aI1179
a(lp4673
I5824
aI4488
aI5119
atp4674
s(I32
S'Y'
tp4675
((lp4676
I332
aI344
aI255
a(lp4677
I313
aI336
aI450
atp4678
s(I27
S'L'
tp4679
((lp4680
I749
aI280
aI69
a(lp4681
I246
aI106
aI48
atp4682
s(I68
S'M'
tp4683
((lp4684
I83
aI47
aI11
a(lp4685
I172
aI74
aI26
atp4686
s(I14
S'C'
tp4687
((lp4688
I1101
aI1195
aI1175
a(lp4689
I1192
aI1360
aI2053
atp4690
s(I3
S'W'
tp4691
((lp4692
I1
aI0
aI0
a(lp4693
I0
aI1
aI0
atp4694
s(I7
S'M'
tp4695
((lp4696
I55
aI44
aI41
a(lp4697
I223
aI179
aI254
atp4698
s(I51
S'C'
tp4699
((lp4700
I191
aI271
aI200
a(lp4701
I385
aI470
aI597
atp4702
s(I35
S'R'
tp4703
((lp4704
I3397
aI3899
aI3243
a(lp4705
I7395
aI7939
aI9968
atp4706
s(I25
S'C'
tp4707
((lp4708
I771
aI935
aI766
a(lp4709
I949
aI1047
aI1526
atp4710
s(I12
S'I'
tp4711
((lp4712
I131
aI113
aI50
a(lp4713
I80
aI71
aI56
atp4714
s(I44
S'N'
tp4715
((lp4716
I68
aI27
aI3
a(lp4717
I23
aI3
aI1
atp4718
s(I10
S'D'
tp4719
((lp4720
I178
aI127
aI66
a(lp4721
I393
aI208
aI196
atp4722
s(I24
S'L'
tp4723
((lp4724
I3810
aI4591
aI4045
a(lp4725
I3306
aI3864
aI5551
atp4726
s(I2
S'D'
tp4727
((lp4728
I132
aI114
aI84
a(lp4729
I1076
aI923
aI1146
atp4730
s(I26
S'G'
tp4731
((lp4732
I0
aI0
aI0
a(lp4733
I1
aI0
aI0
atp4734
s(I25
S'V'
tp4735
((lp4736
I3157
aI3503
aI3248
a(lp4737
I3000
aI3467
aI4685
atp4738
s(I3
S'Y'
tp4739
((lp4740
I22
aI6
aI4
a(lp4741
I13
aI2
aI3
atp4742
s(I40
S'L'
tp4743
((lp4744
I3825
aI3383
aI2671
a(lp4745
I5103
aI4659
aI5990
atp4746
s(I20
S'A'
tp4747
((lp4748
I5332
aI6147
aI5522
a(lp4749
I5222
aI5687
aI8288
atp4750
s(I31
S'M'
tp4751
((lp4752
I1299
aI1290
aI1097
a(lp4753
I499
aI521
aI725
atp4754
s(I25
S'A'
tp4755
((lp4756
I4759
aI5407
aI4825
a(lp4757
I6345
aI7297
aI10533
atp4758
s(I14
S'V'
tp4759
((lp4760
I1121
aI1057
aI931
a(lp4761
I503
aI591
aI935
atp4762
s(I19
S'G'
tp4763
((lp4764
I3859
aI4450
aI3904
a(lp4765
I4115
aI4537
aI6596
atp4766
s(I16
S'V'
tp4767
((lp4768
I529
aI545
aI427
a(lp4769
I580
aI635
aI906
atp4770
s(I36
S'V'
tp4771
((lp4772
I4349
aI4869
aI4434
a(lp4773
I3945
aI4631
aI6834
atp4774
s(I26
S'E'
tp4775
((lp4776
I0
aI0
aI0
a(lp4777
I2
aI0
aI0
atp4778
s(I47
S'S'
tp4779
((lp4780
I589
aI390
aI193
a(lp4781
I1153
aI730
aI604
atp4782
s(I54
S'K'
tp4783
((lp4784
I1665
aI1821
aI1499
a(lp4785
I2330
aI2352
aI3640
atp4786
s(I21
S'S'
tp4787
((lp4788
I3223
aI3687
aI3462
a(lp4789
I4793
aI5655
aI8265
atp4790
s(I33
S'Y'
tp4791
((lp4792
I3752
aI3479
aI2790
a(lp4793
I4038
aI4073
aI5178
atp4794
s(I46
S'Y'
tp4795
((lp4796
I1620
aI1683
aI1061
a(lp4797
I6067
aI5737
aI6514
atp4798
s(I55
S'S'
tp4799
((lp4800
I3099
aI3495
aI3183
a(lp4801
I4335
aI4715
aI7243
atp4802
s(I72
S'C'
tp4803
((lp4804
I859
aI531
aI230
a(lp4805
I1066
aI692
aI551
atp4806
s(I71
g42
tp4807
((lp4808
I349
aI54
aI19
a(lp4809
I96
aI56
aI25
atp4810
s(I7
S'P'
tp4811
((lp4812
I6268
aI5301
aI3677
a(lp4813
I11419
aI8894
aI10009
atp4814
s(I26
S'C'
tp4815
((lp4816
I1536
aI1828
aI1713
a(lp4817
I2091
aI2523
aI3629
atp4818
s(I13
S'I'
tp4819
((lp4820
I475
aI524
aI495
a(lp4821
I1056
aI1149
aI1720
atp4822
s(I59
S'T'
tp4823
((lp4824
I102
aI25
aI11
a(lp4825
I129
aI30
aI13
atp4826
s(I50
S'E'
tp4827
((lp4828
I3
aI2
aI3
a(lp4829
I2
aI5
aI1
atp4830
s(I48
S'T'
tp4831
((lp4832
I330
aI130
aI47
a(lp4833
I486
aI114
aI32
atp4834
s(I18
S'H'
tp4835
((lp4836
I1180
aI1421
aI1287
a(lp4837
I954
aI1193
aI1671
atp4838
s(I4
S'Y'
tp4839
((lp4840
I158
aI150
aI53
a(lp4841
I99
aI66
aI58
atp4842
s(I19
S'K'
tp4843
((lp4844
I1309
aI1531
aI1270
a(lp4845
I1391
aI1523
aI2058
atp4846
s(I8
S'Q'
tp4847
((lp4848
I8
aI1
aI0
a(lp4849
I0
aI0
aI0
atp4850
s(I17
S'R'
tp4851
((lp4852
I288
aI130
aI50
a(lp4853
I152
aI70
aI43
atp4854
s(I21
S'A'
tp4855
((lp4856
I3265
aI3845
aI3743
a(lp4857
I4993
aI5865
aI9118
atp4858
s(I26
S'A'
tp4859
((lp4860
I3044
aI2616
aI2372
a(lp4861
I3399
aI3264
aI4680
atp4862
s(I19
S'L'
tp4863
((lp4864
I1494
aI1635
aI1543
a(lp4865
I2630
aI2870
aI4141
atp4866
s(I61
S'M'
tp4867
((lp4868
I1613
aI1969
aI1686
a(lp4869
I1874
aI2032
aI2974
atp4870
s(I51
S'K'
tp4871
((lp4872
I69
aI38
aI18
a(lp4873
I154
aI111
aI134
atp4874
s(I6
S'R'
tp4875
((lp4876
I2348
aI2578
aI1846
a(lp4877
I1799
aI1872
aI2224
atp4878
s(I58
S'T'
tp4879
((lp4880
I1515
aI1530
aI1195
a(lp4881
I3240
aI2779
aI3224
atp4882
s(I5
S'K'
tp4883
((lp4884
I2
aI1
aI1
a(lp4885
I1
aI0
aI0
atp4886
s(I72
g42
tp4887
((lp4888
I201
aI33
aI7
a(lp4889
I85
aI32
aI17
atp4890
s(I44
S'F'
tp4891
((lp4892
I20
aI4
aI2
a(lp4893
I23
aI5
aI4
atp4894
s(I22
S'S'
tp4895
((lp4896
I5093
aI6033
aI5434
a(lp4897
I5973
aI6561
aI9678
atp4898
s(I19
S'M'
tp4899
((lp4900
I821
aI901
aI787
a(lp4901
I1255
aI1343
aI1975
atp4902
s(I70
S'W'
tp4903
((lp4904
I1
aI0
aI0
a(lp4905
I14
aI14
aI21
atp4906
s(I40
S'P'
tp4907
((lp4908
I103
aI51
aI29
a(lp4909
I164
aI85
aI36
atp4910
s(I17
S'P'
tp4911
((lp4912
I4780
aI5595
aI5045
a(lp4913
I3311
aI3695
aI5160
atp4914
s(I64
S'A'
tp4915
((lp4916
I6331
aI7144
aI5575
a(lp4917
I8825
aI8837
aI11703
atp4918
s(I47
S'Y'
tp4919
((lp4920
I2
aI0
aI1
a(lp4921
I7
aI1
aI0
atp4922
s(I52
S'Y'
tp4923
((lp4924
I891
aI1117
aI985
a(lp4925
I1334
aI1578
aI2129
atp4926
s(I13
S'E'
tp4927
((lp4928
I1684
aI1544
aI1114
a(lp4929
I2114
aI1966
aI2287
atp4930
s(I23
S'I'
tp4931
((lp4932
I1227
aI1266
aI1150
a(lp4933
I1116
aI1220
aI1736
atp4934
s(I54
S'D'
tp4935
((lp4936
I615
aI533
aI318
a(lp4937
I1062
aI842
aI881
atp4938
s(I66
S'K'
tp4939
((lp4940
I7
aI1
aI0
a(lp4941
I12
aI13
aI3
atp4942
s(I33
S'S'
tp4943
((lp4944
I6298
aI6429
aI5528
a(lp4945
I9940
aI11017
aI16093
atp4946
s(I49
S'T'
tp4947
((lp4948
I271
aI269
aI153
a(lp4949
I585
aI476
aI440
atp4950
s(I32
S'H'
tp4951
((lp4952
I2302
aI2577
aI2030
a(lp4953
I4000
aI4196
aI5438
atp4954
s(I58
S'R'
tp4955
((lp4956
I1713
aI1306
aI653
a(lp4957
I4654
aI2710
aI1946
atp4958
s(I32
S'C'
tp4959
((lp4960
I1498
aI1596
aI1261
a(lp4961
I2001
aI2048
aI2510
atp4962
s(I40
S'E'
tp4963
((lp4964
I1469
aI1750
aI1451
a(lp4965
I3038
aI3333
aI4617
atp4966
s(I42
S'N'
tp4967
((lp4968
I428
aI142
aI43
a(lp4969
I462
aI169
aI78
atp4970
s(I16
S'W'
tp4971
((lp4972
I208
aI222
aI195
a(lp4973
I242
aI217
aI321
atp4974
s(I16
S'N'
tp4975
((lp4976
I4055
aI4536
aI4045
a(lp4977
I4814
aI5492
aI7909
atp4978
s(I47
S'R'
tp4979
((lp4980
I10
aI4
aI3
a(lp4981
I3
aI0
aI0
atp4982
s(I10
S'W'
tp4983
((lp4984
I1
aI0
aI0
a(lp4985
I1
aI0
aI0
atp4986
s(I43
g42
tp4987
((lp4988
I692
aI138
aI30
a(lp4989
I141
aI59
aI29
atp4990
s(I64
S'C'
tp4991
((lp4992
I4061
aI4673
aI3792
a(lp4993
I7643
aI8379
aI12121
atp4994
s(I37
S'D'
tp4995
((lp4996
I2039
aI2066
aI1858
a(lp4997
I2805
aI3183
aI4898
atp4998
s(I61
S'I'
tp4999
((lp5000
I2232
aI2533
aI2256
a(lp5001
I2035
aI2343
aI3361
atp5002
s(I18
S'C'
tp5003
((lp5004
I2266
aI2450
aI2184
a(lp5005
I1676
aI1963
aI2659
atp5006
s(I60
S'V'
tp5007
((lp5008
I3538
aI3918
aI3384
a(lp5009
I5454
aI5865
aI7595
atp5010
s(I31
S'N'
tp5011
((lp5012
I339
aI359
aI330
a(lp5013
I308
aI314
aI459
atp5014
s(I20
S'K'
tp5015
((lp5016
I704
aI725
aI715
a(lp5017
I683
aI838
aI1147
atp5018
s(I5
S'N'
tp5019
((lp5020
I1
aI0
aI0
a(lp5021
I1
aI0
aI0
atp5022
s(I58
S'P'
tp5023
((lp5024
I0
aI0
aI0
a(lp5025
I11
aI6
aI3
atp5026
s(I22
S'A'
tp5027
((lp5028
I7116
aI8965
aI8162
a(lp5029
I10499
aI12212
aI17368
atp5030
s(I3
S'D'
tp5031
((lp5032
I7
aI1
aI1
a(lp5033
I3
aI2
aI2
atp5034
s(I27
S'A'
tp5035
((lp5036
I4221
aI3329
aI2635
a(lp5037
I2720
aI2384
aI3090
atp5038
s(I45
S'C'
tp5039
((lp5040
I3181
aI3723
aI3274
a(lp5041
I6200
aI6625
aI9145
atp5042
s(I19
S'Q'
tp5043
((lp5044
I2273
aI2674
aI2218
a(lp5045
I3020
aI3270
aI4774
atp5046
s(I52
S'K'
tp5047
((lp5048
I646
aI726
aI643
a(lp5049
I863
aI801
aI1138
atp5050
s(I64
S'E'
tp5051
((lp5052
I328
aI384
aI410
a(lp5053
I309
aI382
aI588
atp5054
s(I69
S'W'
tp5055
((lp5056
I61
aI57
aI21
a(lp5057
I47
aI26
aI15
atp5058
s(I67
S'V'
tp5059
((lp5060
I1025
aI1310
aI1057
a(lp5061
I2034
aI2221
aI3343
atp5062
s(I25
S'M'
tp5063
((lp5064
I1714
aI1917
aI1705
a(lp5065
I1735
aI1914
aI2683
atp5066
s(I68
S'Q'
tp5067
((lp5068
I782
aI613
aI300
a(lp5069
I438
aI260
aI231
atp5070
s(I2
S'W'
tp5071
((lp5072
I96
aI100
aI84
a(lp5073
I65
aI62
aI89
atp5074
s(I7
S'Q'
tp5075
((lp5076
I119
aI103
aI73
a(lp5077
I163
aI123
aI142
atp5078
s(I65
S'A'
tp5079
((lp5080
I4014
aI4547
aI4189
a(lp5081
I5640
aI6511
aI9911
atp5082
s(I75
S'M'
tp5083
((lp5084
I5
aI0
aI0
a(lp5085
I1
aI0
aI0
atp5086
s(I58
g42
tp5087
((lp5088
I287
aI51
aI23
a(lp5089
I67
aI19
aI14
atp5090
s(I40
S'V'
tp5091
((lp5092
I1482
aI1281
aI975
a(lp5093
I2345
aI2039
aI2898
atp5094
s(I64
S'G'
tp5095
((lp5096
I8058
aI8473
aI6628
a(lp5097
I4369
aI4064
aI4960
atp5098
s(I3
S'G'
tp5099
((lp5100
I78
aI13
aI10
a(lp5101
I31
aI15
aI22
atp5102
s(I28
S'L'
tp5103
((lp5104
I3192
aI3365
aI2820
a(lp5105
I3369
aI3476
aI4962
atp5106
s(I61
S'E'
tp5107
((lp5108
I12
aI1
aI0
a(lp5109
I5
aI3
aI0
atp5110
s(I60
S'R'
tp5111
((lp5112
I5734
aI6667
aI5448
a(lp5113
I8801
aI8737
aI11653
atp5114
s(I20
S'L'
tp5115
((lp5116
I1623
aI1864
aI1742
a(lp5117
I1952
aI2226
aI3114
atp5118
s(I10
S'R'
tp5119
((lp5120
I70
aI48
aI17
a(lp5121
I92
aI66
aI50
atp5122
s(I45
S'Q'
tp5123
((lp5124
I2328
aI2327
aI1604
a(lp5125
I5408
aI4800
aI5370
atp5126
s(I49
S'Y'
tp5127
((lp5128
I8
aI15
aI4
a(lp5129
I12
aI9
aI23
atp5130
s(I27
S'E'
tp5131
((lp5132
I9
aI4
aI1
a(lp5133
I14
aI6
aI0
atp5134
s(I42
S'H'
tp5135
((lp5136
I468
aI141
aI35
a(lp5137
I348
aI110
aI52
atp5138
s(I17
S'H'
tp5139
((lp5140
I841
aI1010
aI934
a(lp5141
I1043
aI1223
aI1690
atp5142
s(I2
S'T'
tp5143
((lp5144
I1343
aI1340
aI1056
a(lp5145
I5150
aI4784
aI6363
atp5146
s(I3
S'I'
tp5147
((lp5148
I663
aI648
aI591
a(lp5149
I455
aI613
aI886
atp5150
s(I29
g42
tp5151
((lp5152
I216
aI31
aI12
a(lp5153
I49
aI15
aI3
atp5154
s(I23
S'A'
tp5155
((lp5156
I5441
aI6179
aI5557
a(lp5157
I6427
aI7128
aI9929
atp5158
s(I66
S'C'
tp5159
((lp5160
I2271
aI2504
aI2179
a(lp5161
I2217
aI2357
aI3134
atp5162
s(I38
S'M'
tp5163
((lp5164
I1000
aI1162
aI968
a(lp5165
I797
aI886
aI1405
atp5166
s(I20
S'Q'
tp5167
((lp5168
I853
aI1059
aI839
a(lp5169
I1096
aI1247
aI1929
atp5170
s(I14
S'P'
tp5171
((lp5172
I1542
aI1419
aI1193
a(lp5173
I2402
aI2271
aI2789
atp5174
s(I56
S'F'
tp5175
((lp5176
I853
aI961
aI827
a(lp5177
I1847
aI1915
aI2665
atp5178
s(I29
S'R'
tp5179
((lp5180
I6872
aI7823
aI6955
a(lp5181
I11384
aI12846
aI18607
atp5182
s(I26
S'V'
tp5183
((lp5184
I2549
aI2975
aI2611
a(lp5185
I2973
aI3169
aI4736
atp5186
s(I72
S'T'
tp5187
((lp5188
I905
aI620
aI331
a(lp5189
I732
aI542
aI542
atp5190
s(I16
S'T'
tp5191
((lp5192
I3072
aI3393
aI3177
a(lp5193
I3848
aI4502
aI6427
atp5194
s(I19
S'W'
tp5195
((lp5196
I403
aI403
aI257
a(lp5197
I733
aI606
aI829
atp5198
s(I16
S'F'
tp5199
((lp5200
I795
aI902
aI808
a(lp5201
I562
aI630
aI851
atp5202
s(I75
S'P'
tp5203
((lp5204
I295
aI59
aI16
a(lp5205
I135
aI51
aI21
atp5206
s(I2
S'R'
tp5207
((lp5208
I180
aI94
aI35
a(lp5209
I271
aI141
aI112
atp5210
s(I45
S'L'
tp5211
((lp5212
I4656
aI3941
aI2454
a(lp5213
I5268
aI4329
aI4579
atp5214
s(I69
S'Q'
tp5215
((lp5216
I211
aI74
aI37
a(lp5217
I225
aI76
aI27
atp5218
s(I61
S'A'
tp5219
((lp5220
I938
aI661
aI452
a(lp5221
I808
aI595
aI606
atp5222
s(I66
S'A'
tp5223
((lp5224
I916
aI703
aI439
a(lp5225
I1158
aI897
aI818
atp5226
s(I11
S'L'
tp5227
((lp5228
I1247
aI1228
aI1087
a(lp5229
I518
aI513
aI596
atp5230
s(I56
S'H'
tp5231
((lp5232
I0
aI0
aI0
a(lp5233
I0
aI0
aI0
atp5234
s(I26
S'T'
tp5235
((lp5236
I5259
aI5998
aI5264
a(lp5237
I5526
aI6204
aI8714
atp5238
s(I3
S'L'
tp5239
((lp5240
I1033
aI1067
aI1046
a(lp5241
I995
aI1300
aI1842
atp5242
s(I46
g42
tp5243
((lp5244
I420
aI88
aI27
a(lp5245
I81
aI35
aI15
atp5246
s(I24
S'Y'
tp5247
((lp5248
I173
aI222
aI130
a(lp5249
I223
aI217
aI310
atp5250
s(I26
S'R'
tp5251
((lp5252
I43
aI8
aI3
a(lp5253
I34
aI24
aI28
atp5254
s(I32
S'V'
tp5255
((lp5256
I686
aI708
aI514
a(lp5257
I1232
aI1211
aI1475
atp5258
s(I3
S'N'
tp5259
((lp5260
I29
aI20
aI14
a(lp5261
I4
aI2
aI1
atp5262
s(I75
S'E'
tp5263
((lp5264
I73
aI12
aI4
a(lp5265
I45
aI7
aI4
atp5266
s(I4
S'I'
tp5267
((lp5268
I0
aI0
aI1
a(lp5269
I1
aI1
aI0
atp5270
s(I25
S'D'
tp5271
((lp5272
I893
aI968
aI858
a(lp5273
I1046
aI1264
aI1825
atp5274
s(I8
S'A'
tp5275
((lp5276
I19
aI20
aI7
a(lp5277
I59
aI12
aI2
atp5278
s(I53
S'I'
tp5279
((lp5280
I480
aI525
aI444
a(lp5281
I636
aI653
aI973
atp5282
s(I11
S'R'
tp5283
((lp5284
I1843
aI2029
aI1511
a(lp5285
I2743
aI2813
aI3655
atp5286
s(I28
S'D'
tp5287
((lp5288
I1683
aI1765
aI1688
a(lp5289
I1502
aI1769
aI2756
atp5290
s(I63
S'M'
tp5291
((lp5292
I40
aI50
aI29
a(lp5293
I18
aI25
aI32
atp5294
s(I49
S'F'
tp5295
((lp5296
I26
aI12
aI2
a(lp5297
I17
aI2
aI2
atp5298
s(I26
S'P'
tp5299
((lp5300
I5
aI0
aI0
a(lp5301
I30
aI18
aI52
atp5302
s(I38
S'P'
tp5303
((lp5304
I4153
aI4821
aI4067
a(lp5305
I3709
aI3940
aI5924
atp5306
s(I52
S'M'
tp5307
((lp5308
I378
aI440
aI380
a(lp5309
I438
aI493
aI694
atp5310
s(I38
S'F'
tp5311
((lp5312
I1467
aI1727
aI1674
a(lp5313
I552
aI743
aI1094
atp5314
s(I62
S'A'
tp5315
((lp5316
I4687
aI4989
aI4602
a(lp5317
I4819
aI5216
aI7706
atp5318
s(I70
S'G'
tp5319
((lp5320
I8
aI6
aI0
a(lp5321
I4
aI4
aI1
atp5322
s(I67
S'A'
tp5323
((lp5324
I1487
aI1066
aI439
a(lp5325
I1142
aI509
aI330
atp5326
s(I31
S'P'
tp5327
((lp5328
I213
aI50
aI19
a(lp5329
I61
aI27
aI20
atp5330
s(I64
S'Q'
tp5331
((lp5332
I5070
aI6023
aI5354
a(lp5333
I4096
aI4357
aI6567
atp5334
s(I54
S'F'
tp5335
((lp5336
I428
aI474
aI404
a(lp5337
I1132
aI1260
aI1788
atp5338
s(I57
S'N'
tp5339
((lp5340
I294
aI308
aI265
a(lp5341
I360
aI402
aI653
atp5342
s(I23
g42
tp5343
((lp5344
I649
aI154
aI30
a(lp5345
I155
aI71
aI22
atp5346
s(I72
S'D'
tp5347
((lp5348
I40
aI5
aI3
a(lp5349
I23
aI11
aI7
atp5350
s(I12
S'W'
tp5351
((lp5352
I9
aI5
aI3
a(lp5353
I10
aI7
aI8
atp5354
s(I54
S'T'
tp5355
((lp5356
I3311
aI3463
aI2796
a(lp5357
I4071
aI4237
aI5687
atp5358
s(I38
S'E'
tp5359
((lp5360
I2478
aI2784
aI2608
a(lp5361
I1903
aI2400
aI3483
atp5362
s(I56
S'N'
tp5363
((lp5364
I3
aI8
aI6
a(lp5365
I0
aI0
aI0
atp5366
s(I33
S'R'
tp5367
((lp5368
I1493
aI1464
aI1005
a(lp5369
I3063
aI2841
aI3287
atp5370
s(I46
S'N'
tp5371
((lp5372
I2386
aI2535
aI1900
a(lp5373
I5121
aI4868
aI6083
atp5374
s(I16
S'L'
tp5375
((lp5376
I1814
aI1964
aI1542
a(lp5377
I1596
aI1989
aI2839
atp5378
s(I14
S'I'
tp5379
((lp5380
I893
aI816
aI585
a(lp5381
I689
aI635
aI877
atp5382
s(I16
S'G'
tp5383
((lp5384
I2247
aI2574
aI2197
a(lp5385
I2298
aI2547
aI3698
atp5386
s(I8
S'L'
tp5387
((lp5388
I2750
aI3099
aI2751
a(lp5389
I3015
aI3355
aI5043
atp5390
s(I75
S'H'
tp5391
((lp5392
I53
aI12
aI1
a(lp5393
I76
aI46
aI23
atp5394
s(I64
S'S'
tp5395
((lp5396
I10696
aI11377
aI8529
a(lp5397
I11259
aI10316
aI12663
atp5398
s(I22
S'R'
tp5399
((lp5400
I5226
aI6037
aI5238
a(lp5401
I3973
aI4328
aI6450
atp5402
s(I40
S'S'
tp5403
((lp5404
I8513
aI7936
aI7049
a(lp5405
I6356
aI6462
aI8905
atp5406
s(I71
S'W'
tp5407
((lp5408
I4
aI0
aI0
a(lp5409
I2
aI0
aI0
atp5410
s(I30
S'S'
tp5411
((lp5412
I25
aI8
aI11
a(lp5413
I49
aI29
aI43
atp5414
s(I25
S'P'
tp5415
((lp5416
I8
aI4
aI1
a(lp5417
I6
aI2
aI2
atp5418
s(I15
S'M'
tp5419
((lp5420
I490
aI532
aI408
a(lp5421
I328
aI326
aI483
atp5422
s(I9
S'A'
tp5423
((lp5424
I11271
aI13173
aI13263
a(lp5425
I8499
aI9424
aI14544
atp5426
s(I48
S'Y'
tp5427
((lp5428
I12
aI3
aI2
a(lp5429
I14
aI1
aI0
atp5430
s(I10
S'F'
tp5431
((lp5432
I6
aI9
aI8
a(lp5433
I2
aI0
aI0
atp5434
s(I72
S'W'
tp5435
((lp5436
I42
aI8
aI1
a(lp5437
I31
aI7
aI0
atp5438
s(I33
S'P'
tp5439
((lp5440
I1108
aI304
aI99
a(lp5441
I721
aI185
aI87
atp5442
s(I27
S'Q'
tp5443
((lp5444
I4505
aI4333
aI3844
a(lp5445
I2713
aI2909
aI4130
atp5446
s(I74
S'F'
tp5447
((lp5448
I0
aI5
aI3
a(lp5449
I3
aI1
aI2
atp5450
s(I67
S'S'
tp5451
((lp5452
I624
aI268
aI75
a(lp5453
I659
aI209
aI59
atp5454
s(I24
g42
tp5455
((lp5456
I1104
aI227
aI82
a(lp5457
I272
aI108
aI59
atp5458
s(I41
S'S'
tp5459
((lp5460
I12741
aI11711
aI9892
a(lp5461
I11751
aI11136
aI15288
atp5462
s(I62
S'E'
tp5463
((lp5464
I2477
aI2612
aI2383
a(lp5465
I2979
aI3049
aI4729
atp5466
s(I69
S'G'
tp5467
((lp5468
I942
aI394
aI121
a(lp5469
I1526
aI469
aI207
atp5470
s(I51
S'F'
tp5471
((lp5472
I56
aI40
aI43
a(lp5473
I165
aI171
aI179
atp5474
s(I38
S'K'
tp5475
((lp5476
I2674
aI3135
aI2857
a(lp5477
I2362
aI2623
aI3805
atp5478
s(I50
S'Q'
tp5479
((lp5480
I0
aI0
aI0
a(lp5481
I0
aI0
aI0
atp5482
s(I63
S'A'
tp5483
((lp5484
I2011
aI2089
aI1152
a(lp5485
I1515
aI1049
aI1118
atp5486
s(I68
S'A'
tp5487
((lp5488
I319
aI344
aI161
a(lp5489
I939
aI773
aI554
atp5490
s(I49
S'K'
tp5491
((lp5492
I250
aI165
aI69
a(lp5493
I477
aI275
aI188
atp5494
s(I65
S'Q'
tp5495
((lp5496
I757
aI771
aI778
a(lp5497
I1357
aI1537
aI2126
atp5498
s(I61
S'T'
tp5499
((lp5500
I399
aI163
aI60
a(lp5501
I250
aI85
aI57
atp5502
s(I68
S'V'
tp5503
((lp5504
I174
aI108
aI56
a(lp5505
I1016
aI642
aI476
atp5506
s(I21
S'Y'
tp5507
((lp5508
I530
aI674
aI634
a(lp5509
I822
aI940
aI1441
atp5510
s(I64
S'W'
tp5511
((lp5512
I2
aI4
aI1
a(lp5513
I0
aI0
aI0
atp5514
s(I43
S'P'
tp5515
((lp5516
I0
aI0
aI0
a(lp5517
I1
aI0
aI1
atp5518
s(I15
S'I'
tp5519
((lp5520
I1448
aI1710
aI1538
a(lp5521
I2014
aI2190
aI3428
atp5522
s(I9
S'E'
tp5523
((lp5524
I9
aI6
aI0
a(lp5525
I27
aI11
aI4
atp5526
s(I37
S'C'
tp5527
((lp5528
I3261
aI3787
aI3229
a(lp5529
I6749
aI7470
aI10806
atp5530
s(I24
S'H'
tp5531
((lp5532
I549
aI681
aI568
a(lp5533
I1156
aI1241
aI1586
atp5534
s(I38
S'H'
tp5535
((lp5536
I2126
aI2254
aI2075
a(lp5537
I1161
aI1412
aI2148
atp5538
s(I62
S'I'
tp5539
((lp5540
I3067
aI3669
aI3426
a(lp5541
I3469
aI4049
aI6067
atp5542
s(I10
S'A'
tp5543
((lp5544
I742
aI469
aI274
a(lp5545
I616
aI386
aI396
atp5546
s(I40
S'Y'
tp5547
((lp5548
I382
aI432
aI310
a(lp5549
I878
aI813
aI982
atp5550
s(I66
S'S'
tp5551
((lp5552
I9759
aI11307
aI10072
a(lp5553
I6480
aI6823
aI10649
atp5554
s(I35
S'K'
tp5555
((lp5556
I478
aI509
aI408
a(lp5557
I649
aI701
aI783
atp5558
s(I42
S'S'
tp5559
((lp5560
I31
aI15
aI2
a(lp5561
I198
aI201
aI271
atp5562
s(I56
S'V'
tp5563
((lp5564
I1743
aI1977
aI1605
a(lp5565
I2407
aI2573
aI3595
atp5566
s(I23
S'R'
tp5567
((lp5568
I15
aI2
aI2
a(lp5569
I8
aI0
aI6
atp5570
s(I16
S'D'
tp5571
((lp5572
I457
aI429
aI415
a(lp5573
I253
aI242
aI397
atp5574
s(I45
S'N'
tp5575
((lp5576
I1029
aI1128
aI955
a(lp5577
I3457
aI3650
aI4740
atp5578
s(I22
S'D'
tp5579
((lp5580
I815
aI857
aI826
a(lp5581
I1131
aI1424
aI2151
atp5582
s(I48
S'A'
tp5583
((lp5584
I443
aI160
aI48
a(lp5585
I974
aI272
aI181
atp5586
s(I73
S'P'
tp5587
((lp5588
I0
aI0
aI0
a(lp5589
I0
aI0
aI0
atp5590
s(I69
S'A'
tp5591
((lp5592
I3273
aI2090
aI888
a(lp5593
I2803
aI1558
aI1071
atp5594
s(I50
S'K'
tp5595
((lp5596
I0
aI0
aI0
a(lp5597
I0
aI0
aI0
atp5598
s(I66
S'Q'
tp5599
((lp5600
I246
aI172
aI133
a(lp5601
I1030
aI893
aI947
atp5602
s(I9
S'I'
tp5603
((lp5604
I2931
aI2944
aI2574
a(lp5605
I1324
aI1459
aI2039
atp5606
s(I10
S'N'
tp5607
((lp5608
I635
aI590
aI404
a(lp5609
I1178
aI1162
aI1413
atp5610
s(I15
S'D'
tp5611
((lp5612
I11
aI5
aI4
a(lp5613
I6
aI1
aI1
atp5614
s(I62
S'M'
tp5615
((lp5616
I1518
aI1812
aI1555
a(lp5617
I1950
aI2228
aI3311
atp5618
s(I74
S'D'
tp5619
((lp5620
I6
aI4
aI0
a(lp5621
I4
aI4
aI0
atp5622
s(I38
S'C'
tp5623
((lp5624
I709
aI686
aI633
a(lp5625
I490
aI557
aI823
atp5626
s(I53
S'G'
tp5627
((lp5628
I2684
aI3228
aI2845
a(lp5629
I3966
aI4465
aI6381
atp5630
s(I63
S'I'
tp5631
((lp5632
I570
aI613
aI350
a(lp5633
I385
aI305
aI293
atp5634
s(I57
S'E'
tp5635
((lp5636
I2839
aI2865
aI2666
a(lp5637
I3672
aI4055
aI6220
atp5638
s(I39
S'Y'
tp5639
((lp5640
I281
aI306
aI152
a(lp5641
I282
aI230
aI285
atp5642
s(I49
S'C'
tp5643
((lp5644
I1350
aI1250
aI854
a(lp5645
I3102
aI2510
aI3136
atp5646
s(I66
S'H'
tp5647
((lp5648
I617
aI617
aI505
a(lp5649
I1786
aI1760
aI2098
atp5650
s(I73
S'T'
tp5651
((lp5652
I29
aI3
aI0
a(lp5653
I13
aI1
aI2
atp5654
s(I43
S'H'
tp5655
((lp5656
I2
aI1
aI0
a(lp5657
I18
aI26
aI39
atp5658
s(I28
S'T'
tp5659
((lp5660
I2447
aI2833
aI2466
a(lp5661
I2235
aI2427
aI3481
atp5662
s(I9
S'M'
tp5663
((lp5664
I283
aI257
aI215
a(lp5665
I155
aI128
aI187
atp5666
s(I24
S'P'
tp5667
((lp5668
I2509
aI2965
aI2716
a(lp5669
I2219
aI2644
aI3668
atp5670
s(I49
S'A'
tp5671
((lp5672
I7104
aI6618
aI4304
a(lp5673
I14698
aI12896
aI14397
atp5674
s(I76
g42
tp5675
((lp5676
I7
aI1
aI0
a(lp5677
I5
aI5
aI0
atp5678
s(I36
S'P'
tp5679
((lp5680
I88
aI41
aI8
a(lp5681
I211
aI125
aI81
atp5682
s(I13
S'P'
tp5683
((lp5684
I206
aI76
aI30
a(lp5685
I150
aI39
aI30
atp5686
s(I71
S'D'
tp5687
((lp5688
I0
aI0
aI0
a(lp5689
I5
aI0
aI0
atp5690
s(I66
S'F'
tp5691
((lp5692
I10
aI10
aI3
a(lp5693
I16
aI11
aI10
atp5694
s(I48
S'G'
tp5695
((lp5696
I498
aI207
aI49
a(lp5697
I1720
aI437
aI142
atp5698
s(I54
S'V'
tp5699
((lp5700
I2093
aI2126
aI2039
a(lp5701
I2813
aI2919
aI4204
atp5702
s(I12
S'L'
tp5703
((lp5704
I352
aI262
aI127
a(lp5705
I160
aI108
aI123
atp5706
s(I0
S'WT'
p5707
tp5708
((lp5709
I90389
aI101417
aI90590
a(lp5710
I95347
aI104939
aI153511
atp5711
s(I12
S'G'
tp5712
((lp5713
I36
aI29
aI20
a(lp5714
I47
aI32
aI35
atp5715
s(I7
S'K'
tp5716
((lp5717
I29
aI20
aI11
a(lp5718
I23
aI11
aI14
atp5719
s(I57
S'I'
tp5720
((lp5721
I1049
aI1151
aI955
a(lp5722
I1380
aI1571
aI2321
atp5723
s(I55
S'F'
tp5724
((lp5725
I1025
aI1191
aI1052
a(lp5726
I1172
aI1346
aI1957
atp5727
s(I75
S'G'
tp5728
((lp5729
I4305
aI4671
aI4161
a(lp5730
I5329
aI5757
aI8422
atp5731
s(I36
S'E'
tp5732
((lp5733
I9
aI14
aI7
a(lp5734
I0
aI0
aI0
atp5735
s(I60
S'H'
tp5736
((lp5737
I4013
aI4692
aI4276
a(lp5738
I3774
aI4226
aI6135
atp5739
s(I71
S'F'
tp5740
((lp5741
I754
aI483
aI250
a(lp5742
I397
aI232
aI233
atp5743
s(I73
S'S'
tp5744
((lp5745
I3
aI0
aI0
a(lp5746
I5
aI3
aI2
atp5747
s(I12
S'N'
tp5748
((lp5749
I537
aI472
aI381
a(lp5750
I686
aI634
aI817
atp5751
s(I73
S'N'
tp5752
((lp5753
I0
aI0
aI0
a(lp5754
I3
aI0
aI0
atp5755
s(I22
S'M'
tp5756
((lp5757
I465
aI599
aI560
a(lp5758
I612
aI693
aI1000
atp5759
s(I30
S'C'
tp5760
((lp5761
I2476
aI2245
aI1575
a(lp5762
I1872
aI1619
aI1692
atp5763
s(I37
S'Y'
tp5764
((lp5765
I237
aI252
aI232
a(lp5766
I261
aI256
aI338
atp5767
s(I72
S'G'
tp5768
((lp5769
I1830
aI1021
aI424
a(lp5770
I1615
aI913
aI599
atp5771
s(I11
S'G'
tp5772
((lp5773
I9834
aI9392
aI8635
a(lp5774
I4605
aI4565
aI6670
atp5775
s(I13
S'L'
tp5776
((lp5777
I5402
aI6082
aI5739
a(lp5778
I6486
aI7536
aI11823
atp5779
s(I41
S'C'
tp5780
((lp5781
I1205
aI1062
aI748
a(lp5782
I2116
aI1841
aI2434
atp5783
s(I32
S'L'
tp5784
((lp5785
I1696
aI1791
aI1429
a(lp5786
I2634
aI2606
aI3263
atp5787
s(I74
S'L'
tp5788
((lp5789
I0
aI0
aI0
a(lp5790
I0
aI1
aI0
atp5791
s(I28
S'I'
tp5792
((lp5793
I534
aI393
aI294
a(lp5794
I375
aI323
aI437
atp5795
s(I29
S'L'
tp5796
((lp5797
I3711
aI4416
aI3788
a(lp5798
I4743
aI5381
aI7917
atp5799
s(I50
S'A'
tp5800
((lp5801
I429
aI367
aI261
a(lp5802
I623
aI506
aI549
atp5803
s(I65
S'M'
tp5804
((lp5805
I164
aI197
aI170
a(lp5806
I654
aI647
aI979
atp5807
s(I18
S'D'
tp5808
((lp5809
I3053
aI3413
aI3180
a(lp5810
I2368
aI2756
aI4110
atp5811
s(I17
S'V'
tp5812
((lp5813
I2069
aI2361
aI2086
a(lp5814
I1542
aI1783
aI2496
atp5815
s(I37
S'V'
tp5816
((lp5817
I5226
aI6302
aI5814
a(lp5818
I6744
aI7844
aI11701
atp5819
s(I48
g42
tp5820
((lp5821
I585
aI83
aI28
a(lp5822
I176
aI61
aI51
atp5823
s(I60
S'D'
tp5824
((lp5825
I3306
aI3426
aI2905
a(lp5826
I4462
aI4608
aI6510
atp5827
s(I68
S'F'
tp5828
((lp5829
I63
aI48
aI39
a(lp5830
I159
aI119
aI142
atp5831
s(I73
S'W'
tp5832
((lp5833
I0
aI0
aI0
a(lp5834
I0
aI0
aI0
atp5835
s(I58
S'I'
tp5836
((lp5837
I69
aI33
aI10
a(lp5838
I164
aI81
aI44
atp5839
s(I6
S'V'
tp5840
((lp5841
I1479
aI1237
aI940
a(lp5842
I1391
aI1264
aI1437
atp5843
s(I41
S'P'
tp5844
((lp5845
I29
aI31
aI25
a(lp5846
I13
aI7
aI3
atp5847
s(I42
S'E'
tp5848
((lp5849
I41
aI9
aI4
a(lp5850
I8
aI1
aI1
atp5851
s(I40
S'T'
tp5852
((lp5853
I3572
aI3447
aI3140
a(lp5854
I3467
aI3782
aI5445
atp5855
s(I17
S'T'
tp5856
((lp5857
I4781
aI5496
aI4903
a(lp5858
I5407
aI6120
aI9274
atp5859
s(I13
S'S'
tp5860
((lp5861
I4078
aI4740
aI4056
a(lp5862
I4031
aI4172
aI5813
atp5863
s(I75
S'C'
tp5864
((lp5865
I0
aI0
aI0
a(lp5866
I16
aI15
aI12
atp5867
s(I66
S'G'
tp5868
((lp5869
I21476
aI21088
aI14354
a(lp5870
I33138
aI28688
aI33044
atp5871
s(I67
S'H'
tp5872
((lp5873
I15
aI9
aI1
a(lp5874
I15
aI6
aI3
atp5875
s(I65
S'H'
tp5876
((lp5877
I1553
aI1775
aI1645
a(lp5878
I1877
aI1966
aI3080
atp5879
s(I42
S'C'
tp5880
((lp5881
I731
aI463
aI159
a(lp5882
I1053
aI623
aI476
atp5883
s(I39
S'T'
tp5884
((lp5885
I716
aI801
aI654
a(lp5886
I767
aI813
aI926
atp5887
s(I29
S'I'
tp5888
((lp5889
I1024
aI1194
aI1040
a(lp5890
I1314
aI1485
aI2066
atp5891
s(I59
S'P'
tp5892
((lp5893
I0
aI0
aI0
a(lp5894
I1
aI1
aI0
atp5895
s(I46
S'A'
tp5896
((lp5897
I3833
aI4425
aI4044
a(lp5898
I4655
aI5297
aI7420
atp5899
s(I51
S'A'
tp5900
((lp5901
I847
aI955
aI714
a(lp5902
I1460
aI1399
aI1831
atp5903
s(I5
S'E'
tp5904
((lp5905
I3
aI1
aI0
a(lp5906
I9
aI0
aI3
atp5907
s(I41
S'T'
tp5908
((lp5909
I2521
aI1381
aI685
a(lp5910
I3477
aI1816
aI1587
atp5911
s(I30
S'K'
tp5912
((lp5913
I0
aI0
aI1
a(lp5914
I5
aI6
aI4
atp5915
s(I47
S'E'
tp5916
((lp5917
I33
aI5
aI6
a(lp5918
I6
aI6
aI5
atp5919
s(I45
S'P'
tp5920
((lp5921
I2
aI3
aI2
a(lp5922
I12
aI17
aI5
atp5923
s(I59
S'Y'
tp5924
((lp5925
I451
aI424
aI410
a(lp5926
I482
aI591
aI724
atp5927
s(I41
S'K'
tp5928
((lp5929
I9
aI1
aI2
a(lp5930
I7
aI4
aI0
atp5931
s(I34
g42
tp5932
((lp5933
I546
aI117
aI39
a(lp5934
I167
aI103
aI75
atp5935
s(I63
S'T'
tp5936
((lp5937
I2334
aI2558
aI1531
a(lp5938
I2069
aI1726
aI1778
atp5939
s(I29
S'D'
tp5940
((lp5941
I587
aI422
aI360
a(lp5942
I489
aI508
aI635
atp5943
s(I23
S'S'
tp5944
((lp5945
I3972
aI4209
aI3438
a(lp5946
I5024
aI4885
aI6445
atp5947
s(I53
S'W'
tp5948
((lp5949
I132
aI192
aI144
a(lp5950
I228
aI227
aI340
atp5951
s(I27
S'N'
tp5952
((lp5953
I94
aI46
aI12
a(lp5954
I35
aI15
aI5
atp5955
s(I8
S'R'
tp5956
((lp5957
I12
aI6
aI1
a(lp5958
I9
aI1
aI6
atp5959
s(I39
S'I'
tp5960
((lp5961
I209
aI211
aI178
a(lp5962
I216
aI200
aI274
atp5963
s(I17
S'N'
tp5964
((lp5965
I1365
aI1728
aI1465
a(lp5966
I1493
aI1622
aI2194
atp5967
s(I11
S'V'
tp5968
((lp5969
I1207
aI1162
aI916
a(lp5970
I804
aI691
aI900
atp5971
s(I10
S'K'
tp5972
((lp5973
I29
aI20
aI5
a(lp5974
I29
aI18
aI7
atp5975
s(I35
S'F'
tp5976
((lp5977
I617
aI506
aI313
a(lp5978
I924
aI723
aI794
atp5979
s(I6
S'N'
tp5980
((lp5981
I254
aI235
aI148
a(lp5982
I179
aI194
aI252
atp5983
s(I30
S'Y'
tp5984
((lp5985
I796
aI724
aI500
a(lp5986
I980
aI851
aI1026
atp5987
s(I47
S'A'
tp5988
((lp5989
I194
aI139
aI88
a(lp5990
I1433
aI1045
aI1201
atp5991
s(I42
S'M'
tp5992
((lp5993
I15
aI2
aI3
a(lp5994
I11
aI4
aI1
atp5995
s(I52
S'A'
tp5996
((lp5997
I1258
aI1512
aI1412
a(lp5998
I1851
aI1960
aI2928
atp5999
s(I51
g42
tp6000
((lp6001
I284
aI59
aI15
a(lp6002
I54
aI27
aI17
atp6003
s(I53
S'D'
tp6004
((lp6005
I1478
aI1549
aI1533
a(lp6006
I1920
aI2106
aI3306
atp6007
s(I49
g42
tp6008
((lp6009
I333
aI77
aI12
a(lp6010
I122
aI29
aI14
atp6011
s(I33
S'K'
tp6012
((lp6013
I284
aI307
aI303
a(lp6014
I167
aI133
aI226
atp6015
s(I17
S'L'
tp6016
((lp6017
I3889
aI4353
aI3572
a(lp6018
I6147
aI6453
aI9082
atp6019
s(I66
S'V'
tp6020
((lp6021
I1736
aI1490
aI857
a(lp6022
I982
aI798
aI964
atp6023
s(I65
S'K'
tp6024
((lp6025
I260
aI254
aI187
a(lp6026
I541
aI463
aI582
atp6027
s(I72
S'Q'
tp6028
((lp6029
I821
aI411
aI179
a(lp6030
I784
aI390
aI235
atp6031
s(I60
S'Y'
tp6032
((lp6033
I72
aI59
aI26
a(lp6034
I245
aI140
aI101
atp6035
s(I11
S'Q'
tp6036
((lp6037
I658
aI590
aI531
a(lp6038
I311
aI317
aI429
atp6039
s(I42
S'K'
tp6040
((lp6041
I19
aI2
aI0
a(lp6042
I7
aI0
aI0
atp6043
s(I57
S'Y'
tp6044
((lp6045
I238
aI285
aI253
a(lp6046
I631
aI612
aI919
atp6047
s(I55
S'V'
tp6048
((lp6049
I2009
aI2321
aI2102
a(lp6050
I2797
aI3399
aI4669
atp6051
s(I37
S'H'
tp6052
((lp6053
I3301
aI3468
aI3097
a(lp6054
I2979
aI3249
aI4703
atp6055
s(I8
S'D'
tp6056
((lp6057
I4
aI2
aI0
a(lp6058
I5
aI9
aI16
atp6059
s(I22
g42
tp6060
((lp6061
I460
aI100
aI33
a(lp6062
I73
aI23
aI17
atp6063
s(I13
S'N'
tp6064
((lp6065
I919
aI981
aI800
a(lp6066
I1566
aI1529
aI2238
atp6067
s(I55
S'D'
tp6068
((lp6069
I2265
aI2598
aI2416
a(lp6070
I3828
aI4383
aI6239
atp6071
s(I38
S'W'
tp6072
((lp6073
I1983
aI2259
aI2285
a(lp6074
I1766
aI2157
aI3338
atp6075
s(I35
S'Q'
tp6076
((lp6077
I1135
aI1451
aI1322
a(lp6078
I2477
aI2869
aI4016
atp6079
s(I28
g42
tp6080
((lp6081
I798
aI143
aI39
a(lp6082
I145
aI56
aI27
atp6083
s(I28
S'Y'
tp6084
((lp6085
I661
aI705
aI686
a(lp6086
I889
aI1051
aI1582
atp6087
s(I32
S'A'
tp6088
((lp6089
I3426
aI3718
aI3216
a(lp6090
I5638
aI6088
aI8511
atp6091
s(I34
S'K'
tp6092
((lp6093
I51
aI32
aI32
a(lp6094
I80
aI78
aI72
atp6095
s(I49
S'W'
tp6096
((lp6097
I5
aI0
aI1
a(lp6098
I4
aI0
aI0
atp6099
s(I21
S'F'
tp6100
((lp6101
I638
aI824
aI709
a(lp6102
I622
aI826
aI1181
atp6103
s(I8
S'E'
tp6104
((lp6105
I10
aI0
aI0
a(lp6106
I4
aI0
aI1
atp6107
s(I7
S'T'
tp6108
((lp6109
I2568
aI2933
aI2546
a(lp6110
I3605
aI4160
aI5946
atp6111
s(I17
S'F'
tp6112
((lp6113
I694
aI746
aI553
a(lp6114
I1310
aI1357
aI1709
atp6115
s(I37
g42
tp6116
((lp6117
I714
aI118
aI31
a(lp6118
I124
aI53
aI30
atp6119
s(I71
S'P'
tp6120
((lp6121
I160
aI60
aI8
a(lp6122
I112
aI26
aI17
atp6123
s(I61
S'K'
tp6124
((lp6125
I25
aI9
aI9
a(lp6126
I0
aI0
aI0
atp6127
s(I46
S'M'
tp6128
((lp6129
I1985
aI2047
aI1209
a(lp6130
I7002
aI6508
aI7331
atp6131
s(I6
S'P'
tp6132
((lp6133
I31
aI20
aI21
a(lp6134
I22
aI9
aI16
atp6135
s(I18
S'V'
tp6136
((lp6137
I3244
aI3698
aI3358
a(lp6138
I4476
aI5052
aI7773
atp6139
s(I58
S'Y'
tp6140
((lp6141
I91
aI64
aI26
a(lp6142
I208
aI113
aI95
atp6143
s(I6
S'F'
tp6144
((lp6145
I397
aI242
aI125
a(lp6146
I580
aI424
aI315
atp6147
s(I37
S'G'
tp6148
((lp6149
I10193
aI11141
aI10389
a(lp6150
I11390
aI13046
aI19169
atp6151
s(I34
S'I'
tp6152
((lp6153
I211
aI130
aI85
a(lp6154
I902
aI660
aI617
atp6155
s(I38
S'T'
tp6156
((lp6157
I3215
aI3525
aI3295
a(lp6158
I2566
aI2914
aI4380
atp6159
s(I59
S'C'
tp6160
((lp6161
I1043
aI1040
aI858
a(lp6162
I1464
aI1372
aI1721
atp6163
s(I67
S'E'
tp6164
((lp6165
I64
aI7
aI7
a(lp6166
I27
aI8
aI4
atp6167
s(I53
S'L'
tp6168
((lp6169
I1787
aI1959
aI1873
a(lp6170
I2549
aI2863
aI4372
atp6171
s.