(dp1
(I17
S'D'
tp2
F8.2985600000000002
s(I13
S'C'
tp3
F4.6354199999999999
s(I43
S'W'
tp4
F8.2318099999999994
s(I72
S'H'
tp5
F-4.3093700000000004
s(I66
S'W'
tp6
F-0.61236900000000005
s(I71
S'Q'
tp7
F5.33643
s(I68
S'W'
tp8
F-0.96168900000000002
s(I20
S'R'
tp9
F-1.3231599999999999
s(I32
S'E'
tp10
F1.6318699999999999
s(I75
S'Y'
tp11
F3.5411100000000002
s(I33
S'V'
tp12
F-2.2600500000000001
s(I11
S'I'
tp13
F-1.53061
s(I4
S'N'
tp14
F2.6820400000000002
s(I47
S'K'
tp15
F96.481700000000004
s(I29
S'Y'
tp16
F-0.19012200000000001
s(I33
S'A'
tp17
F-0.77188500000000004
s(I61
S'G'
tp18
F11.489100000000001
s(I22
S'V'
tp19
F2.2298900000000001
s(I46
S'Q'
tp20
F3.6194099999999998
s(I71
S'S'
tp21
F5.5775899999999998
s(I4
S'W'
tp22
F3.11686
s(I49
S'L'
tp23
F-4.63462
s(I41
S'D'
tp24
F8.7091100000000008
s(I11
S'D'
tp25
F3.4734500000000001
s(I18
S'Q'
tp26
F-2.31507
s(I23
S'G'
tp27
F3.4044099999999999
s(I58
S'N'
tp28
F1.0397799999999999
s(I29
S'T'
tp29
F3.5561500000000001
s(I60
S'C'
tp30
F3.6396199999999999
s(I34
S'C'
tp31
F-1.5370900000000001
s(I47
S'N'
tp32
F47.428699999999999
s(I10
S'P'
tp33
F-5.7360499999999996
s(I19
S'D'
tp34
F4.3072900000000001
s(I54
S'E'
tp35
F0.25363400000000003
s(I66
S'L'
tp36
F1.2616700000000001
s(I61
S'C'
tp37
F6.2352499999999997
s(I20
S'G'
tp38
F0.023430699999999999
s(I58
S'L'
tp39
F-1.8636999999999999
s(I5
S'H'
tp40
F5.4470099999999997
s(I6
S'H'
tp41
F1.5033399999999999
s(I34
S'A'
tp42
F-0.078877799999999998
s(I49
S'M'
tp43
F1.62687
s(I24
S'W'
tp44
F-4.5361000000000002
s(I47
S'Q'
tp45
F66.459299999999999
s(I15
S'V'
tp46
F3.3400300000000001
s(I52
S'F'
tp47
F4.3164699999999998
s(I52
S'P'
tp48
F-1.8428500000000001
s(I48
S'P'
tp49
F6.8341000000000003
s(I29
S'P'
tp50
F13.394600000000001
s(I72
S'A'
tp51
F-1.8414600000000001
s(I1
S'E'
tp52
F3.0740500000000002
s(I69
S'V'
tp53
F5.3205099999999996
s(I75
S'R'
tp54
F1.72041
s(I19
S'H'
tp55
F-0.996116
s(I51
S'Y'
tp56
F-2.3607100000000001
s(I22
S'I'
tp57
F3.2883499999999999
s(I48
S'R'
tp58
F1.3045199999999999
s(I76
S'T'
tp59
F1.1638299999999999
s(I41
S'L'
tp60
F0.41950700000000002
s(I15
S'R'
tp61
F10.277900000000001
s(I28
S'M'
tp62
F-1.53365
s(I20
S'M'
tp63
F-1.46058
s(I31
S'I'
tp64
F11.4025
s(I14
S'D'
tp65
F1.21096
s(I35
S'A'
tp66
F1.3411200000000001
s(I53
S'C'
tp67
F0.27096199999999998
s(I27
S'D'
tp68
F9.4990699999999997
s(I16
S'S'
tp69
F1.50352
s(I14
S'K'
tp70
F3.0156100000000001
s(I69
S'R'
tp71
F8.6219400000000004
s(I75
S'V'
tp72
F1.7255
s(I66
S'D'
tp73
F3.7784
s(I73
S'V'
tp74
F1.75742
s(I25
S'K'
tp75
F-1.2596700000000001
s(I11
S'F'
tp76
F-1.2739799999999999
s(I73
S'A'
tp77
F7.7041199999999996
s(I4
S'P'
tp78
F2.9582999999999999
s(I48
S'V'
tp79
F-2.7080500000000001
s(I45
S'G'
tp80
F8.8944600000000005
s(I76
S'P'
tp81
F-3.43953
s(I39
S'W'
tp82
F-2.2354699999999998
s(I49
S'E'
tp83
F2.9634
s(I69
S'P'
tp84
F12.763
s(I19
S'N'
tp85
F3.20214
s(I25
S'I'
tp86
F0.58399299999999998
s(I43
S'G'
tp87
F10.8636
s(I73
S'K'
tp88
F4.8096800000000002
s(I68
S'G'
tp89
F4.5481299999999996
s(I48
S'H'
tp90
F-1.2156400000000001
s(I7
S'G'
tp91
F4.7011700000000003
s(I26
S'M'
tp92
F1.7872399999999999
s(I54
S'C'
tp93
F-2.2658999999999998
s(I22
S'P'
tp94
F1.61297
s(I76
S'M'
tp95
F-0.79040500000000002
s(I34
S'V'
tp96
F-3.09361
s(I73
S'E'
tp97
F5.3953899999999999
s(I40
S'G'
tp98
F1.4302999999999999
s(I4
S'G'
tp99
F4.3482500000000002
s(I24
S'F'
tp100
F-1.8374600000000001
s(I72
S'K'
tp101
F-1.58891
s(I67
S'G'
tp102
F8.2962000000000007
s(I26
S'K'
tp103
F12.171200000000001
s(I74
S'A'
tp104
F-1.14218
s(I59
S'W'
tp105
F1.2894600000000001
s(I28
S'E'
tp106
F0.462507
s(I41
S'V'
tp107
F-0.98809899999999995
s(I10
S'T'
tp108
F3.7962500000000001
s(I53
S'K'
tp109
F0.0045995300000000001
s(I70
S'R'
tp110
F8.5612300000000001
s(I8
S'Y'
tp111
F-0.210808
s(I16
S'K'
tp112
F-0.87601399999999996
s(I30
S'V'
tp113
F3.3011200000000001
s(I37
S'R'
tp114
F4.0644799999999996
s(I26
S'I'
tp115
F1.6773400000000001
s(I5
S'W'
tp116
F6.4809299999999999
s(I75
S'N'
tp117
F1.60043
s(I43
S'R'
tp118
F16.484300000000001
s(I19
S'T'
tp119
F-1.53701
s(I20
S'W'
tp120
F-0.0117348
s(I75
S'L'
tp121
F0.49642999999999998
s(I73
S'I'
tp122
F0.97647499999999998
s(I59
S'G'
tp123
F5.46021
s(I48
S'N'
tp124
F-4.0979200000000002
s(I76
S'H'
tp125
F0.40606999999999999
s(I67
S'Y'
tp126
F8.6550200000000004
s(I69
S'S'
tp127
F5.2335399999999996
s(I57
S'F'
tp128
F2.8940700000000001
s(I34
S'P'
tp129
F9.2423400000000004
s(I40
S'M'
tp130
F1.5180400000000001
s(I46
S'F'
tp131
F9.5008900000000001
s(I75
S'A'
tp132
F2.2711000000000001
s(I62
S'P'
tp133
F4.2245699999999999
s(I27
S'P'
tp134
F14.4156
s(I39
S'P'
tp135
F-0.62517400000000001
s(I62
S'F'
tp136
F-1.83067
s(I21
S'L'
tp137
F-0.91684299999999996
s(I14
S'W'
tp138
F4.5189399999999997
s(I69
S'F'
tp139
F2.82511
s(I37
S'L'
tp140
F2.9460999999999999
s(I76
S'E'
tp141
F2.1323300000000001
s(I50
S'R'
tp142
F15.8969
s(I25
S'W'
tp143
F0.097888600000000006
s(I73
S'M'
tp144
F2.7899500000000002
s(I39
S'R'
tp145
F-1.4337299999999999
s(I52
S'S'
tp146
F-0.82436600000000004
s(I31
S'T'
tp147
F3.01959
s(I48
S'S'
tp148
F-0.50669299999999995
s(I74
S'I'
tp149
F0.41753000000000001
s(I50
S'Y'
tp150
F10.635899999999999
s(I9
S'D'
tp151
F1.7693099999999999
s(I75
S'S'
tp152
F-1.58985
s(I61
S'N'
tp153
F4.0722500000000004
s(I7
S'I'
tp154
F1.3412500000000001
s(I8
S'V'
tp155
F-3.7352599999999998
s(I27
S'T'
tp156
F5.59246
s(I16
S'H'
tp157
F-0.089121699999999998
s(I16
S'C'
tp158
F-1.17655
s(I59
S'F'
tp159
F1.62544
s(I64
S'F'
tp160
F-1.6957599999999999
s(I76
S'A'
tp161
F-0.37806200000000001
s(I63
S'R'
tp162
F-5.3503100000000003
s(I45
S'I'
tp163
F7.1684900000000003
s(I76
S'V'
tp164
F1.70259
s(I74
S'P'
tp165
F-3.6862699999999999
s(I55
S'P'
tp166
F0.82414200000000004
s(I39
S'G'
tp167
F0.64863700000000002
s(I34
S'L'
tp168
F-5.6952400000000001
s(I28
S'F'
tp169
F-1.6883900000000001
s(I51
S'T'
tp170
F-0.90370399999999995
s(I66
S'R'
tp171
F3.47479
s(I9
S'C'
tp172
F4.4648000000000003
s(I9
S'H'
tp173
F-0.0690138
s(I23
S'H'
tp174
F3.69597
s(I2
S'N'
tp175
F0.79351400000000005
s(I55
S'R'
tp176
F-2.2183799999999998
s(I18
S'W'
tp177
F-0.78081
s(I62
S'N'
tp178
F1.40063
s(I33
S'M'
tp179
F0.068546499999999996
s(I45
S'D'
tp180
F10.783300000000001
s(I5
S'R'
tp181
F12.315300000000001
s(I76
S'S'
tp182
F0.45476
s(I54
S'S'
tp183
F0.21498300000000001
s(I50
S'S'
tp184
F7.8268700000000004
s(I63
S'G'
tp185
F-0.55610599999999999
s(I55
S'I'
tp186
F1.7430399999999999
s(I56
S'G'
tp187
F9.1654699999999991
s(I56
S'A'
tp188
F4.6750400000000001
s(I10
S'E'
tp189
F1.60524
s(I57
S'R'
tp190
F-3.11395
s(I76
S'Y'
tp191
F0.92180099999999998
s(I9
S'G'
tp192
F-1.6592
s(I41
S'F'
tp193
F0.53198999999999996
s(I9
S'L'
tp194
F-0.59496899999999997
s(I61
S'F'
tp195
F7.4853500000000004
s(I46
S'R'
tp196
F5.9915099999999999
s(I36
S'Q'
tp197
F3.7781500000000001
s(I25
S'L'
tp198
F-0.28857899999999997
s(I30
S'P'
tp199
F18.591999999999999
s(I8
S'I'
tp200
F-0.0196537
s(I56
S'C'
tp201
F4.7454400000000003
s(I45
S'R'
tp202
F5.2750199999999996
s(I46
S'C'
tp203
F6.3179999999999996
s(I30
S'F'
tp204
F3.0085899999999999
s(I10
S'C'
tp205
F0.037176000000000001
s(I69
S'E'
tp206
F10.1435
s(I5
S'G'
tp207
F7.2412999999999998
s(I2
S'I'
tp208
F-3.6731600000000002
s(I12
S'M'
tp209
F-0.54219399999999995
s(I6
S'T'
tp210
F-0.12787000000000001
s(I18
S'R'
tp211
F1.15018
s(I22
S'G'
tp212
F3.4743200000000001
s(I57
S'C'
tp213
F1.10582
s(I76
S'N'
tp214
F-1.6553199999999999
s(I24
S'S'
tp215
F-2.74464
s(I36
S'S'
tp216
F2.41635
s(I40
S'H'
tp217
F1.9076900000000001
s(I53
S'H'
tp218
F-2.0518100000000001
s(I54
S'H'
tp219
F0.00029521499999999998
s(I33
S'G'
tp220
F3.0323000000000002
s(I34
S'D'
tp221
F-0.231936
s(I69
S'C'
tp222
F4.19848
s(I57
S'V'
tp223
F0.36151100000000003
s(I72
S'L'
tp224
F-1.2460599999999999
s(I71
S'M'
tp225
F3.8481100000000001
s(I32
S'P'
tp226
F11.319599999999999
s(I57
S'A'
tp227
F-2.0045299999999999
s(I46
S'V'
tp228
F6.7026199999999996
s(I29
S'G'
tp229
F2.5187400000000002
s(I14
S'Q'
tp230
F3.0211800000000002
s(I30
S'T'
tp231
F7.2054400000000003
s(I21
S'W'
tp232
F-2.6081599999999998
s(I59
S'R'
tp233
F10.077
s(I58
S'E'
tp234
F0.635772
s(I9
S'R'
tp235
F3.40517
s(I63
S'F'
tp236
F-1.28379
s(I37
S'Q'
tp237
F1.2763100000000001
s(I24
S'E'
tp238
F-2.6427800000000001
s(I52
S'G'
tp239
F1.0172600000000001
s(I47
S'H'
tp240
F69.450500000000005
s(I36
S'T'
tp241
F2.1149200000000001
s(I13
S'T'
tp242
F4.5559700000000003
s(I56
S'I'
tp243
F3.8365200000000002
s(I18
S'M'
tp244
F-1.0283599999999999
s(I31
S'D'
tp245
F3.4416799999999999
s(I10
S'M'
tp246
F2.0381399999999998
s(I58
S'C'
tp247
F0.29835
s(I50
S'I'
tp248
F7.9861399999999998
s(I60
S'M'
tp249
F2.36374
s(I67
S'N'
tp250
F6.9981799999999996
s(I32
S'T'
tp251
F2.1409699999999998
s(I63
S'L'
tp252
F-2.73733
s(I8
S'F'
tp253
F0.28111900000000001
s(I36
S'Y'
tp254
F0.83406800000000003
s(I41
S'Y'
tp255
F2.7628900000000001
s(I56
S'K'
tp256
F12.700900000000001
s(I40
S'N'
tp257
F-1.24885
s(I10
S'K'
tp258
F1.4840500000000001
s(I58
S'A'
tp259
F-0.105294
s(I69
S'M'
tp260
F4.1533600000000002
s(I9
S'V'
tp261
F0.73389300000000002
s(I15
S'G'
tp262
F8.4666499999999996
s(I6
S'L'
tp263
F-1.8593200000000001
s(I15
S'Q'
tp264
F4.6864999999999997
s(I37
S'K'
tp265
F0.52596500000000002
s(I53
S'P'
tp266
F-3.4281799999999998
s(I38
S'Q'
tp267
F1.8334900000000001
s(I53
S'T'
tp268
F1.81267
s(I69
S'K'
tp269
F9.2422199999999997
s(I10
S'Y'
tp270
F-1.0670500000000001
s(I28
S'V'
tp271
F-1.2727900000000001
s(I72
S'E'
tp272
F-0.80924200000000002
s(I74
S'N'
tp273
F-0.154917
s(I44
S'T'
tp274
F6.6013200000000003
s(I15
S'C'
tp275
F5.79819
s(I50
S'C'
tp276
F7.2330699999999997
s(I63
S'N'
tp277
F-1.3635299999999999
s(I42
S'Y'
tp278
F-1.4638
s(I24
S'M'
tp279
F-5.2424999999999997
s(I55
S'Y'
tp280
F1.62999
s(I32
S'K'
tp281
F-1.41737
s(I59
S'A'
tp282
F6.6919000000000004
s(I56
S'Q'
tp283
F6.0972900000000001
s(I31
S'L'
tp284
F2.5413199999999998
s(I67
S'R'
tp285
F17.450299999999999
s(I35
S'E'
tp286
F2.8011599999999999
s(I57
S'M'
tp287
F-3.7940200000000002
s(I40
S'R'
tp288
F1.41015
s(I34
S'W'
tp289
F-3.3875500000000001
s(I68
S'T'
tp290
F2.4144199999999998
s(I7
S'V'
tp291
F0.82104699999999997
s(I21
S'R'
tp292
F4.4089900000000002
s(I56
S'S'
tp293
F6.6497900000000003
s(I72
S'V'
tp294
F-2.3873600000000001
s(I28
S'K'
tp295
F-2.24884
s(I46
S'S'
tp296
F1.2081200000000001
s(I44
S'P'
tp297
F11.9061
s(I2
S'Y'
tp298
F-0.70688899999999999
s(I6
S'D'
tp299
F7.6248300000000002
s(I59
S'E'
tp300
F2.9346100000000002
s(I15
S'H'
tp301
F2.20052
s(I13
S'H'
tp302
F3.2603599999999999
s(I38
S'I'
tp303
F4.8632099999999996
s(I62
S'V'
tp304
F-2.0807799999999999
s(I12
S'D'
tp305
F1.05626
s(I60
S'A'
tp306
F4.4167699999999996
s(I7
S'C'
tp307
F1.36347
s(I57
S'Q'
tp308
F-3.49071
s(I23
S'P'
tp309
F6.9473900000000004
s(I25
S'H'
tp310
F-3.3013499999999998
s(I29
S'W'
tp311
F0.94980600000000004
s(I31
S'W'
tp312
F-0.270397
s(I30
S'D'
tp313
F10.8287
s(I35
S'P'
tp314
F104.29600000000001
s(I44
S'L'
tp315
F3.4967600000000001
s(I56
S'D'
tp316
F9.8681900000000002
s(I22
S'E'
tp317
F1.71346
s(I13
S'D'
tp318
F7.6032099999999998
s(I56
S'Y'
tp319
F9.7072500000000002
s(I20
S'N'
tp320
F-1.0658399999999999
s(I32
S'I'
tp321
F0.919964
s(I58
S'S'
tp322
F-0.89651899999999995
s(I65
S'E'
tp323
F-0.90288100000000004
s(I1
S'N'
tp324
F2.5425499999999999
s(I57
S'D'
tp325
F2.26837
s(I41
S'I'
tp326
F-5.3702199999999998
s(I28
S'C'
tp327
F-1.4832700000000001
s(I51
S'W'
tp328
F0.022861900000000001
s(I64
S'H'
tp329
F-2.6458400000000002
s(I58
S'Q'
tp330
F-2.4306899999999998
s(I44
S'H'
tp331
F8.88767
s(I25
S'F'
tp332
F-0.69778799999999996
s(I2
S'P'
tp333
F0.039833100000000003
s(I14
S'F'
tp334
F1.6566000000000001
s(I50
S'G'
tp335
F10.6922
s(I52
S'R'
tp336
F-0.78492399999999996
s(I42
S'V'
tp337
F-1.37782
s(I21
S'C'
tp338
F-0.81601500000000005
s(I33
S'I'
tp339
F-1.55627
s(I31
S'V'
tp340
F4.3098099999999997
s(I57
S'H'
tp341
F0.96110899999999999
s(I30
S'L'
tp342
F3.3047900000000001
s(I5
S'M'
tp343
F0.97015700000000005
s(I64
S'L'
tp344
F-1.6605000000000001
s(I44
S'D'
tp345
F8.5922900000000002
s(I56
S'P'
tp346
F8.7604600000000001
s(I55
S'M'
tp347
F-0.482821
s(I47
S'M'
tp348
F42.932499999999997
s(I42
S'I'
tp349
F-1.5394000000000001
s(I58
S'F'
tp350
F-2.91527
s(I43
S'S'
tp351
F8.8202499999999997
s(I64
S'N'
tp352
F-2.2057799999999999
s(I7
S'E'
tp353
F5.0825699999999996
s(I27
S'F'
tp354
F1.7977000000000001
s(I47
S'F'
tp355
F77.387900000000002
s(I70
S'N'
tp356
F4.1479100000000004
s(I44
S'W'
tp357
F11.000500000000001
s(I68
S'D'
tp358
F8.3369
s(I31
S'R'
tp359
F0.59647099999999997
s(I2
S'M'
tp360
F1.2433000000000001
s(I72
S'F'
tp361
F-2.2772299999999999
s(I35
S'N'
tp362
F0.87600800000000001
s(I22
S'C'
tp363
F-1.0115499999999999
s(I42
S'P'
tp364
F9.1608499999999999
s(I1
S'D'
tp365
F8.7506299999999992
s(I52
S'I'
tp366
F3.4811899999999998
s(I3
S'Q'
tp367
F7.4923599999999997
s(I33
S'C'
tp368
F1.0696000000000001
s(I65
S'C'
tp369
F-1.4056599999999999
s(I56
S'R'
tp370
F13.430300000000001
s(I72
S'Y'
tp371
F-1.03704
s(I23
S'V'
tp372
F2.7578499999999999
s(I44
S'S'
tp373
F4.8012699999999997
s(I3
S'S'
tp374
F5.4840799999999996
s(I21
S'K'
tp375
F0.611738
s(I37
S'T'
tp376
F0.012085200000000001
s(I18
S'S'
tp377
F-1.8262
s(I60
S'F'
tp378
F0.83451299999999995
s(I31
S'G'
tp379
F-0.31332599999999999
s(I60
S'P'
tp380
F64.506299999999996
s(I45
S'S'
tp381
F4.6977399999999996
s(I56
S'T'
tp382
F5.7859600000000002
s(I55
S'E'
tp383
F2.24214
s(I33
S'T'
tp384
F-0.58799100000000004
s(I25
S'R'
tp385
F0.60312699999999997
s(I35
S'Y'
tp386
F-0.070940199999999995
s(I43
S'K'
tp387
F12.892799999999999
s(I29
S'F'
tp388
F-1.1198600000000001
s(I14
S'R'
tp389
F1.69875
s(I3
S'V'
tp390
F2.0419
s(I4
S'Q'
tp391
F2.9720200000000001
s(I70
S'P'
tp392
F13.554600000000001
s(I16
S'M'
tp393
F1.31168
s(I47
S'W'
tp394
F77.900099999999995
s(I70
S'F'
tp395
F1.0088999999999999
s(I8
S'M'
tp396
F0.19012499999999999
s(I7
S'L'
tp397
F4.1646900000000002
s(I68
S'L'
tp398
F-1.06318
s(I37
S'N'
tp399
F1.3899300000000001
s(I57
S'T'
tp400
F1.04097
s(I2
S'E'
tp401
F1.8313699999999999
s(I18
S'N'
tp402
F-1.42916
s(I4
S'S'
tp403
F2.3667600000000002
s(I72
S'I'
tp404
F-2.1339800000000002
s(I1
S'G'
tp405
F2.0291299999999999
s(I6
S'Y'
tp406
F-1.9959800000000001
s(I67
S'M'
tp407
F1.69276
s(I19
S'F'
tp408
F0.75115399999999999
s(I12
S'P'
tp409
F3.0793699999999999
s(I26
S'F'
tp410
F2.4254899999999999
s(I12
S'K'
tp411
F1.98645
s(I71
S'I'
tp412
F4.0786100000000003
s(I42
S'F'
tp413
F-5.6393000000000004
s(I9
S'K'
tp414
F1.0427500000000001
s(I27
S'R'
tp415
F4.4216499999999996
s(I44
S'K'
tp416
F5.4162699999999999
s(I31
S'F'
tp417
F-1.3668100000000001
s(I5
S'Q'
tp418
F5.0209000000000001
s(I12
S'R'
tp419
F2.34449
s(I26
S'D'
tp420
F9.8042499999999997
s(I71
S'K'
tp421
F4.4853300000000003
s(I4
S'T'
tp422
F3.5808499999999999
s(I24
S'I'
tp423
F-2.0306500000000001
s(I11
S'C'
tp424
F-0.97245800000000004
s(I62
S'C'
tp425
F-1.1908099999999999
s(I69
S'T'
tp426
F6.2949599999999997
s(I18
S'I'
tp427
F-0.904416
s(I51
S'R'
tp428
F1.92197
s(I58
S'V'
tp429
F1.3821600000000001
s(I43
S'C'
tp430
F5.4617199999999997
s(I32
S'F'
tp431
F-2.1605599999999998
s(I61
S'L'
tp432
F6.1739100000000002
s(I27
S'V'
tp433
F7.8031800000000002
s(I70
S'H'
tp434
F6.1880499999999996
s(I47
S'V'
tp435
F50.524700000000003
s(I36
S'R'
tp436
F7.7562699999999998
s(I44
S'G'
tp437
F7.6427199999999997
s(I5
S'T'
tp438
F3.1004100000000001
s(I49
S'V'
tp439
F-0.31090800000000002
s(I28
S'P'
tp440
F9.1206700000000005
s(I38
S'V'
tp441
F0.75783999999999996
s(I67
S'Q'
tp442
F4.6647499999999997
s(I24
S'T'
tp443
F-0.078417500000000001
s(I6
S'Q'
tp444
F-0.32333000000000001
s(I62
S'G'
tp445
F-0.042944999999999997
s(I1
S'T'
tp446
F0.081858899999999998
s(I74
S'E'
tp447
F-0.73391200000000001
s(I3
S'A'
tp448
F5.4590899999999998
s(I52
S'N'
tp449
F1.59544
s(I28
S'R'
tp450
F-1.55277
s(I67
S'D'
tp451
F10.2369
s(I63
S'H'
tp452
F2.47139
s(I61
S'H'
tp453
F5.7773399999999997
s(I60
S'W'
tp454
F5.4214500000000001
s(I23
S'T'
tp455
F5.1234200000000003
s(I74
S'C'
tp456
F-1.39954
s(I44
S'C'
tp457
F5.7941700000000003
s(I3
S'C'
tp458
F6.8023699999999998
s(I9
S'E'
tp459
F0.278694
s(I66
S'I'
tp460
F-0.73928400000000005
s(I19
S'P'
tp461
F-3.2459199999999999
s(I9
S'Q'
tp462
F-0.11945699999999999
s(I10
S'V'
tp463
F1.23969
s(I64
S'P'
tp464
F99.237499999999997
s(I37
S'E'
tp465
F1.7059299999999999
s(I24
S'Q'
tp466
F-2.7639200000000002
s(I62
S'K'
tp467
F4.3275499999999996
s(I3
S'E'
tp468
F10.1844
s(I24
S'H'
tp469
F-3.8047499999999999
s(I19
S'R'
tp470
F6.9008700000000003
s(I63
S'Q'
tp471
F-2.7411799999999999
s(I14
S'L'
tp472
F0.71246799999999999
s(I35
S'I'
tp473
F3.4069099999999999
s(I32
S'G'
tp474
F-1.32568
s(I29
S'V'
tp475
F1.2539100000000001
s(I3
S'F'
tp476
F9.9689599999999992
s(I48
S'L'
tp477
F-1.3148
s(I61
S'D'
tp478
F10.35
s(I4
S'A'
tp479
F2.0872999999999999
s(I39
S'M'
tp480
F0.827156
s(I59
S'N'
tp481
F5.3098900000000002
s(I14
S'S'
tp482
F1.84975
s(I68
S'P'
tp483
F10.2913
s(I21
S'I'
tp484
F-2.1594600000000002
s(I7
S'R'
tp485
F8.0290300000000006
s(I73
S'R'
tp486
F3.3837799999999998
s(I28
S'G'
tp487
F0.47319099999999997
s(I49
S'N'
tp488
F-0.19361700000000001
s(I51
S'S'
tp489
F-0.16960500000000001
s(I63
S'S'
tp490
F0.91274500000000003
s(I25
S'S'
tp491
F0.72245199999999998
s(I37
S'S'
tp492
F1.1460999999999999
s(I3
S'H'
tp493
F10.2341
s(I4
S'C'
tp494
F3.6285500000000002
s(I38
S'N'
tp495
F1.80722
s(I62
S'Y'
tp496
F-3.5123500000000001
s(I1
S'W'
tp497
F2.1274500000000001
s(I6
S'I'
tp498
F-2.4336500000000001
s(I10
S'Q'
tp499
F0.84920600000000002
s(I26
S'W'
tp500
F7.5583799999999997
s(I74
S'M'
tp501
F-1.3018099999999999
s(I19
S'V'
tp502
F0.50441999999999998
s(I50
S'T'
tp503
F5.3558700000000004
s(I25
S'Q'
tp504
F-1.9733799999999999
s(I65
S'L'
tp505
F-0.47165000000000001
s(I32
S'R'
tp506
F0.807952
s(I36
S'F'
tp507
F3.05152
s(I48
S'Q'
tp508
F-4.8215500000000002
s(I74
S'K'
tp509
F-0.972522
s(I3
S'K'
tp510
F11.888500000000001
s(I74
S'W'
tp511
F-1.96699
s(I35
S'T'
tp512
F4.2917699999999996
s(I20
S'H'
tp513
F-0.50941199999999998
s(I5
S'A'
tp514
F3.2216900000000002
s(I9
S'Y'
tp515
F-2.4484300000000001
s(I45
S'M'
tp516
F5.8679199999999998
s(I4
S'D'
tp517
F3.9628700000000001
s(I74
S'T'
tp518
F-0.47273900000000002
s(I32
S'M'
tp519
F-0.18524199999999999
s(I26
S'S'
tp520
F4.83934
s(I38
S'S'
tp521
F1.3495299999999999
s(I3
S'M'
tp522
F3.46462
s(I69
S'D'
tp523
F7.1134199999999996
s(I63
S'Y'
tp524
F-3.5558999999999998
s(I68
S'Y'
tp525
F-0.56713000000000002
s(I49
S'S'
tp526
F0.019933699999999999
s(I48
S'D'
tp527
F0.38960499999999998
s(I14
S'E'
tp528
F3.4280200000000001
s(I54
S'I'
tp529
F0.92786100000000005
s(I21
S'Q'
tp530
F-2.6053899999999999
s(I26
S'Q'
tp531
F3.32897
s(I5
S'D'
tp532
F9.7485800000000005
s(I47
S'D'
tp533
F49.094200000000001
s(I4
S'K'
tp534
F3.0043600000000001
s(I71
S'T'
tp535
F2.9589400000000001
s(I6
S'A'
tp536
F-1.8855599999999999
s(I48
S'W'
tp537
F-1.6920999999999999
s(I23
S'Y'
tp538
F7.6276999999999999
s(I52
S'L'
tp539
F-0.82000099999999998
s(I49
S'D'
tp540
F3.0682999999999998
s(I13
S'G'
tp541
F5.2463899999999999
s(I32
S'S'
tp542
F1.6521999999999999
s(I75
S'W'
tp543
F2.3319200000000002
s(I1
S'I'
tp544
F-0.47712399999999999
s(I8
S'S'
tp545
F4.4500500000000001
s(I71
S'V'
tp546
F1.9423600000000001
s(I39
S'H'
tp547
F1.29827
s(I23
S'R'
tp548
F14.3468
s(I36
S'N'
tp549
F5.0230699999999997
s(I48
S'I'
tp550
F-2.90063
s(I69
S'Y'
tp551
F10.244199999999999
s(I51
S'M'
tp552
F0.47326499999999999
s(I61
S'Y'
tp553
F8.8692799999999998
s(I66
S'Y'
tp554
F-3.8648600000000002
s(I22
S'Q'
tp555
F0.165825
s(I11
S'W'
tp556
F1.86574
s(I4
S'L'
tp557
F2.8513899999999999
s(I36
S'W'
tp558
F-2.6898200000000001
s(I11
S'V'
tp559
F-1.0600400000000001
s(I23
S'K'
tp560
F8.50441
s(I67
S'F'
tp561
F5.8754299999999997
s(I18
S'T'
tp562
F-1.9321999999999999
s(I7
S'A'
tp563
F0.28149200000000002
s(I55
S'K'
tp564
F0.82428000000000001
s(I40
S'F'
tp565
F-1.28267
s(I28
S'W'
tp566
F-2.9280900000000001
s(I30
S'W'
tp567
F5.2431900000000002
s(I45
S'A'
tp568
F7.9497200000000001
s(I49
S'I'
tp569
F-0.60641999999999996
s(I41
S'W'
tp570
F8.4986700000000006
s(I66
S'N'
tp571
F3.9935
s(I73
S'F'
tp572
F0.397287
s(I23
S'Q'
tp573
F3.01126
s(I50
S'D'
tp574
F9.0862099999999995
s(I65
S'N'
tp575
F-0.59350599999999998
s(I55
S'N'
tp576
F0.84345999999999999
s(I8
S'P'
tp577
F2.49282
s(I33
S'E'
tp578
F1.2962100000000001
s(I46
S'G'
tp579
F1.23584
s(I61
S'Q'
tp580
F8.8048400000000004
s(I35
S'D'
tp581
F4.2811700000000004
s(I57
S'G'
tp582
F1.4491799999999999
s(I59
S'I'
tp583
F7.4481099999999998
s(I53
S'F'
tp584
F-1.9761599999999999
s(I23
S'C'
tp585
F4.1609800000000003
s(I51
S'N'
tp586
F-0.92765900000000001
s(I46
S'D'
tp587
F6.7089699999999999
s(I68
S'I'
tp588
F1.8691
s(I70
S'T'
tp589
F4.9981799999999996
s(I59
S'D'
tp590
F7.1853600000000002
s(I25
S'T'
tp591
F-1.4233800000000001
s(I7
S'H'
tp592
F4.22126
s(I46
S'K'
tp593
F5.0338099999999999
s(I54
S'Y'
tp594
F-1.9133199999999999
s(I12
S'E'
tp595
F0.059985900000000002
s(I57
S'K'
tp596
F-1.8214600000000001
s(I47
S'T'
tp597
F40.701599999999999
s(I23
S'M'
tp598
F6.3109599999999997
s(I59
S'Q'
tp599
F3.5997400000000002
s(I60
S'I'
tp600
F6.3870699999999996
s(I71
S'E'
tp601
F7.1058399999999997
s(I4
S'V'
tp602
F1.82117
s(I46
S'H'
tp603
F0.28978700000000002
s(I10
S'H'
tp604
F0.97817699999999996
s(I1
S'Y'
tp605
F4.84063
s(I8
S'C'
tp606
F3.3588499999999999
s(I14
S'Y'
tp607
F2.7056800000000001
s(I66
S'M'
tp608
F1.4272800000000001
s(I58
S'M'
tp609
F0.96845000000000003
s(I69
S'I'
tp610
F6.4108599999999996
s(I40
S'C'
tp611
F0.106253
s(I33
S'L'
tp612
F0.63484399999999996
s(I71
S'G'
tp613
F4.8403099999999997
s(I47
S'P'
tp614
F122.584
s(I67
S'C'
tp615
F5.1352799999999998
s(I53
S'N'
tp616
F-0.95820499999999997
s(I20
S'F'
tp617
F0.13433400000000001
s(I58
S'K'
tp618
F0.33351900000000001
s(I51
S'V'
tp619
F-1.6579200000000001
s(I60
S'E'
tp620
F8.2374600000000004
s(I4
S'R'
tp621
F6.09633
s(I29
S'M'
tp622
F0.94307200000000002
s(I70
S'L'
tp623
F3.5524499999999999
s(I8
S'N'
tp624
F2.8132899999999998
s(I30
S'Q'
tp625
F5.1207200000000004
s(I37
S'W'
tp626
F2.7673800000000002
s(I30
S'G'
tp627
F8.6439800000000009
s(I15
S'Y'
tp628
F1.93387
s(I41
S'G'
tp629
F5.2070400000000001
s(I23
S'E'
tp630
F7.1280700000000001
s(I16
S'P'
tp631
F0.23486699999999999
s(I31
S'H'
tp632
F-1.00126
s(I29
S'H'
tp633
F0.27350799999999997
s(I40
S'I'
tp634
F-0.75891799999999998
s(I55
S'C'
tp635
F-0.376191
s(I33
S'F'
tp636
F0.124428
s(I11
S'Y'
tp637
F-0.68887100000000001
s(I16
S'Y'
tp638
F0.52878099999999995
s(I72
S'M'
tp639
F-1.2246999999999999
s(I22
S'F'
tp640
F-1.8119499999999999
s(I54
S'G'
tp641
F0.417296
s(I66
S'E'
tp642
F3.6326900000000002
s(I46
S'W'
tp643
F6.63931
s(I50
S'V'
tp644
F4.4045800000000002
s(I15
S'K'
tp645
F9.3234300000000001
s(I70
S'Y'
tp646
F-3.8726500000000001
s(I57
S'W'
tp647
F-0.75767600000000002
s(I39
S'V'
tp648
F-1.7381599999999999
s(I53
S'V'
tp649
F-0.284051
s(I28
S'A'
tp650
F-0.54381100000000004
s(I43
S'M'
tp651
F1.2407999999999999
s(I35
S'M'
tp652
F0.17194100000000001
s(I46
S'T'
tp653
F4.4942599999999997
s(I29
S'E'
tp654
F4.0019299999999998
s(I70
S'D'
tp655
F11.311400000000001
s(I7
S'N'
tp656
F3.1339999999999999
s(I31
S'S'
tp657
F1.36215
s(I68
S'N'
tp658
F1.0094099999999999
s(I5
S'S'
tp659
F8.4479699999999998
s(I17
S'Y'
tp660
F5.0064700000000002
s(I73
S'T'
tp661
F2.9987699999999999
s(I73
S'D'
tp662
F4.0948200000000003
s(I24
S'G'
tp663
F-1.74447
s(I15
S'F'
tp664
F1.19686
s(I39
S'K'
tp665
F-2.8908499999999999
s(I6
S'M'
tp666
F1.0982499999999999
s(I15
S'P'
tp667
F4.4523000000000001
s(I11
S'P'
tp668
F-2.0554899999999998
s(I54
S'P'
tp669
F-0.159219
s(I50
S'P'
tp670
F12.585100000000001
s(I53
S'E'
tp671
F0.419298
s(I16
S'Q'
tp672
F0.90410699999999999
s(I29
S'A'
tp673
F1.19713
s(I34
S'N'
tp674
F-2.5683600000000002
s(I51
S'I'
tp675
F1.1327
s(I50
S'W'
tp676
F14.653600000000001
s(I73
S'C'
tp677
F5.8733300000000002
s(I73
S'H'
tp678
F4.8297499999999998
s(I42
S'T'
tp679
F-1.45364
s(I70
S'Q'
tp680
F1.1512
s(I37
S'I'
tp681
F0.068921999999999997
s(I24
S'C'
tp682
F-3.9877600000000002
s(I24
S'R'
tp683
F-1.9813799999999999
s(I6
S'S'
tp684
F-0.11147799999999999
s(I17
S'S'
tp685
F3.49458
s(I20
S'V'
tp686
F1.5217000000000001
s(I43
S'E'
tp687
F10.3156
s(I1
S'F'
tp688
F2.05267
s(I59
S'M'
tp689
F3.5971299999999999
s(I37
S'F'
tp690
F1.3015099999999999
s(I60
S'T'
tp691
F3.9232100000000001
s(I57
S'L'
tp692
F-0.221359
s(I73
S'Q'
tp693
F2.3998300000000001
s(I12
S'Q'
tp694
F-2.9003399999999999
s(I17
S'Q'
tp695
F4.5339900000000002
s(I73
S'G'
tp696
F1.2394499999999999
s(I66
S'P'
tp697
F10.610099999999999
s(I45
S'W'
tp698
F0.0090842800000000001
s(I30
S'A'
tp699
F5.3990900000000002
s(I71
S'P'
tp700
F3.5985900000000002
s(I40
S'D'
tp701
F-0.88729000000000002
s(I6
S'E'
tp702
F3.3492199999999999
s(I36
S'H'
tp703
F2.0343599999999999
s(I34
S'H'
tp704
F-0.77872300000000005
s(I11
S'H'
tp705
F0.95754399999999995
s(I12
S'S'
tp706
F0.73163199999999995
s(I14
S'N'
tp707
F-1.24363
s(I7
S'W'
tp708
F2.80965
s(I8
S'W'
tp709
F-3.8949099999999999
s(I16
S'I'
tp710
F-0.55555399999999999
s(I71
S'R'
tp711
F6.0043199999999999
s(I34
S'F'
tp712
F-2.3571499999999999
s(I57
S'P'
tp713
F19.8217
s(I54
S'W'
tp714
F-1.89201
s(I51
S'Q'
tp715
F-1.6245499999999999
s(I40
S'W'
tp716
F1.6479600000000001
s(I50
S'F'
tp717
F3.2958099999999999
s(I64
S'D'
tp718
F-2.9933399999999999
s(I30
S'E'
tp719
F5.6595199999999997
s(I70
S'I'
tp720
F-1.48369
s(I67
S'W'
tp721
F7.8674799999999996
s(I74
S'Q'
tp722
F-2.0110199999999998
s(I39
S'F'
tp723
F0.85220300000000004
s(I13
S'Q'
tp724
F2.6581000000000001
s(I56
S'E'
tp725
F10.2348
s(I31
S'A'
tp726
F1.7078899999999999
s(I50
S'M'
tp727
F2.8687
s(I32
S'N'
tp728
F-1.2941
s(I28
S'Q'
tp729
F-3.6739299999999999
s(I17
S'K'
tp730
F12.498900000000001
s(I63
S'D'
tp731
F3.5501499999999999
s(I18
S'P'
tp732
F6.2208899999999998
s(I19
S'C'
tp733
F3.42055
s(I62
S'R'
tp734
F4.1993999999999998
s(I55
S'G'
tp735
F3.8498999999999999
s(I21
S'N'
tp736
F1.1262700000000001
s(I68
S'R'
tp737
F7.1212999999999997
s(I59
S'L'
tp738
F1.9893700000000001
s(I31
S'C'
tp739
F1.7308600000000001
s(I11
S'N'
tp740
F-2.26261
s(I73
S'Y'
tp741
F1.18685
s(I5
S'C'
tp742
F4.72356
s(I72
S'N'
tp743
F-2.5775800000000002
s(I17
S'I'
tp744
F8.3487600000000004
s(I19
S'E'
tp745
F2.6503999999999999
s(I41
S'H'
tp746
F1.84704
s(I55
S'H'
tp747
F1.95286
s(I38
S'L'
tp748
F5.3205
s(I64
S'I'
tp749
F1.19896
s(I52
S'Q'
tp750
F2.12967
s(I13
S'M'
tp751
F5.4285199999999998
s(I54
S'L'
tp752
F-1.94085
s(I65
S'R'
tp753
F0.874444
s(I9
S'P'
tp754
F4.6423899999999998
s(I75
S'Q'
tp755
F-1.13785
s(I8
S'T'
tp756
F2.2072600000000002
s(I14
S'G'
tp757
F-0.71664000000000005
s(I11
S'A'
tp758
F-1.18015
s(I74
S'V'
tp759
F-0.62660899999999997
s(I16
S'A'
tp760
F-0.96670199999999995
s(I64
S'K'
tp761
F-1.8902300000000001
s(I29
S'Q'
tp762
F1.4557100000000001
s(I18
S'K'
tp763
F-1.1198900000000001
s(I20
S'C'
tp764
F0.31520100000000001
s(I5
S'F'
tp765
F2.2709000000000001
s(I25
S'G'
tp766
F0.94765299999999997
s(I58
S'H'
tp767
F-1.64486
s(I35
S'H'
tp768
F2.8829600000000002
s(I33
S'H'
tp769
F0.87556100000000003
s(I27
S'I'
tp770
F3.3908499999999999
s(I45
S'K'
tp771
F7.8716299999999997
s(I19
S'I'
tp772
F0.623699
s(I30
S'M'
tp773
F5.0615899999999998
s(I42
S'D'
tp774
F0.36710100000000001
s(I52
S'C'
tp775
F0.89825100000000002
s(I70
S'A'
tp776
F4.6232600000000001
s(I64
S'M'
tp777
F-0.43739600000000001
s(I74
S'Y'
tp778
F-4.55844
s(I6
S'C'
tp779
F1.6335900000000001
s(I56
S'M'
tp780
F4.2472000000000003
s(I25
S'E'
tp781
F-0.76144000000000001
s(I38
S'G'
tp782
F3.0690599999999999
s(I7
S'Y'
tp783
F1.84335
s(I17
S'C'
tp784
F3.0522300000000002
s(I65
S'I'
tp785
F1.0507899999999999
s(I32
S'Q'
tp786
F-1.41177
s(I49
S'G'
tp787
F2.2592500000000002
s(I1
S'V'
tp788
F-1.3396399999999999
s(I21
S'V'
tp789
F0.758131
s(I7
S'D'
tp790
F5.0408299999999997
s(I76
S'Q'
tp791
F-0.107866
s(I20
S'D'
tp792
F0.77563899999999997
s(I31
S'K'
tp793
F1.24299
s(I45
S'Y'
tp794
F0.71683200000000002
s(I12
S'A'
tp795
F1.3333200000000001
s(I17
S'A'
tp796
F4.0316400000000003
s(I27
S'M'
tp797
F0.026939600000000001
s(I18
S'F'
tp798
F-1.88768
s(I34
S'Y'
tp799
F1.89784
s(I38
S'D'
tp800
F6.4685699999999997
s(I59
S'S'
tp801
F5.2016600000000004
s(I51
S'D'
tp802
F-0.607043
s(I35
S'S'
tp803
F4.5907299999999998
s(I20
S'I'
tp804
F2.8237299999999999
s(I9
S'S'
tp805
F1.8842399999999999
s(I14
S'H'
tp806
F5.4898899999999999
s(I41
S'R'
tp807
F11.9732
s(I12
S'H'
tp808
F4.46617
s(I26
S'N'
tp809
F3.2738299999999998
s(I12
S'C'
tp810
F-1.63045
s(I71
S'A'
tp811
F6.1150399999999996
s(I75
S'I'
tp812
F-0.10609499999999999
s(I64
S'R'
tp813
F-0.63144400000000001
s(I4
S'E'
tp814
F4.7679900000000002
s(I30
S'R'
tp815
F10.271599999999999
s(I8
S'G'
tp816
F7.1508399999999996
s(I45
S'T'
tp817
F6.6956800000000003
s(I33
S'Q'
tp818
F0.766598
s(I5
S'Y'
tp819
F4.3683300000000003
s(I61
S'W'
tp820
F13.8306
s(I63
S'W'
tp821
F-1.29366
s(I26
S'L'
tp822
F-0.437496
s(I71
S'C'
tp823
F7.7936199999999998
s(I64
S'T'
tp824
F-0.34278599999999998
s(I76
S'L'
tp825
F0.97038500000000005
s(I42
S'L'
tp826
F-2.52339
s(I13
S'A'
tp827
F4.3775399999999998
s(I18
S'A'
tp828
F-2.3534000000000002
s(I23
S'W'
tp829
F8.9934999999999992
s(I9
S'W'
tp830
F-1.10101
s(I10
S'I'
tp831
F1.0923499999999999
s(I64
S'V'
tp832
F2.5259499999999999
s(I60
S'S'
tp833
F3.1258300000000001
s(I34
S'S'
tp834
F-1.35843
s(I55
S'W'
tp835
F5.86076
s(I10
S'S'
tp836
F-1.06254
s(I56
S'W'
tp837
F13.0657
s(I76
S'I'
tp838
F-1.6947300000000001
s(I61
S'S'
tp839
F6.8181500000000002
s(I26
S'H'
tp840
F3.0678000000000001
s(I53
S'M'
tp841
F-0.881243
s(I1
S'H'
tp842
F1.7548900000000001
s(I52
S'E'
tp843
F1.6245400000000001
s(I13
S'L'
tp844
F4.3849600000000004
s(I34
S'Q'
tp845
F-2.3090799999999998
s(I64
S'Y'
tp846
F-2.2831299999999999
s(I54
S'N'
tp847
F-2.4707300000000001
s(I28
S'N'
tp848
F0.95010499999999998
s(I51
S'L'
tp849
F-0.403781
s(I52
S'V'
tp850
F4.4542900000000003
s(I4
S'M'
tp851
F2.6645300000000001
s(I14
S'A'
tp852
F0.71667000000000003
s(I21
S'G'
tp853
F0.58740599999999998
s(I8
S'D'
tp854
F5.7425499999999996
s(I43
S'V'
tp855
F0.282051
s(I63
S'V'
tp856
F-1.0323599999999999
s(I15
S'E'
tp857
F6.7729400000000002
s(I22
S'Y'
tp858
F-1.65239
s(I27
S'Y'
tp859
F1.61704
s(I37
S'M'
tp860
F1.7793000000000001
s(I24
S'N'
tp861
F-0.30879899999999999
s(I19
S'Y'
tp862
F1.11632
s(I53
S'R'
tp863
F-1.8613
s(I65
S'Y'
tp864
F-2.1785800000000002
s(I39
S'E'
tp865
F-2.8203
s(I75
S'T'
tp866
F0.23863799999999999
s(I45
S'H'
tp867
F4.0980299999999996
s(I76
S'W'
tp868
F1.49698
s(I75
S'F'
tp869
F-0.432869
s(I20
S'T'
tp870
F1.04657
s(I53
S'S'
tp871
F-0.16817599999999999
s(I15
S'A'
tp872
F8.3628800000000005
s(I34
S'M'
tp873
F-4.0508800000000003
s(I1
S'K'
tp874
F6.7924100000000003
s(I24
S'K'
tp875
F-3.5399600000000002
s(I48
S'F'
tp876
F0.69633100000000003
s(I11
S'T'
tp877
F0.57875399999999999
s(I67
S'P'
tp878
F15.0954
s(I16
S'R'
tp879
F-0.63437500000000002
s(I35
S'C'
tp880
F4.3761299999999999
s(I62
S'T'
tp881
F1.52451
s(I53
S'A'
tp882
F1.0997600000000001
s(I20
S'Y'
tp883
F-0.35183500000000001
s(I25
S'Y'
tp884
F-0.00021863399999999999
s(I65
S'D'
tp885
F0.497645
s(I59
S'H'
tp886
F1.8111200000000001
s(I45
S'V'
tp887
F6.9897999999999998
s(I21
S'T'
tp888
F1.6265099999999999
s(I22
S'L'
tp889
F0.99145099999999997
s(I69
S'N'
tp890
F4.2952500000000002
s(I43
S'N'
tp891
F4.8321500000000004
s(I20
S'P'
tp892
F6.4875600000000002
s(I5
S'I'
tp893
F3.0359500000000001
s(I45
S'E'
tp894
F10.2475
s(I76
S'R'
tp895
F2.09259
s(I24
S'V'
tp896
F-2.20051
s(I6
S'W'
tp897
F-0.25662000000000001
s(I2
S'K'
tp898
F1.20686
s(I17
S'W'
tp899
F9.7680100000000003
s(I42
S'W'
tp900
F-1.7104699999999999
s(I10
S'D'
tp901
F1.36025
s(I34
S'G'
tp902
F0.43824600000000002
s(I14
S'M'
tp903
F2.45546
s(I54
S'A'
tp904
F-1.81921
s(I48
S'M'
tp905
F-3.6960500000000001
s(I26
S'Y'
tp906
F5.1036900000000003
s(I5
S'L'
tp907
F-2.03512
s(I27
S'C'
tp908
F3.4852699999999999
s(I55
S'L'
tp909
F2.8633299999999999
s(I47
S'L'
tp910
F68.3887
s(I4
S'H'
tp911
F1.1348800000000001
s(I2
S'H'
tp912
F-2.1872699999999998
s(I67
S'I'
tp913
F0.13564200000000001
s(I38
S'Y'
tp914
F0.91273800000000005
s(I43
S'Y'
tp915
F10.6149
s(I58
S'G'
tp916
F1.66476
s(I69
S'H'
tp917
F4.6760099999999998
s(I52
S'T'
tp918
F0.35192800000000002
s(I68
S'S'
tp919
F3.3665799999999999
s(I53
S'I'
tp920
F0.114838
s(I65
S'G'
tp921
F-0.60136400000000001
s(I1
S'A'
tp922
F0.063593300000000005
s(I11
S'M'
tp923
F-2.3992399999999998
s(I2
S'F'
tp924
F-2.1940499999999998
s(I25
S'P'
tp925
F15.9063
s(I43
S'T'
tp926
F6.3854199999999999
s(I76
S'K'
tp927
F1.1999200000000001
s(I12
S'V'
tp928
F-1.6498900000000001
s(I43
S'F'
tp929
F6.6589900000000002
s(I42
S'Q'
tp930
F0.31178499999999998
s(I27
S'G'
tp931
F5.8414099999999998
s(I55
S'A'
tp932
F0.58768799999999999
s(I70
S'M'
tp933
F1.9459299999999999
s(I48
S'C'
tp934
F-0.42794100000000002
s(I2
S'C'
tp935
F-0.00021059299999999999
s(I18
S'L'
tp936
F-0.17333699999999999
s(I41
S'N'
tp937
F2.7178900000000001
s(I10
S'L'
tp938
F4.2385700000000002
s(I44
S'Y'
tp939
F9.0420200000000008
s(I21
S'E'
tp940
F2.7267399999999999
s(I29
S'C'
tp941
F0.59608300000000003
s(I62
S'D'
tp942
F4.6063299999999998
s(I60
S'L'
tp943
F2.9662199999999999
s(I59
S'V'
tp944
F6.8062800000000001
s(I49
S'R'
tp945
F2.0592100000000002
s(I30
S'N'
tp946
F8.3608399999999996
s(I51
S'G'
tp947
F0.47432099999999999
s(I48
S'E'
tp948
F1.1382000000000001
s(I2
S'A'
tp949
F0.78242800000000001
s(I17
S'M'
tp950
F5.2746700000000004
s(I71
S'H'
tp951
F5.5436199999999998
s(I38
S'R'
tp952
F6.0014799999999999
s(I55
S'D'
tp953
F4.7697500000000002
s(I76
S'F'
tp954
F1.31795
s(I72
S'P'
tp955
F-5.1808899999999998
s(I49
S'P'
tp956
F0.132579
s(I43
S'Q'
tp957
F3.5287199999999999
s(I40
S'A'
tp958
F1.0135000000000001
s(I33
S'N'
tp959
F1.6587799999999999
s(I23
S'N'
tp960
F5.5521399999999996
s(I53
S'Q'
tp961
F1.1568499999999999
s(I65
S'F'
tp962
F-2.8454199999999998
s(I65
S'T'
tp963
F3.3329800000000001
s(I11
S'E'
tp964
F0.26794699999999999
s(I62
S'H'
tp965
F-4.9004200000000004
s(I22
S'N'
tp966
F0.46188299999999999
s(I18
S'G'
tp967
F-0.061373700000000003
s(I76
S'C'
tp968
F-1.2878700000000001
s(I35
S'L'
tp969
F1.65802
s(I13
S'W'
tp970
F-0.33833099999999999
s(I70
S'E'
tp971
F7.3572699999999998
s(I6
S'G'
tp972
F1.19882
s(I17
S'G'
tp973
F6.9630599999999996
s(I42
S'G'
tp974
F0.57045900000000005
s(I46
S'L'
tp975
F5.1598800000000002
s(I63
S'E'
tp976
F1.1224000000000001
s(I61
S'V'
tp977
F2.2174200000000002
s(I39
S'Q'
tp978
F-2.55722
s(I44
S'Q'
tp979
F4.2956500000000002
s(I21
S'M'
tp980
F-3.0045500000000001
s(I62
S'L'
tp981
F-0.44737100000000002
s(I36
S'A'
tp982
F4.3086599999999997
s(I41
S'A'
tp983
F1.9275899999999999
s(I5
S'P'
tp984
F8.5511999999999997
s(I54
S'Q'
tp985
F-2.2865000000000002
s(I17
S'E'
tp986
F7.9700499999999996
s(I22
S'W'
tp987
F2.2412200000000002
s(I27
S'S'
tp988
F4.5079700000000003
s(I70
S'K'
tp989
F5.8829399999999996
s(I39
S'S'
tp990
F-1.4264399999999999
s(I36
S'C'
tp991
F4.60025
s(I74
S'H'
tp992
F-1.8705099999999999
s(I51
S'H'
tp993
F-2.0968800000000001
s(I33
S'W'
tp994
F0.49570399999999998
s(I49
S'H'
tp995
F-2.5695800000000002
s(I35
S'W'
tp996
F-0.035619199999999997
s(I43
S'I'
tp997
F2.9546399999999999
s(I34
S'T'
tp998
F-2.6574200000000001
s(I58
S'W'
tp999
F-1.2916399999999999
s(I65
S'P'
tp1000
F4.1585700000000001
s(I68
S'C'
tp1001
F2.5539000000000001
s(I23
S'F'
tp1002
F5.4527400000000004
s(I53
S'Y'
tp1003
F-1.1132200000000001
s(I46
S'P'
tp1004
F23.151700000000002
s(I65
S'W'
tp1005
F0.37022500000000003
s(I61
S'R'
tp1006
F14.177099999999999
s(I1
S'Q'
tp1007
F1.7375700000000001
s(I44
S'M'
tp1008
F0.76649199999999995
s(I8
S'K'
tp1009
F1.0385200000000001
s(I2
S'V'
tp1010
F-0.113515
s(I41
S'E'
tp1011
F5.8052200000000003
s(I76
S'D'
tp1012
F0.53503400000000001
s(I34
S'R'
tp1013
F2.5691099999999998
s(I43
S'D'
tp1014
F13.6051
s(I12
S'F'
tp1015
F-1.1492500000000001
s(I40
S'K'
tp1016
F-1.2262500000000001
s(I33
S'D'
tp1017
F2.57192
s(I37
S'A'
tp1018
F1.35575
s(I42
S'A'
tp1019
F-1.11351
s(I27
S'W'
tp1020
F-0.37685400000000002
s(I13
S'V'
tp1021
F1.42208
s(I55
S'Q'
tp1022
F0.62308300000000005
s(I52
S'W'
tp1023
F-0.56070799999999998
s(I36
S'D'
tp1024
F4.2202099999999998
s(I67
S'K'
tp1025
F13.8514
s(I36
S'M'
tp1026
F2.43527
s(I2
S'S'
tp1027
F-0.14505299999999999
s(I29
S'S'
tp1028
F4.2420099999999996
s(I46
S'E'
tp1029
F7.0228799999999998
s(I30
S'H'
tp1030
F4.2818699999999996
s(I28
S'H'
tp1031
F-1.8368899999999999
s(I12
S'Y'
tp1032
F1.9566699999999999
s(I9
S'F'
tp1033
F-1.4907600000000001
s(I15
S'W'
tp1034
F8.5005799999999994
s(I59
S'K'
tp1035
F9.3571600000000004
s(I70
S'C'
tp1036
F3.34945
s(I13
S'R'
tp1037
F6.2098599999999999
s(I13
S'K'
tp1038
F4.3755699999999997
s(I36
S'K'
tp1039
F3.7239800000000001
s(I51
S'P'
tp1040
F4.5822599999999998
s(I71
S'Y'
tp1041
F2.9699300000000002
s(I38
S'A'
tp1042
F3.3374899999999998
s(I63
S'P'
tp1043
F-3.28695
s(I43
S'A'
tp1044
F5.0180600000000002
s(I23
S'L'
tp1045
F2.1140400000000001
s(I68
S'K'
tp1046
F4.7355600000000004
s(I47
S'C'
tp1047
F24.493600000000001
s(I65
S'V'
tp1048
F-0.86227600000000004
s(I39
S'L'
tp1049
F-3.5454300000000001
s(I8
S'H'
tp1050
F0.043154999999999999
s(I21
S'H'
tp1051
F0.87769399999999997
s(I22
S'H'
tp1052
F0.21515200000000001
s(I44
S'E'
tp1053
F5.96408
s(I46
S'I'
tp1054
F7.5594599999999996
s(I41
S'M'
tp1055
F-0.24901499999999999
s(I50
S'N'
tp1056
F4.4741600000000004
s(I72
S'S'
tp1057
F-3.3825699999999999
s(I15
S'S'
tp1058
F6.0277700000000003
s(I11
S'S'
tp1059
F-1.6113299999999999
s(I62
S'S'
tp1060
F-3.0216400000000001
s(I39
S'N'
tp1061
F0.77965399999999996
s(I13
S'Y'
tp1062
F0.19144
s(I18
S'Y'
tp1063
F-0.10272100000000001
s(I36
S'L'
tp1064
F3.4832399999999999
s(I29
S'N'
tp1065
F2.6041500000000002
s(I60
S'K'
tp1066
F4.4883699999999997
s(I68
S'E'
tp1067
F7.80185
s(I39
S'A'
tp1068
F-1.5000599999999999
s(I44
S'A'
tp1069
F2.5984799999999999
s(I54
S'M'
tp1070
F-3.3287
s(I7
S'F'
tp1071
F0.22876099999999999
s(I44
S'V'
tp1072
F-1.9298900000000001
s(I3
S'P'
tp1073
F13.3604
s(I74
S'G'
tp1074
F-2.2195399999999998
s(I9
S'N'
tp1075
F1.2524900000000001
s(I62
S'W'
tp1076
F-3.4865300000000001
s(I2
S'L'
tp1077
F0.23443800000000001
s(I47
S'I'
tp1078
F53.570799999999998
s(I15
S'N'
tp1079
F4.5351299999999997
s(I39
S'C'
tp1080
F-1.2433099999999999
s(I15
S'T'
tp1081
F6.3532400000000004
s(I31
S'E'
tp1082
F1.5612999999999999
s(I67
S'T'
tp1083
F5.8086000000000002
s(I52
S'H'
tp1084
F1.03972
s(I3
S'R'
tp1085
F15.146699999999999
s(I50
S'H'
tp1086
F3.6637499999999998
s(I27
S'H'
tp1087
F2.13889
s(I60
S'G'
tp1088
F-0.87777000000000005
s(I23
S'D'
tp1089
F10.1187
s(I60
S'Q'
tp1090
F5.3849299999999998
s(I74
S'S'
tp1091
F0.076252100000000003
s(I21
S'P'
tp1092
F9.1210599999999999
s(I44
S'R'
tp1093
F3.7769900000000001
s(I3
S'T'
tp1094
F4.0660499999999997
s(I19
S'A'
tp1095
F0.24038100000000001
s(I24
S'A'
tp1096
F-1.2563500000000001
s(I13
S'F'
tp1097
F-2.1760700000000002
s(I20
S'E'
tp1098
F1.58249
s(I2
S'G'
tp1099
F0.37442500000000001
s(I32
S'Y'
tp1100
F0.74217699999999998
s(I27
S'L'
tp1101
F-0.72441800000000001
s(I68
S'M'
tp1102
F1.93408
s(I14
S'C'
tp1103
F0.91929000000000005
s(I3
S'W'
tp1104
F17.7502
s(I7
S'M'
tp1105
F-1.20289
s(I51
S'C'
tp1106
F0.0090582800000000002
s(I35
S'R'
tp1107
F3.4497100000000001
s(I25
S'C'
tp1108
F1.0680499999999999
s(I12
S'I'
tp1109
F-2.8690000000000002
s(I44
S'N'
tp1110
F1.7272000000000001
s(I75
S'K'
tp1111
F0.38226700000000002
s(I24
S'L'
tp1112
F-4.7904999999999998
s(I2
S'D'
tp1113
F0.92952199999999996
s(I26
S'G'
tp1114
F5.0928100000000001
s(I25
S'V'
tp1115
F1.3935599999999999
s(I3
S'Y'
tp1116
F11.2737
s(I40
S'L'
tp1117
F-1.32579
s(I20
S'A'
tp1118
F-1.09178
s(I31
S'M'
tp1119
F-0.80241600000000002
s(I25
S'A'
tp1120
F-0.447293
s(I14
S'V'
tp1121
F-0.15273300000000001
s(I19
S'G'
tp1122
F3.4140000000000001
s(I16
S'V'
tp1123
F0.95840999999999998
s(I36
S'V'
tp1124
F0.31508999999999998
s(I26
S'E'
tp1125
F6.2106199999999996
s(I47
S'S'
tp1126
F14.602600000000001
s(I54
S'K'
tp1127
F-3.2215500000000001
s(I21
S'S'
tp1128
F-2.3326899999999999
s(I33
S'Y'
tp1129
F-1.5442199999999999
s(I46
S'Y'
tp1130
F5.4863099999999996
s(I55
S'S'
tp1131
F-0.28691800000000001
s(I72
S'C'
tp1132
F-3.3355299999999999
s(I7
S'P'
tp1133
F8.3298900000000007
s(I26
S'C'
tp1134
F3.7544499999999998
s(I50
S'E'
tp1135
F6.5071700000000003
s(I48
S'T'
tp1136
F-3.21265
s(I18
S'H'
tp1137
F-0.0158914
s(I4
S'Y'
tp1138
F3.27746
s(I19
S'K'
tp1139
F2.6601400000000002
s(I8
S'Q'
tp1140
F1.6956100000000001
s(I17
S'R'
tp1141
F7.9370700000000003
s(I21
S'A'
tp1142
F-0.012721100000000001
s(I26
S'A'
tp1143
F2.75305
s(I19
S'L'
tp1144
F2.6266400000000001
s(I61
S'M'
tp1145
F6.9043299999999999
s(I51
S'K'
tp1146
F0.46774300000000002
s(I6
S'R'
tp1147
F-1.0011000000000001
s(I58
S'T'
tp1148
F-0.99134299999999997
s(I5
S'K'
tp1149
F11.658300000000001
s(I44
S'F'
tp1150
F5.2507400000000004
s(I22
S'S'
tp1151
F1.8734
s(I19
S'M'
tp1152
F-0.88438099999999997
s(I70
S'W'
tp1153
F1.8195600000000001
s(I40
S'P'
tp1154
F2.4277899999999999
s(I17
S'P'
tp1155
F8.4172399999999996
s(I64
S'A'
tp1156
F-0.93037999999999998
s(I47
S'Y'
tp1157
F79.097700000000003
s(I52
S'Y'
tp1158
F0.40529999999999999
s(I13
S'E'
tp1159
F8.3312000000000008
s(I72
S'T'
tp1160
F-2.0265300000000002
s(I54
S'D'
tp1161
F0.18085200000000001
s(I66
S'K'
tp1162
F1.9286099999999999
s(I33
S'S'
tp1163
F-1.39961
s(I49
S'T'
tp1164
F0.48647200000000002
s(I32
S'H'
tp1165
F-1.68225
s(I58
S'R'
tp1166
F3.9114900000000001
s(I32
S'C'
tp1167
F3.0916600000000001
s(I40
S'E'
tp1168
F2.6575299999999999
s(I42
S'N'
tp1169
F-1.4279900000000001
s(I16
S'W'
tp1170
F0.35003499999999999
s(I16
S'N'
tp1171
F-0.80334499999999998
s(I47
S'R'
tp1172
F80.9011
s(I10
S'W'
tp1173
F2.0992000000000002
s(I64
S'C'
tp1174
F-2.0847000000000002
s(I37
S'D'
tp1175
F3.0401899999999999
s(I18
S'C'
tp1176
F-1.66801
s(I60
S'V'
tp1177
F3.0230800000000002
s(I31
S'N'
tp1178
F0.61668500000000004
s(I20
S'K'
tp1179
F0.100146
s(I5
S'N'
tp1180
F6.8499400000000001
s(I58
S'P'
tp1181
F15.176500000000001
s(I22
S'A'
tp1182
F1.88615
s(I3
S'D'
tp1183
F10.6722
s(I27
S'A'
tp1184
F1.2047699999999999
s(I45
S'C'
tp1185
F6.4107799999999999
s(I19
S'Q'
tp1186
F1.2283900000000001
s(I52
S'K'
tp1187
F2.20411
s(I69
S'W'
tp1188
F2.6360100000000002
s(I67
S'V'
tp1189
F1.62632
s(I25
S'M'
tp1190
F0.64325299999999996
s(I68
S'Q'
tp1191
F3.4910299999999999
s(I2
S'W'
tp1192
F-1.59222
s(I7
S'Q'
tp1193
F3.0266199999999999
s(I65
S'A'
tp1194
F-1.9416899999999999
s(I75
S'M'
tp1195
F2.2007500000000002
s(I40
S'V'
tp1196
F-1.59118
s(I64
S'G'
tp1197
F-2.8683800000000002
s(I3
S'G'
tp1198
F7.4909299999999996
s(I28
S'L'
tp1199
F-2.0664500000000001
s(I61
S'E'
tp1200
F12.1877
s(I60
S'R'
tp1201
F6.5974399999999997
s(I20
S'L'
tp1202
F0.00208573
s(I10
S'R'
tp1203
F1.30461
s(I45
S'Q'
tp1204
F6.2724200000000003
s(I49
S'Y'
tp1205
F1.02658
s(I27
S'E'
tp1206
F6.8423499999999997
s(I42
S'H'
tp1207
F-2.3232499999999998
s(I17
S'H'
tp1208
F2.8023699999999998
s(I2
S'T'
tp1209
F2.5565199999999999
s(I23
S'A'
tp1210
F1.6873800000000001
s(I66
S'C'
tp1211
F-1.6651100000000001
s(I38
S'M'
tp1212
F3.3226
s(I20
S'Q'
tp1213
F-1.6593
s(I14
S'P'
tp1214
F0.46479700000000002
s(I56
S'F'
tp1215
F4.8006399999999996
s(I29
S'R'
tp1216
F1.51461
s(I16
S'T'
tp1217
F-0.43855100000000002
s(I19
S'W'
tp1218
F-0.25653199999999998
s(I16
S'F'
tp1219
F0.48234900000000003
s(I75
S'P'
tp1220
F-0.83139099999999999
s(I2
S'R'
tp1221
F3.2285400000000002
s(I45
S'L'
tp1222
F11.9033
s(I69
S'Q'
tp1223
F5.9176700000000002
s(I61
S'A'
tp1224
F5.3215199999999996
s(I66
S'A'
tp1225
F3.22628
s(I11
S'L'
tp1226
F0.12517400000000001
s(I56
S'H'
tp1227
F6.3190900000000001
s(I26
S'T'
tp1228
F2.1250100000000001
s(I3
S'L'
tp1229
F4.4430100000000001
s(I24
S'Y'
tp1230
F-5.3686400000000001
s(I26
S'R'
tp1231
F12.8592
s(I32
S'V'
tp1232
F-0.15610199999999999
s(I3
S'N'
tp1233
F6.2320000000000002
s(I75
S'E'
tp1234
F0.97883500000000001
s(I4
S'I'
tp1235
F0.95018000000000002
s(I25
S'D'
tp1236
F-1.5415099999999999
s(I8
S'A'
tp1237
F1.89242
s(I7
S'S'
tp1238
F2.4930300000000001
s(I11
S'R'
tp1239
F1.62218
s(I28
S'D'
tp1240
F-0.20938000000000001
s(I63
S'M'
tp1241
F1.34419
s(I49
S'F'
tp1242
F0.79449999999999998
s(I26
S'P'
tp1243
F22.2529
s(I52
S'M'
tp1244
F0.453378
s(I38
S'F'
tp1245
F4.7614299999999998
s(I62
S'A'
tp1246
F2.7719999999999998
s(I70
S'G'
tp1247
F7.5649100000000002
s(I67
S'A'
tp1248
F7.5678000000000001
s(I31
S'P'
tp1249
F19.375599999999999
s(I64
S'Q'
tp1250
F-2.1964600000000001
s(I54
S'F'
tp1251
F-2.7044299999999999
s(I57
S'N'
tp1252
F2.1722000000000001
s(I72
S'D'
tp1253
F0.43121399999999999
s(I12
S'W'
tp1254
F-0.85950099999999996
s(I54
S'T'
tp1255
F1.02935
s(I38
S'E'
tp1256
F5.9757999999999996
s(I56
S'N'
tp1257
F5.7872599999999998
s(I33
S'R'
tp1258
F2.7468599999999999
s(I46
S'N'
tp1259
F3.0191599999999998
s(I16
S'L'
tp1260
F-2.65368
s(I14
S'I'
tp1261
F-1.78312
s(I16
S'G'
tp1262
F-0.015059599999999999
s(I75
S'H'
tp1263
F-1.71075
s(I64
S'S'
tp1264
F-1.78261
s(I22
S'R'
tp1265
F0.48703999999999997
s(I40
S'S'
tp1266
F-0.51493699999999998
s(I71
S'W'
tp1267
F4.6041800000000004
s(I30
S'S'
tp1268
F5.7733100000000004
s(I71
S'N'
tp1269
F4.8845700000000001
s(I15
S'M'
tp1270
F4.0085100000000002
s(I9
S'A'
tp1271
F0.58902299999999996
s(I48
S'Y'
tp1272
F-0.17047499999999999
s(I10
S'F'
tp1273
F1.79799
s(I72
S'W'
tp1274
F-0.36145100000000002
s(I33
S'P'
tp1275
F9.6185200000000002
s(I27
S'Q'
tp1276
F0.52740699999999996
s(I74
S'F'
tp1277
F-3.3194900000000001
s(I67
S'S'
tp1278
F6.4833400000000001
s(I41
S'S'
tp1279
F4.2805900000000001
s(I62
S'E'
tp1280
F3.7162799999999998
s(I69
S'G'
tp1281
F7.3013500000000002
s(I51
S'F'
tp1282
F-0.27040700000000001
s(I38
S'K'
tp1283
F2.8088500000000001
s(I50
S'Q'
tp1284
F6.0830200000000003
s(I63
S'A'
tp1285
F-3.46489
s(I68
S'A'
tp1286
F2.1586599999999998
s(I32
S'W'
tp1287
F-2.2716500000000002
s(I49
S'K'
tp1288
F-0.13850899999999999
s(I65
S'Q'
tp1289
F1.20526
s(I61
S'T'
tp1290
F2.1970299999999998
s(I68
S'V'
tp1291
F-3.0576300000000001
s(I21
S'Y'
tp1292
F-0.019792199999999999
s(I64
S'W'
tp1293
F-2.81359
s(I43
S'P'
tp1294
F4.2923400000000003
s(I15
S'I'
tp1295
F-0.35999399999999998
s(I63
S'C'
tp1296
F-3.2041200000000001
s(I37
S'C'
tp1297
F1.9841200000000001
s(I1
S'C'
tp1298
F1.7192499999999999
s(I38
S'H'
tp1299
F5.3571600000000004
s(I62
S'I'
tp1300
F-2.9548800000000002
s(I10
S'A'
tp1301
F3.12846
s(I40
S'Y'
tp1302
F0.57086300000000001
s(I66
S'S'
tp1303
F1.14262
s(I35
S'K'
tp1304
F1.58694
s(I42
S'S'
tp1305
F-0.59524900000000003
s(I56
S'V'
tp1306
F8.4243000000000006
s(I61
S'P'
tp1307
F27.213799999999999
s(I16
S'D'
tp1308
F0.39337800000000001
s(I45
S'N'
tp1309
F8.3870299999999993
s(I22
S'D'
tp1310
F3.4986000000000002
s(I48
S'A'
tp1311
F-0.82342000000000004
s(I73
S'P'
tp1312
F0.42961700000000003
s(I69
S'A'
tp1313
F5.5884400000000003
s(I50
S'K'
tp1314
F11.3415
s(I66
S'Q'
tp1315
F4.3716799999999996
s(I9
S'I'
tp1316
F1.22017
s(I10
S'N'
tp1317
F-1.6071
s(I15
S'D'
tp1318
F8.8765800000000006
s(I62
S'M'
tp1319
F0.71437499999999998
s(I74
S'D'
tp1320
F0.242171
s(I38
S'C'
tp1321
F3.20716
s(I63
S'I'
tp1322
F-0.0350841
s(I57
S'E'
tp1323
F0.135268
s(I39
S'Y'
tp1324
F1.8339799999999999
s(I49
S'C'
tp1325
F0.48020699999999999
s(I1
S'R'
tp1326
F7.3357299999999999
s(I66
S'H'
tp1327
F-1.1402000000000001
s(I35
S'V'
tp1328
F6.7557499999999999
s(I43
S'H'
tp1329
F6.8672300000000002
s(I28
S'T'
tp1330
F-0.180011
s(I9
S'M'
tp1331
F1.2626200000000001
s(I24
S'P'
tp1332
F1.7604200000000001
s(I49
S'A'
tp1333
F0.953677
s(I36
S'P'
tp1334
F9.7507999999999999
s(I1
S'P'
tp1335
F5.2318499999999997
s(I13
S'P'
tp1336
F5.2716700000000003
s(I71
S'D'
tp1337
F8.6728100000000001
s(I66
S'F'
tp1338
F-1.4617100000000001
s(I48
S'G'
tp1339
F2.1335000000000002
s(I54
S'V'
tp1340
F-0.083567900000000001
s(I12
S'L'
tp1341
F1.7565599999999999
s(I12
S'G'
tp1342
F1.2728699999999999
s(I7
S'K'
tp1343
F4.9494400000000001
s(I57
S'I'
tp1344
F0.89333200000000001
s(I55
S'F'
tp1345
F1.3805700000000001
s(I36
S'E'
tp1346
F7.0415799999999997
s(I60
S'H'
tp1347
F1.4167000000000001
s(I71
S'F'
tp1348
F4.2276800000000003
s(I73
S'S'
tp1349
F2.00291
s(I12
S'N'
tp1350
F1.9555199999999999
s(I73
S'N'
tp1351
F3.8157000000000001
s(I22
S'M'
tp1352
F-0.29802899999999999
s(I30
S'C'
tp1353
F4.8570000000000002
s(I37
S'Y'
tp1354
F3.8860000000000001
s(I72
S'G'
tp1355
F-0.155864
s(I11
S'G'
tp1356
F0.30885499999999999
s(I36
S'G'
tp1357
F6.7074400000000001
s(I41
S'C'
tp1358
F2.9825400000000002
s(I32
S'L'
tp1359
F-3.35432
s(I74
S'L'
tp1360
F-1.10148
s(I28
S'I'
tp1361
F-4.00326
s(I29
S'L'
tp1362
F2.1969699999999999
s(I50
S'A'
tp1363
F3.8715600000000001
s(I65
S'M'
tp1364
F-3.14276
s(I18
S'D'
tp1365
F-1.4141600000000001
s(I37
S'V'
tp1366
F1.4184000000000001
s(I60
S'D'
tp1367
F2.7553100000000001
s(I68
S'F'
tp1368
F-3.2301500000000001
s(I73
S'W'
tp1369
F1.0962499999999999
s(I58
S'I'
tp1370
F1.19929
s(I6
S'V'
tp1371
F-2.6053000000000002
s(I41
S'P'
tp1372
F9.8863400000000006
s(I42
S'E'
tp1373
F-2.0937000000000001
s(I40
S'T'
tp1374
F-2.16317
s(I1
S'S'
tp1375
F3.1837300000000002
s(I17
S'T'
tp1376
F1.82541
s(I13
S'S'
tp1377
F6.20261
s(I75
S'C'
tp1378
F2.4803799999999998
s(I66
S'G'
tp1379
F6.3477699999999997
s(I67
S'H'
tp1380
F5.6892800000000001
s(I65
S'H'
tp1381
F-5.0929099999999998
s(I42
S'C'
tp1382
F-1.16353
s(I39
S'T'
tp1383
F-0.29173199999999999
s(I29
S'I'
tp1384
F0.55348799999999998
s(I59
S'P'
tp1385
F14.786
s(I51
S'A'
tp1386
F-1.3876500000000001
s(I5
S'E'
tp1387
F10.515499999999999
s(I41
S'T'
tp1388
F4.6264099999999999
s(I30
S'K'
tp1389
F9.7278900000000004
s(I47
S'E'
tp1390
F58.633200000000002
s(I45
S'P'
tp1391
F21.160699999999999
s(I41
S'K'
tp1392
F8.3687000000000005
s(I63
S'T'
tp1393
F-1.1680699999999999
s(I29
S'D'
tp1394
F2.9118400000000002
s(I23
S'S'
tp1395
F6.2605599999999999
s(I53
S'W'
tp1396
F1.34274
s(I27
S'N'
tp1397
F3.2866399999999998
s(I8
S'R'
tp1398
F4.4008500000000002
s(I39
S'I'
tp1399
F-1.15029
s(I17
S'N'
tp1400
F4.2259799999999998
s(I59
S'T'
tp1401
F8.8249300000000002
s(I75
S'D'
tp1402
F0.74627299999999996
s(I35
S'F'
tp1403
F3.6932800000000001
s(I22
S'K'
tp1404
F-0.14971999999999999
s(I6
S'N'
tp1405
F0.67361800000000005
s(I30
S'Y'
tp1406
F2.4782299999999999
s(I1
S'L'
tp1407
F3.4901800000000001
s(I47
S'A'
tp1408
F12.265499999999999
s(I42
S'M'
tp1409
F-1.4667399999999999
s(I52
S'A'
tp1410
F0.30792000000000003
s(I53
S'D'
tp1411
F-0.12181
s(I17
S'L'
tp1412
F5.3202400000000001
s(I66
S'V'
tp1413
F-2.1222300000000001
s(I65
S'K'
tp1414
F-0.90366199999999997
s(I72
S'Q'
tp1415
F-0.83823700000000001
s(I60
S'Y'
tp1416
F0.602742
s(I11
S'Q'
tp1417
F-2.1934900000000002
s(I42
S'K'
tp1418
F3.2126199999999998
s(I57
S'Y'
tp1419
F1.2253799999999999
s(I55
S'V'
tp1420
F1.8118099999999999
s(I37
S'H'
tp1421
F2.65265
s(I13
S'N'
tp1422
F3.56881
s(I70
S'S'
tp1423
F6.30375
s(I31
S'Y'
tp1424
F-2.93147
s(I38
S'W'
tp1425
F3.5535800000000002
s(I35
S'Q'
tp1426
F1.1887700000000001
s(I28
S'Y'
tp1427
F-0.418792
s(I32
S'A'
tp1428
F-0.016897499999999999
s(I34
S'K'
tp1429
F6.7819599999999998
s(I49
S'W'
tp1430
F-2.5343900000000001
s(I21
S'F'
tp1431
F-0.58484400000000003
s(I8
S'E'
tp1432
F2.2365400000000002
s(I17
S'F'
tp1433
F1.2809600000000001
s(I61
S'K'
tp1434
F17.0367
s(I46
S'M'
tp1435
F-0.13531399999999999
s(I6
S'P'
tp1436
F7.7309099999999997
s(I18
S'V'
tp1437
F-1.1769099999999999
s(I58
S'Y'
tp1438
F-3.0482800000000001
s(I6
S'F'
tp1439
F-1.7854300000000001
s(I37
S'G'
tp1440
F2.7625700000000002
s(I34
S'I'
tp1441
F-4.3118600000000002
s(I38
S'T'
tp1442
F2.3663099999999999
s(I59
S'C'
tp1443
F4.7914000000000003
s(I67
S'E'
tp1444
F10.227399999999999
s(I53
S'L'
tp1445
F-2.9561600000000001
s.