(dp1
(I17
S'D'
tp2
F7.25481
s(I13
S'C'
tp3
F3.6500900000000001
s(I43
S'W'
tp4
F9.9556900000000006
s(I72
S'H'
tp5
F-0.72387400000000002
s(I66
S'W'
tp6
F-3.24763
s(I71
S'Q'
tp7
F3.3344499999999999
s(I68
S'W'
tp8
F-2.234
s(I20
S'R'
tp9
F0.20356099999999999
s(I32
S'E'
tp10
F-0.32001000000000002
s(I75
S'Y'
tp11
F0.69035199999999997
s(I33
S'V'
tp12
F-0.39887400000000001
s(I11
S'I'
tp13
F-0.37592599999999998
s(I4
S'N'
tp14
F2.9245399999999999
s(I47
S'K'
tp15
F15.533099999999999
s(I29
S'Y'
tp16
F-3.3598300000000001
s(I33
S'A'
tp17
F0.41258499999999998
s(I61
S'G'
tp18
F12.023999999999999
s(I22
S'V'
tp19
F2.5979899999999998
s(I46
S'Q'
tp20
F-1.80796
s(I71
S'S'
tp21
F4.7844699999999998
s(I4
S'W'
tp22
F1.12104
s(I49
S'L'
tp23
F-1.4589700000000001
s(I41
S'D'
tp24
F7.7229599999999996
s(I11
S'D'
tp25
F1.3260000000000001
s(I18
S'Q'
tp26
F-1.1661300000000001
s(I23
S'G'
tp27
F5.74587
s(I58
S'N'
tp28
F-0.193555
s(I29
S'T'
tp29
F1.4966699999999999
s(I60
S'C'
tp30
F1.2206300000000001
s(I34
S'C'
tp31
F0.74673
s(I47
S'N'
tp32
F12.334199999999999
s(I10
S'P'
tp33
F181.85300000000001
s(I19
S'D'
tp34
F1.63147
s(I54
S'E'
tp35
F0.98617699999999997
s(I66
S'L'
tp36
F-3.2540900000000001
s(I61
S'C'
tp37
F6.4161700000000002
s(I20
S'G'
tp38
F-0.10337
s(I58
S'L'
tp39
F-1.0900799999999999
s(I5
S'H'
tp40
F4.6659699999999997
s(I6
S'H'
tp41
F-3.3993199999999999
s(I34
S'A'
tp42
F-1.74227
s(I49
S'M'
tp43
F-0.66614099999999998
s(I24
S'W'
tp44
F-4.6520400000000004
s(I47
S'Q'
tp45
F15.655200000000001
s(I15
S'V'
tp46
F0.380768
s(I52
S'F'
tp47
F6.72898
s(I52
S'P'
tp48
F-1.6112500000000001
s(I48
S'P'
tp49
F3.08318
s(I29
S'P'
tp50
F14.686400000000001
s(I72
S'A'
tp51
F-1.5787100000000001
s(I1
S'E'
tp52
F3.8763399999999999
s(I69
S'V'
tp53
F4.6614899999999997
s(I75
S'R'
tp54
F2.3521700000000001
s(I19
S'H'
tp55
F0.39780799999999999
s(I51
S'Y'
tp56
F-2.0551900000000001
s(I22
S'I'
tp57
F4.0922799999999997
s(I48
S'R'
tp58
F1.2186300000000001
s(I76
S'T'
tp59
F1.2291099999999999
s(I41
S'L'
tp60
F4.9877099999999999
s(I15
S'R'
tp61
F10.5762
s(I28
S'M'
tp62
F-0.89528700000000005
s(I20
S'M'
tp63
F-0.18296200000000001
s(I31
S'I'
tp64
F5.1702500000000002
s(I14
S'D'
tp65
F2.9176700000000002
s(I35
S'A'
tp66
F9.4369499999999995
s(I53
S'C'
tp67
F0.192526
s(I27
S'D'
tp68
F8.5456099999999999
s(I16
S'S'
tp69
F0.200735
s(I14
S'K'
tp70
F1.72055
s(I69
S'R'
tp71
F11.3162
s(I75
S'V'
tp72
F2.2050100000000001
s(I66
S'D'
tp73
F4.0540799999999999
s(I73
S'V'
tp74
F1.42757
s(I25
S'K'
tp75
F-0.19688600000000001
s(I11
S'F'
tp76
F1.07666
s(I73
S'A'
tp77
F2.5774699999999999
s(I4
S'P'
tp78
F8.2420799999999996
s(I48
S'V'
tp79
F-1.8515299999999999
s(I45
S'G'
tp80
F9.0314499999999995
s(I76
S'P'
tp81
F0.49865999999999999
s(I39
S'W'
tp82
F0.91040200000000004
s(I49
S'E'
tp83
F1.66143
s(I69
S'P'
tp84
F15.1335
s(I19
S'N'
tp85
F2.9688699999999999
s(I25
S'I'
tp86
F-1.0637700000000001
s(I43
S'G'
tp87
F7.2847099999999996
s(I73
S'K'
tp88
F3.24777
s(I68
S'G'
tp89
F4.3795599999999997
s(I48
S'H'
tp90
F0.16451299999999999
s(I7
S'G'
tp91
F1.2228000000000001
s(I26
S'M'
tp92
F2.2530000000000001
s(I54
S'C'
tp93
F-1.12991
s(I22
S'P'
tp94
F0.00032118099999999997
s(I76
S'M'
tp95
F-1.6670199999999999
s(I34
S'V'
tp96
F-2.2622599999999999
s(I73
S'E'
tp97
F3.6587000000000001
s(I40
S'G'
tp98
F3.4556900000000002
s(I4
S'G'
tp99
F5.7669699999999997
s(I24
S'F'
tp100
F-4.0247599999999997
s(I72
S'K'
tp101
F1.2326299999999999
s(I67
S'G'
tp102
F7.7099700000000002
s(I26
S'K'
tp103
F11.975
s(I74
S'A'
tp104
F-2.1963900000000001
s(I59
S'W'
tp105
F-0.76123399999999997
s(I28
S'E'
tp106
F0.57339899999999999
s(I41
S'V'
tp107
F0.20780699999999999
s(I10
S'T'
tp108
F6.9205300000000003
s(I53
S'K'
tp109
F-0.066616800000000004
s(I70
S'R'
tp110
F11.9854
s(I8
S'Y'
tp111
F0.77103299999999997
s(I16
S'K'
tp112
F-0.57637700000000003
s(I30
S'V'
tp113
F1.95648
s(I37
S'R'
tp114
F3.0204499999999999
s(I26
S'I'
tp115
F1.32907
s(I5
S'W'
tp116
F11.8729
s(I75
S'N'
tp117
F-0.042535900000000001
s(I43
S'R'
tp118
F16.154599999999999
s(I19
S'T'
tp119
F0.90422400000000003
s(I20
S'W'
tp120
F-1.52138
s(I75
S'L'
tp121
F-0.69963299999999995
s(I73
S'I'
tp122
F1.7436100000000001
s(I59
S'G'
tp123
F5.5649600000000001
s(I48
S'N'
tp124
F0.046177200000000002
s(I76
S'H'
tp125
F-1.88767
s(I67
S'Y'
tp126
F5.7270300000000001
s(I69
S'S'
tp127
F6.59802
s(I57
S'F'
tp128
F0.79241200000000001
s(I34
S'P'
tp129
F21.1922
s(I40
S'M'
tp130
F-0.234518
s(I46
S'F'
tp131
F-1.3744099999999999
s(I75
S'A'
tp132
F-0.96515200000000001
s(I62
S'P'
tp133
F-3.0969899999999999
s(I27
S'P'
tp134
F22.008500000000002
s(I39
S'P'
tp135
F2.1155599999999999
s(I62
S'F'
tp136
F-1.0675300000000001
s(I21
S'L'
tp137
F-0.94002699999999995
s(I14
S'W'
tp138
F1.61639
s(I69
S'F'
tp139
F9.3410799999999998
s(I37
S'L'
tp140
F0.94105700000000003
s(I76
S'E'
tp141
F0.240175
s(I50
S'R'
tp142
F14.125999999999999
s(I25
S'W'
tp143
F-3.18546
s(I73
S'M'
tp144
F1.0995900000000001
s(I39
S'R'
tp145
F0.83856200000000003
s(I52
S'S'
tp146
F-0.17657100000000001
s(I31
S'T'
tp147
F1.42862
s(I48
S'S'
tp148
F0.62002400000000002
s(I74
S'I'
tp149
F-2.84063
s(I50
S'Y'
tp150
F7.6411899999999999
s(I9
S'D'
tp151
F3.28891
s(I75
S'S'
tp152
F0.61276799999999998
s(I61
S'N'
tp153
F8.1277500000000007
s(I7
S'I'
tp154
F-1.53982
s(I8
S'V'
tp155
F-1.5395300000000001
s(I27
S'T'
tp156
F5.5242399999999998
s(I16
S'H'
tp157
F0.32831399999999999
s(I16
S'C'
tp158
F-0.58028800000000003
s(I59
S'F'
tp159
F0.80136799999999997
s(I64
S'F'
tp160
F-2.4588299999999998
s(I76
S'A'
tp161
F-0.80942800000000004
s(I63
S'R'
tp162
F0.51833300000000004
s(I45
S'I'
tp163
F6.0762200000000002
s(I76
S'V'
tp164
F-1.02664
s(I74
S'P'
tp165
F11.5932
s(I55
S'P'
tp166
F2.1938399999999998
s(I39
S'G'
tp167
F-0.430616
s(I34
S'L'
tp168
F-4.8522600000000002
s(I28
S'F'
tp169
F-1.16595
s(I51
S'T'
tp170
F1.2373099999999999
s(I66
S'R'
tp171
F-0.46047900000000003
s(I9
S'C'
tp172
F1.1093
s(I9
S'H'
tp173
F1.85026
s(I23
S'H'
tp174
F3.27963
s(I2
S'N'
tp175
F0.26196700000000001
s(I55
S'R'
tp176
F0.695577
s(I18
S'W'
tp177
F0.66915899999999995
s(I62
S'N'
tp178
F0.77133600000000002
s(I33
S'M'
tp179
F0.416518
s(I45
S'D'
tp180
F8.3915799999999994
s(I5
S'R'
tp181
F17.716999999999999
s(I76
S'S'
tp182
F-0.37022500000000003
s(I54
S'S'
tp183
F0.870977
s(I50
S'S'
tp184
F6.8403700000000001
s(I63
S'G'
tp185
F1.4760800000000001
s(I55
S'I'
tp186
F1.7324900000000001
s(I56
S'G'
tp187
F8.5266999999999999
s(I56
S'A'
tp188
F4.6365299999999996
s(I10
S'E'
tp189
F3.61517
s(I57
S'R'
tp190
F1.2579499999999999
s(I76
S'Y'
tp191
F-2.9916399999999999
s(I9
S'G'
tp192
F1.0395300000000001
s(I41
S'F'
tp193
F9.46096
s(I9
S'L'
tp194
F0.75243099999999996
s(I61
S'F'
tp195
F7.3587600000000002
s(I46
S'R'
tp196
F-0.72696099999999997
s(I36
S'Q'
tp197
F3.3726500000000001
s(I25
S'L'
tp198
F-0.55846700000000005
s(I30
S'P'
tp199
F20.9316
s(I8
S'I'
tp200
F-2.8027000000000002
s(I56
S'C'
tp201
F6.0446200000000001
s(I45
S'R'
tp202
F6.6568399999999999
s(I46
S'C'
tp203
F0.18715300000000001
s(I30
S'F'
tp204
F4.1533100000000003
s(I10
S'C'
tp205
F5.8324800000000003
s(I69
S'E'
tp206
F6.7499099999999999
s(I5
S'G'
tp207
F8.1560500000000005
s(I2
S'I'
tp208
F0.214309
s(I12
S'M'
tp209
F-0.216645
s(I6
S'T'
tp210
F-1.16432
s(I18
S'R'
tp211
F-0.00205682
s(I22
S'G'
tp212
F2.3494199999999998
s(I57
S'C'
tp213
F0.054956499999999998
s(I76
S'N'
tp214
F0.210677
s(I24
S'S'
tp215
F-3.2762199999999999
s(I36
S'S'
tp216
F5.1317000000000004
s(I40
S'H'
tp217
F0.48031600000000002
s(I53
S'H'
tp218
F0.20735400000000001
s(I54
S'H'
tp219
F-1.70221
s(I33
S'G'
tp220
F1.3597699999999999
s(I34
S'D'
tp221
F2.0104299999999999
s(I69
S'C'
tp222
F4.4870000000000001
s(I57
S'V'
tp223
F0.50667300000000004
s(I72
S'L'
tp224
F-1.7629600000000001
s(I71
S'M'
tp225
F3.0046900000000001
s(I32
S'P'
tp226
F12.5245
s(I57
S'A'
tp227
F-0.52259
s(I46
S'V'
tp228
F1.58813
s(I29
S'G'
tp229
F1.0025500000000001
s(I14
S'Q'
tp230
F0.46611799999999998
s(I30
S'T'
tp231
F5.6168800000000001
s(I21
S'W'
tp232
F-3.5960200000000002
s(I59
S'R'
tp233
F7.3685200000000002
s(I58
S'E'
tp234
F1.12781
s(I9
S'R'
tp235
F2.0388000000000002
s(I63
S'F'
tp236
F1.8505
s(I37
S'Q'
tp237
F0.980182
s(I24
S'E'
tp238
F-2.3633299999999999
s(I52
S'G'
tp239
F0.87120299999999995
s(I47
S'H'
tp240
F10.2308
s(I36
S'T'
tp241
F2.8187000000000002
s(I13
S'T'
tp242
F3.39181
s(I56
S'I'
tp243
F5.5371499999999996
s(I18
S'M'
tp244
F-1.4126799999999999
s(I31
S'D'
tp245
F3.0672899999999998
s(I10
S'M'
tp246
F4.4482499999999998
s(I58
S'C'
tp247
F0.72743599999999997
s(I50
S'I'
tp248
F8.8753899999999994
s(I60
S'M'
tp249
F1.9337500000000001
s(I67
S'N'
tp250
F8.8026999999999997
s(I32
S'T'
tp251
F-0.52578899999999995
s(I63
S'L'
tp252
F3.9664100000000002
s(I8
S'F'
tp253
F-2.3701400000000001
s(I36
S'Y'
tp254
F-0.67628699999999997
s(I41
S'Y'
tp255
F15.2463
s(I56
S'K'
tp256
F11.351100000000001
s(I40
S'N'
tp257
F2.7522199999999999
s(I10
S'K'
tp258
F3.55904
s(I58
S'A'
tp259
F-0.30552000000000001
s(I69
S'M'
tp260
F4.6364200000000002
s(I9
S'V'
tp261
F1.8466
s(I15
S'G'
tp262
F7.6368799999999997
s(I6
S'L'
tp263
F1.1377999999999999
s(I15
S'Q'
tp264
F3.7546300000000001
s(I37
S'K'
tp265
F3.0070700000000001
s(I53
S'P'
tp266
F0.72319999999999995
s(I38
S'Q'
tp267
F5.8008300000000004
s(I53
S'T'
tp268
F-0.173708
s(I69
S'K'
tp269
F9.5243300000000009
s(I10
S'Y'
tp270
F3.2518500000000001
s(I28
S'V'
tp271
F-1.01711
s(I72
S'E'
tp272
F-4.8742700000000001
s(I74
S'N'
tp273
F-0.85108099999999998
s(I44
S'T'
tp274
F6.12819
s(I15
S'C'
tp275
F4.7652400000000004
s(I50
S'C'
tp276
F6.4170499999999997
s(I63
S'N'
tp277
F1.3657300000000001
s(I42
S'Y'
tp278
F2.0842900000000002
s(I24
S'M'
tp279
F-2.6959
s(I55
S'Y'
tp280
F0.36515300000000001
s(I32
S'K'
tp281
F-1.4909699999999999
s(I59
S'A'
tp282
F3.5430999999999999
s(I56
S'Q'
tp283
F5.6311999999999998
s(I31
S'L'
tp284
F-0.90886299999999998
s(I67
S'R'
tp285
F11.3249
s(I35
S'E'
tp286
F3.3726799999999999
s(I57
S'M'
tp287
F-0.064348199999999994
s(I40
S'R'
tp288
F0.694712
s(I34
S'W'
tp289
F-1.29992
s(I68
S'T'
tp290
F2.42848
s(I7
S'V'
tp291
F-1.19845
s(I21
S'R'
tp292
F0.26563100000000001
s(I56
S'S'
tp293
F7.9675399999999996
s(I72
S'V'
tp294
F-1.0955699999999999
s(I28
S'K'
tp295
F-1.5873699999999999
s(I46
S'S'
tp296
F0.66032900000000005
s(I44
S'P'
tp297
F19.561
s(I2
S'Y'
tp298
F-2.09423
s(I6
S'D'
tp299
F2.4331299999999998
s(I59
S'E'
tp300
F5.9113800000000003
s(I15
S'H'
tp301
F4.8049999999999997
s(I13
S'H'
tp302
F0.70365200000000006
s(I38
S'I'
tp303
F5.2173100000000003
s(I62
S'V'
tp304
F-0.247251
s(I12
S'D'
tp305
F2.5322399999999998
s(I60
S'A'
tp306
F2.92144
s(I7
S'C'
tp307
F-0.13725499999999999
s(I57
S'Q'
tp308
F-0.64946400000000004
s(I23
S'P'
tp309
F9.5782900000000009
s(I25
S'H'
tp310
F-0.095940600000000001
s(I29
S'W'
tp311
F-1.0407900000000001
s(I31
S'W'
tp312
F-1.0129300000000001
s(I30
S'D'
tp313
F10.2057
s(I35
S'P'
tp314
F103.80200000000001
s(I44
S'L'
tp315
F0.41798999999999997
s(I56
S'D'
tp316
F9.4471699999999998
s(I22
S'E'
tp317
F3.2963900000000002
s(I13
S'D'
tp318
F7.4911300000000001
s(I56
S'Y'
tp319
F5.0798699999999997
s(I20
S'N'
tp320
F-1.06698
s(I32
S'I'
tp321
F-1.9736899999999999
s(I58
S'S'
tp322
F-1.2612399999999999
s(I65
S'E'
tp323
F0.33247599999999999
s(I1
S'N'
tp324
F2.45669
s(I57
S'D'
tp325
F1.1830000000000001
s(I41
S'I'
tp326
F-2.43289
s(I28
S'C'
tp327
F-2.1878700000000002
s(I51
S'W'
tp328
F-1.4728300000000001
s(I64
S'H'
tp329
F-1.7865200000000001
s(I58
S'Q'
tp330
F0.63914499999999996
s(I44
S'H'
tp331
F2.6718999999999999
s(I25
S'F'
tp332
F-0.39901900000000001
s(I2
S'P'
tp333
F0.091820499999999999
s(I14
S'F'
tp334
F2.5461999999999998
s(I50
S'G'
tp335
F7.57843
s(I52
S'R'
tp336
F-0.39686500000000002
s(I42
S'V'
tp337
F-2.53633
s(I21
S'C'
tp338
F-0.72948900000000005
s(I33
S'I'
tp339
F-1.1403399999999999
s(I31
S'V'
tp340
F1.05155
s(I57
S'H'
tp341
F0.89669500000000002
s(I30
S'L'
tp342
F0.49227900000000002
s(I5
S'M'
tp343
F3.5225300000000002
s(I64
S'L'
tp344
F-3.2974399999999999
s(I44
S'D'
tp345
F9.3891799999999996
s(I56
S'P'
tp346
F10.205
s(I55
S'M'
tp347
F-0.41985600000000001
s(I47
S'M'
tp348
F13.1816
s(I42
S'I'
tp349
F-2.3048700000000002
s(I58
S'F'
tp350
F-0.51745200000000002
s(I43
S'S'
tp351
F7.1071900000000001
s(I64
S'N'
tp352
F-1.4595499999999999
s(I7
S'E'
tp353
F0.49771700000000002
s(I27
S'F'
tp354
F-1.67639
s(I47
S'F'
tp355
F9.7400000000000002
s(I70
S'N'
tp356
F5.2756400000000001
s(I44
S'W'
tp357
F2.62873
s(I68
S'D'
tp358
F6.1183199999999998
s(I31
S'R'
tp359
F0.56087100000000001
s(I2
S'M'
tp360
F-0.24549299999999999
s(I72
S'F'
tp361
F-0.85255999999999998
s(I35
S'N'
tp362
F1.4870000000000001
s(I22
S'C'
tp363
F1.35975
s(I42
S'P'
tp364
F12.344900000000001
s(I1
S'D'
tp365
F6.3213999999999997
s(I52
S'I'
tp366
F1.9790099999999999
s(I3
S'Q'
tp367
F4.7002899999999999
s(I33
S'C'
tp368
F-0.53506900000000002
s(I65
S'C'
tp369
F-0.65062399999999998
s(I56
S'R'
tp370
F10.922800000000001
s(I72
S'Y'
tp371
F-1.41421
s(I23
S'V'
tp372
F1.1321300000000001
s(I44
S'S'
tp373
F7.1007600000000002
s(I3
S'S'
tp374
F8.0942399999999992
s(I21
S'K'
tp375
F0.295601
s(I37
S'T'
tp376
F2.78775
s(I18
S'S'
tp377
F-0.62014000000000002
s(I60
S'F'
tp378
F1.5023500000000001
s(I31
S'G'
tp379
F1.7475799999999999
s(I60
S'P'
tp380
F9.4275699999999993
s(I45
S'S'
tp381
F6.3133999999999997
s(I56
S'T'
tp382
F5.8786100000000001
s(I55
S'E'
tp383
F3.11632
s(I33
S'T'
tp384
F-0.249723
s(I25
S'R'
tp385
F-0.65943200000000002
s(I35
S'Y'
tp386
F1.20373
s(I43
S'K'
tp387
F10.6797
s(I29
S'F'
tp388
F-2.5661200000000002
s(I14
S'R'
tp389
F1.8028200000000001
s(I3
S'V'
tp390
F2.1681599999999999
s(I4
S'Q'
tp391
F2.1937600000000002
s(I70
S'P'
tp392
F1.6233500000000001
s(I16
S'M'
tp393
F0.35433500000000001
s(I47
S'W'
tp394
F10.1287
s(I70
S'F'
tp395
F2.19754
s(I8
S'M'
tp396
F-3.1185100000000001
s(I7
S'L'
tp397
F-2.2287599999999999
s(I68
S'L'
tp398
F0.51999099999999998
s(I37
S'N'
tp399
F1.90469
s(I57
S'T'
tp400
F-0.71362099999999995
s(I2
S'E'
tp401
F0.68129399999999996
s(I18
S'N'
tp402
F-1.48705
s(I4
S'S'
tp403
F4.5801800000000004
s(I72
S'I'
tp404
F0.14738699999999999
s(I1
S'G'
tp405
F2.3733200000000001
s(I6
S'Y'
tp406
F0.117761
s(I67
S'M'
tp407
F2.81494
s(I19
S'F'
tp408
F-1.4879800000000001
s(I12
S'P'
tp409
F-0.32510600000000001
s(I26
S'F'
tp410
F6.66275
s(I12
S'K'
tp411
F0.462619
s(I71
S'I'
tp412
F0.76138700000000004
s(I42
S'F'
tp413
F1.71919
s(I9
S'K'
tp414
F1.1085100000000001
s(I27
S'R'
tp415
F7.4193199999999999
s(I44
S'K'
tp416
F9.5499899999999993
s(I31
S'F'
tp417
F-1.62453
s(I5
S'Q'
tp418
F7.6367000000000003
s(I12
S'R'
tp419
F1.07856
s(I26
S'D'
tp420
F8.9043500000000009
s(I71
S'K'
tp421
F4.0924800000000001
s(I4
S'T'
tp422
F3.7441499999999999
s(I24
S'I'
tp423
F-0.73437300000000005
s(I11
S'C'
tp424
F-0.84859899999999999
s(I62
S'C'
tp425
F0.97909800000000002
s(I69
S'T'
tp426
F6.7381700000000002
s(I18
S'I'
tp427
F0.771621
s(I51
S'R'
tp428
F-0.25998599999999999
s(I58
S'V'
tp429
F0.49314000000000002
s(I43
S'C'
tp430
F5.63483
s(I32
S'F'
tp431
F-0.86697299999999999
s(I61
S'L'
tp432
F4.7911999999999999
s(I27
S'V'
tp433
F4.3375599999999999
s(I70
S'H'
tp434
F3.9761299999999999
s(I47
S'V'
tp435
F23.999600000000001
s(I36
S'R'
tp436
F4.8395200000000003
s(I44
S'G'
tp437
F9.4505599999999994
s(I5
S'T'
tp438
F4.4968199999999996
s(I49
S'V'
tp439
F-1.5479000000000001
s(I28
S'P'
tp440
F9.4039599999999997
s(I38
S'V'
tp441
F5.4716399999999998
s(I67
S'Q'
tp442
F4.1908099999999999
s(I24
S'T'
tp443
F-0.13886699999999999
s(I6
S'Q'
tp444
F0.39882299999999998
s(I62
S'G'
tp445
F1.18028
s(I1
S'T'
tp446
F2.5289600000000001
s(I74
S'E'
tp447
F-1.7059200000000001
s(I3
S'A'
tp448
F6.3847399999999999
s(I52
S'N'
tp449
F-0.81386599999999998
s(I28
S'R'
tp450
F-0.86217500000000002
s(I67
S'D'
tp451
F11.2234
s(I63
S'H'
tp452
F0.13112099999999999
s(I61
S'H'
tp453
F6.9552399999999999
s(I60
S'W'
tp454
F1.7298100000000001
s(I23
S'T'
tp455
F2.25617
s(I74
S'C'
tp456
F-1.7901
s(I44
S'C'
tp457
F6.0877600000000003
s(I3
S'C'
tp458
F5.4336799999999998
s(I9
S'E'
tp459
F1.07707
s(I66
S'I'
tp460
F-1.3760600000000001
s(I19
S'P'
tp461
F-1.06419
s(I9
S'Q'
tp462
F-0.239424
s(I10
S'V'
tp463
F7.3331999999999997
s(I64
S'P'
tp464
F28.523299999999999
s(I37
S'E'
tp465
F1.4153199999999999
s(I24
S'Q'
tp466
F-3.32667
s(I62
S'K'
tp467
F-0.89360399999999995
s(I3
S'E'
tp468
F7.3691899999999997
s(I24
S'H'
tp469
F-2.9632999999999998
s(I19
S'R'
tp470
F2.10426
s(I63
S'Q'
tp471
F-0.040542300000000003
s(I14
S'L'
tp472
F-0.124429
s(I35
S'I'
tp473
F5.3045200000000001
s(I32
S'G'
tp474
F-0.22095899999999999
s(I29
S'V'
tp475
F0.73687400000000003
s(I3
S'F'
tp476
F-0.69137499999999996
s(I48
S'L'
tp477
F-1.0337700000000001
s(I61
S'D'
tp478
F8.8179999999999996
s(I4
S'A'
tp479
F3.0909599999999999
s(I39
S'M'
tp480
F-0.36583599999999999
s(I59
S'N'
tp481
F4.2336
s(I14
S'S'
tp482
F1.2260899999999999
s(I68
S'P'
tp483
F3.95913
s(I21
S'I'
tp484
F-2.1828099999999999
s(I7
S'R'
tp485
F1.54017
s(I73
S'R'
tp486
F4.2969999999999997
s(I28
S'G'
tp487
F0.40873900000000002
s(I49
S'N'
tp488
F1.4389000000000001
s(I51
S'S'
tp489
F-0.158607
s(I63
S'S'
tp490
F-1.5377799999999999
s(I25
S'S'
tp491
F-0.51122999999999996
s(I37
S'S'
tp492
F2.7383700000000002
s(I3
S'H'
tp493
F3.5517099999999999
s(I4
S'C'
tp494
F3.4305099999999999
s(I38
S'N'
tp495
F4.8985300000000001
s(I62
S'Y'
tp496
F-0.90272300000000005
s(I1
S'W'
tp497
F-0.19738600000000001
s(I6
S'I'
tp498
F-0.57886499999999996
s(I10
S'Q'
tp499
F3.44964
s(I26
S'W'
tp500
F5.8819299999999997
s(I74
S'M'
tp501
F-1.88605
s(I19
S'V'
tp502
F0.77060399999999996
s(I50
S'T'
tp503
F4.4994199999999998
s(I25
S'Q'
tp504
F-0.14300499999999999
s(I65
S'L'
tp505
F-2.18384
s(I32
S'R'
tp506
F-0.146755
s(I36
S'F'
tp507
F-0.236346
s(I48
S'Q'
tp508
F-2.1983899999999998
s(I74
S'K'
tp509
F-0.28647299999999998
s(I3
S'K'
tp510
F10.007199999999999
s(I74
S'W'
tp511
F-2.6241099999999999
s(I35
S'T'
tp512
F4.4188700000000001
s(I20
S'H'
tp513
F-0.60852600000000001
s(I5
S'A'
tp514
F5.1767899999999996
s(I9
S'Y'
tp515
F-0.91032000000000002
s(I45
S'M'
tp516
F4.0313800000000004
s(I4
S'D'
tp517
F6.1910999999999996
s(I74
S'T'
tp518
F-0.77645900000000001
s(I32
S'M'
tp519
F-0.62956100000000004
s(I26
S'S'
tp520
F3.7862499999999999
s(I38
S'S'
tp521
F4.22499
s(I3
S'M'
tp522
F3.6340599999999998
s(I69
S'D'
tp523
F7.8342599999999996
s(I63
S'Y'
tp524
F-0.51019099999999995
s(I68
S'Y'
tp525
F-2.8013599999999999
s(I49
S'S'
tp526
F0.066791400000000001
s(I48
S'D'
tp527
F2.1033900000000001
s(I14
S'E'
tp528
F2.48637
s(I54
S'I'
tp529
F2.8994800000000001
s(I21
S'Q'
tp530
F-2.4177300000000002
s(I26
S'Q'
tp531
F2.0458599999999998
s(I5
S'D'
tp532
F11.4232
s(I47
S'D'
tp533
F10.442500000000001
s(I4
S'K'
tp534
F2.9151899999999999
s(I71
S'T'
tp535
F4.3454600000000001
s(I6
S'A'
tp536
F0.91710899999999995
s(I48
S'W'
tp537
F-1.23048
s(I23
S'Y'
tp538
F4.8932500000000001
s(I52
S'L'
tp539
F1.7825500000000001
s(I49
S'D'
tp540
F4.0441500000000001
s(I13
S'G'
tp541
F3.9817
s(I32
S'S'
tp542
F-0.91992300000000005
s(I75
S'W'
tp543
F1.4674400000000001
s(I1
S'I'
tp544
F-1.77223
s(I8
S'S'
tp545
F-2.5667900000000001
s(I71
S'V'
tp546
F1.55857
s(I39
S'H'
tp547
F-0.49065999999999999
s(I23
S'R'
tp548
F17.224699999999999
s(I36
S'N'
tp549
F3.7289500000000002
s(I48
S'I'
tp550
F-3.9091800000000001
s(I69
S'Y'
tp551
F14.8657
s(I51
S'M'
tp552
F-0.11579299999999999
s(I61
S'Y'
tp553
F8.0636399999999995
s(I66
S'Y'
tp554
F-0.72075599999999995
s(I22
S'Q'
tp555
F0.16722500000000001
s(I11
S'W'
tp556
F0.106695
s(I4
S'L'
tp557
F1.5741799999999999
s(I36
S'W'
tp558
F0.52955300000000005
s(I11
S'V'
tp559
F-1.1295500000000001
s(I23
S'K'
tp560
F11.8672
s(I67
S'F'
tp561
F2.5281699999999998
s(I18
S'T'
tp562
F0.32939600000000002
s(I7
S'A'
tp563
F-1.82037
s(I55
S'K'
tp564
F1.2039800000000001
s(I40
S'F'
tp565
F2.0049999999999999
s(I28
S'W'
tp566
F-0.80125999999999997
s(I30
S'W'
tp567
F0.043158099999999998
s(I45
S'A'
tp568
F6.4201300000000003
s(I49
S'I'
tp569
F-1.98516
s(I41
S'W'
tp570
F15.736000000000001
s(I66
S'N'
tp571
F1.8072999999999999
s(I73
S'F'
tp572
F1.38951
s(I23
S'Q'
tp573
F3.8325300000000002
s(I50
S'D'
tp574
F8.7567299999999992
s(I65
S'N'
tp575
F0.63437600000000005
s(I55
S'N'
tp576
F1.58525
s(I8
S'P'
tp577
F0.66198599999999996
s(I33
S'E'
tp578
F1.41211
s(I46
S'G'
tp579
F-1.1559900000000001
s(I61
S'Q'
tp580
F6.9751000000000003
s(I35
S'D'
tp581
F4.7271299999999998
s(I57
S'G'
tp582
F0.78202899999999997
s(I59
S'I'
tp583
F7.9170999999999996
s(I53
S'F'
tp584
F0.427228
s(I23
S'C'
tp585
F4.2354000000000003
s(I51
S'N'
tp586
F-0.61738899999999997
s(I46
S'D'
tp587
F0.0077493600000000003
s(I68
S'I'
tp588
F-0.70122099999999998
s(I70
S'T'
tp589
F2.99057
s(I59
S'D'
tp590
F7.86815
s(I25
S'T'
tp591
F-2.57789
s(I7
S'H'
tp592
F-0.77492300000000003
s(I46
S'K'
tp593
F-1.4374899999999999
s(I54
S'Y'
tp594
F-1.8784000000000001
s(I12
S'E'
tp595
F0.748054
s(I57
S'K'
tp596
F0.081972900000000001
s(I47
S'T'
tp597
F10.7615
s(I23
S'M'
tp598
F1.8946700000000001
s(I59
S'Q'
tp599
F4.4892500000000002
s(I60
S'I'
tp600
F3.2805900000000001
s(I71
S'E'
tp601
F5.39337
s(I4
S'V'
tp602
F0.411825
s(I46
S'H'
tp603
F-2.1284700000000001
s(I10
S'H'
tp604
F4.2741100000000003
s(I1
S'Y'
tp605
F0.43238900000000002
s(I8
S'C'
tp606
F0.68066199999999999
s(I14
S'Y'
tp607
F5.1557599999999999
s(I66
S'M'
tp608
F-0.33196999999999999
s(I58
S'M'
tp609
F0.20830099999999999
s(I69
S'I'
tp610
F7.9001700000000001
s(I40
S'C'
tp611
F1.36267
s(I33
S'L'
tp612
F-0.79172799999999999
s(I71
S'G'
tp613
F4.2791800000000002
s(I47
S'P'
tp614
F109.15900000000001
s(I67
S'C'
tp615
F6.41038
s(I53
S'N'
tp616
F-0.335254
s(I20
S'F'
tp617
F-0.51936199999999999
s(I58
S'K'
tp618
F1.3517999999999999
s(I51
S'V'
tp619
F1.01711
s(I60
S'E'
tp620
F2.0719699999999999
s(I4
S'R'
tp621
F4.1554000000000002
s(I29
S'M'
tp622
F-1.1111899999999999
s(I70
S'L'
tp623
F6.0802199999999997
s(I8
S'N'
tp624
F-0.67918100000000003
s(I30
S'Q'
tp625
F6.2722699999999998
s(I37
S'W'
tp626
F3.6095199999999998
s(I30
S'G'
tp627
F8.2327700000000004
s(I15
S'Y'
tp628
F-0.63450200000000001
s(I41
S'G'
tp629
F4.2773700000000003
s(I23
S'E'
tp630
F7.7598900000000004
s(I16
S'P'
tp631
F-1.24427
s(I31
S'H'
tp632
F-1.00956
s(I29
S'H'
tp633
F-0.59999499999999995
s(I40
S'I'
tp634
F-1.5301800000000001
s(I55
S'C'
tp635
F1.11409
s(I33
S'F'
tp636
F0.58156200000000002
s(I11
S'Y'
tp637
F-0.038937600000000003
s(I16
S'Y'
tp638
F-0.213945
s(I72
S'M'
tp639
F-2.49078
s(I22
S'F'
tp640
F-1.06613
s(I54
S'G'
tp641
F-0.35576099999999999
s(I66
S'E'
tp642
F1.3481000000000001
s(I46
S'W'
tp643
F-1.7512300000000001
s(I50
S'V'
tp644
F10.408799999999999
s(I15
S'K'
tp645
F10.732900000000001
s(I70
S'Y'
tp646
F5.5753300000000001
s(I57
S'W'
tp647
F0.76114899999999996
s(I39
S'V'
tp648
F-0.831843
s(I53
S'V'
tp649
F-0.196187
s(I28
S'A'
tp650
F-2.3137599999999998
s(I43
S'M'
tp651
F2.9440200000000001
s(I35
S'M'
tp652
F3.3492999999999999
s(I46
S'T'
tp653
F1.6379300000000001
s(I29
S'E'
tp654
F1.5436300000000001
s(I70
S'D'
tp655
F8.6014400000000002
s(I7
S'N'
tp656
F-2.2829799999999998
s(I31
S'S'
tp657
F1.4677500000000001
s(I68
S'N'
tp658
F3.12765
s(I5
S'S'
tp659
F6.3082599999999998
s(I17
S'Y'
tp660
F5.6496599999999999
s(I73
S'T'
tp661
F1.4701500000000001
s(I73
S'D'
tp662
F1.4977400000000001
s(I24
S'G'
tp663
F-1.5516399999999999
s(I15
S'F'
tp664
F-0.57974800000000004
s(I39
S'K'
tp665
F-0.69718000000000002
s(I6
S'M'
tp666
F-0.12069100000000001
s(I15
S'P'
tp667
F5.92408
s(I11
S'P'
tp668
F7.34537
s(I54
S'P'
tp669
F1.1186
s(I50
S'P'
tp670
F12.797800000000001
s(I53
S'E'
tp671
F-0.068426699999999993
s(I16
S'Q'
tp672
F-1.5875600000000001
s(I29
S'A'
tp673
F0.48957600000000001
s(I34
S'N'
tp674
F-0.059083700000000003
s(I51
S'I'
tp675
F-0.56332199999999999
s(I50
S'W'
tp676
F9.9966200000000001
s(I73
S'C'
tp677
F1.5298499999999999
s(I73
S'H'
tp678
F1.37584
s(I42
S'T'
tp679
F-2.7663099999999998
s(I70
S'Q'
tp680
F7.9367299999999998
s(I37
S'I'
tp681
F2.0063300000000002
s(I24
S'C'
tp682
F-2.3906800000000001
s(I24
S'R'
tp683
F-1.7767999999999999
s(I6
S'S'
tp684
F0.739371
s(I17
S'S'
tp685
F0.66557900000000003
s(I20
S'V'
tp686
F-0.32257000000000002
s(I43
S'E'
tp687
F9.3003900000000002
s(I1
S'F'
tp688
F0.65684699999999996
s(I59
S'M'
tp689
F5.7533899999999996
s(I37
S'F'
tp690
F3.7429100000000002
s(I60
S'T'
tp691
F3.12921
s(I57
S'L'
tp692
F-0.89054999999999995
s(I73
S'Q'
tp693
F1.2186699999999999
s(I12
S'Q'
tp694
F-1.3796999999999999
s(I17
S'Q'
tp695
F5.8851100000000001
s(I73
S'G'
tp696
F1.8322700000000001
s(I66
S'P'
tp697
F-0.087630700000000006
s(I45
S'W'
tp698
F-0.83619600000000005
s(I30
S'A'
tp699
F5.6577599999999997
s(I71
S'P'
tp700
F1.38957
s(I40
S'D'
tp701
F2.7443900000000001
s(I6
S'E'
tp702
F1.55741
s(I36
S'H'
tp703
F2.7332999999999998
s(I34
S'H'
tp704
F1.08124
s(I11
S'H'
tp705
F-1.2619499999999999
s(I12
S'S'
tp706
F0.41834900000000003
s(I14
S'N'
tp707
F-0.125387
s(I7
S'W'
tp708
F-1.70774
s(I8
S'W'
tp709
F3.0009000000000001
s(I16
S'I'
tp710
F-1.2757099999999999
s(I71
S'R'
tp711
F2.5095399999999999
s(I34
S'F'
tp712
F-0.71373799999999998
s(I57
S'P'
tp713
F7.3537100000000004
s(I54
S'W'
tp714
F-1.63018
s(I51
S'Q'
tp715
F-0.33447900000000003
s(I40
S'W'
tp716
F-1.7222
s(I50
S'F'
tp717
F3.1291500000000001
s(I64
S'D'
tp718
F0.370334
s(I30
S'E'
tp719
F9.5086999999999993
s(I70
S'I'
tp720
F0.032971399999999998
s(I67
S'W'
tp721
F3.81494
s(I74
S'Q'
tp722
F-3.6206499999999999
s(I39
S'F'
tp723
F0.188501
s(I13
S'Q'
tp724
F1.6125100000000001
s(I56
S'E'
tp725
F9.6024700000000003
s(I31
S'A'
tp726
F-0.48602299999999998
s(I50
S'M'
tp727
F3.91696
s(I32
S'N'
tp728
F-1.31619
s(I28
S'Q'
tp729
F-0.658744
s(I17
S'K'
tp730
F7.7224700000000004
s(I63
S'D'
tp731
F3.3456100000000002
s(I18
S'P'
tp732
F-0.64206200000000002
s(I19
S'C'
tp733
F1.3751899999999999
s(I62
S'R'
tp734
F1.67164
s(I55
S'G'
tp735
F2.9080599999999999
s(I21
S'N'
tp736
F0.54628399999999999
s(I68
S'R'
tp737
F4.9229599999999998
s(I59
S'L'
tp738
F5.2466299999999997
s(I31
S'C'
tp739
F1.32603
s(I11
S'N'
tp740
F-2.0409000000000002
s(I73
S'Y'
tp741
F4.1417000000000002
s(I5
S'C'
tp742
F5.0106000000000002
s(I72
S'N'
tp743
F-1.81277
s(I17
S'I'
tp744
F2.5718999999999999
s(I19
S'E'
tp745
F1.6078600000000001
s(I41
S'H'
tp746
F8.0019600000000004
s(I55
S'H'
tp747
F1.6087
s(I38
S'L'
tp748
F6.7966699999999998
s(I64
S'I'
tp749
F1.0828
s(I52
S'Q'
tp750
F-0.098666000000000004
s(I13
S'M'
tp751
F0.29546299999999998
s(I54
S'L'
tp752
F-1.1956
s(I65
S'R'
tp753
F0.14457200000000001
s(I9
S'P'
tp754
F1.51288
s(I75
S'Q'
tp755
F1.8129599999999999
s(I8
S'T'
tp756
F-0.33893200000000001
s(I14
S'G'
tp757
F1.83334
s(I11
S'A'
tp758
F-0.72912900000000003
s(I74
S'V'
tp759
F-1.9273
s(I16
S'A'
tp760
F-0.31292900000000001
s(I64
S'K'
tp761
F-0.77682600000000002
s(I29
S'Q'
tp762
F-0.337312
s(I18
S'K'
tp763
F-0.60214800000000002
s(I20
S'C'
tp764
F0.104397
s(I5
S'F'
tp765
F3.5022899999999999
s(I25
S'G'
tp766
F0.7369
s(I58
S'H'
tp767
F-1.3063199999999999
s(I35
S'H'
tp768
F3.1524999999999999
s(I33
S'H'
tp769
F-2.0893700000000002
s(I27
S'I'
tp770
F9.4631500000000006
s(I45
S'K'
tp771
F5.3238099999999999
s(I19
S'I'
tp772
F1.0641499999999999
s(I30
S'M'
tp773
F5.0047800000000002
s(I42
S'D'
tp774
F-2.9622299999999999
s(I52
S'C'
tp775
F0.71498499999999998
s(I70
S'A'
tp776
F-0.85140899999999997
s(I64
S'M'
tp777
F-0.72540899999999997
s(I74
S'Y'
tp778
F-2.8921800000000002
s(I6
S'C'
tp779
F0.097878900000000005
s(I56
S'M'
tp780
F2.9998399999999998
s(I25
S'E'
tp781
F1.5221899999999999
s(I38
S'G'
tp782
F4.6865100000000002
s(I7
S'Y'
tp783
F-1.8860699999999999
s(I17
S'C'
tp784
F1.6083799999999999
s(I65
S'I'
tp785
F0.62236499999999995
s(I32
S'Q'
tp786
F-1.4895400000000001
s(I49
S'G'
tp787
F4.0004
s(I1
S'V'
tp788
F-0.344497
s(I21
S'V'
tp789
F0.76241700000000001
s(I7
S'D'
tp790
F-0.327706
s(I76
S'Q'
tp791
F-1.0949199999999999
s(I20
S'D'
tp792
F0.0115823
s(I31
S'K'
tp793
F0.85657799999999995
s(I45
S'Y'
tp794
F0.15289900000000001
s(I12
S'A'
tp795
F0.0369033
s(I17
S'A'
tp796
F1.3002400000000001
s(I27
S'M'
tp797
F0.95120199999999999
s(I18
S'F'
tp798
F-0.33013100000000001
s(I34
S'Y'
tp799
F-2.0017
s(I38
S'D'
tp800
F8.7584900000000001
s(I59
S'S'
tp801
F5.3221499999999997
s(I51
S'D'
tp802
F1.0994699999999999
s(I35
S'S'
tp803
F3.81657
s(I20
S'I'
tp804
F-0.50592400000000004
s(I9
S'S'
tp805
F-0.49036299999999999
s(I14
S'H'
tp806
F1.6650400000000001
s(I41
S'R'
tp807
F18.895099999999999
s(I12
S'H'
tp808
F0.036156199999999999
s(I26
S'N'
tp809
F5.77088
s(I12
S'C'
tp810
F-0.19544300000000001
s(I71
S'A'
tp811
F2.6810200000000002
s(I75
S'I'
tp812
F2.45546
s(I64
S'R'
tp813
F0.21049899999999999
s(I4
S'E'
tp814
F4.3907800000000003
s(I30
S'R'
tp815
F10.6158
s(I8
S'G'
tp816
F0.49973499999999998
s(I45
S'T'
tp817
F5.8365099999999996
s(I33
S'Q'
tp818
F-0.90559900000000004
s(I5
S'Y'
tp819
F2.34192
s(I61
S'W'
tp820
F9.8339999999999996
s(I63
S'W'
tp821
F0.36352299999999999
s(I26
S'L'
tp822
F1.11947
s(I71
S'C'
tp823
F3.9268100000000001
s(I64
S'T'
tp824
F2.8943099999999999
s(I76
S'L'
tp825
F-2.2187999999999999
s(I42
S'L'
tp826
F-2.7438899999999999
s(I13
S'A'
tp827
F3.1338599999999999
s(I18
S'A'
tp828
F-1.2120500000000001
s(I23
S'W'
tp829
F7.8897300000000001
s(I9
S'W'
tp830
F1.1153900000000001
s(I10
S'I'
tp831
F5.2218299999999997
s(I64
S'V'
tp832
F1.64154
s(I60
S'S'
tp833
F1.6943999999999999
s(I34
S'S'
tp834
F1.19103
s(I55
S'W'
tp835
F1.57504
s(I10
S'S'
tp836
F9.8704099999999997
s(I56
S'W'
tp837
F5.1716499999999996
s(I76
S'I'
tp838
F-1.8398300000000001
s(I61
S'S'
tp839
F7.7544500000000003
s(I26
S'H'
tp840
F10.9971
s(I53
S'M'
tp841
F0.62197400000000003
s(I1
S'H'
tp842
F2.0356999999999998
s(I52
S'E'
tp843
F1.3328899999999999
s(I13
S'L'
tp844
F0.45761299999999999
s(I34
S'Q'
tp845
F-1.93655
s(I64
S'Y'
tp846
F-2.5025200000000001
s(I54
S'N'
tp847
F-2.5642999999999998
s(I28
S'N'
tp848
F-0.89739199999999997
s(I51
S'L'
tp849
F-0.87888200000000005
s(I52
S'V'
tp850
F0.83754600000000001
s(I4
S'M'
tp851
F2.5677400000000001
s(I14
S'A'
tp852
F1.1247499999999999
s(I21
S'G'
tp853
F-0.914821
s(I8
S'D'
tp854
F2.8489100000000001
s(I43
S'V'
tp855
F2.9707400000000002
s(I63
S'V'
tp856
F2.3500000000000001
s(I15
S'E'
tp857
F7.6119700000000003
s(I22
S'Y'
tp858
F-2.03145
s(I27
S'Y'
tp859
F-2.8716900000000001
s(I37
S'M'
tp860
F2.2201499999999998
s(I24
S'N'
tp861
F-1.8277699999999999
s(I19
S'Y'
tp862
F-1.02197
s(I53
S'R'
tp863
F-0.75616799999999995
s(I65
S'Y'
tp864
F0.18984200000000001
s(I39
S'E'
tp865
F-1.32128
s(I75
S'T'
tp866
F1.81945
s(I45
S'H'
tp867
F2.2082199999999998
s(I76
S'W'
tp868
F-2.9859599999999999
s(I75
S'F'
tp869
F1.3426400000000001
s(I20
S'T'
tp870
F-0.74939500000000003
s(I53
S'S'
tp871
F-0.76683299999999999
s(I15
S'A'
tp872
F5.4400599999999999
s(I34
S'M'
tp873
F-2.8001200000000002
s(I1
S'K'
tp874
F2.1243300000000001
s(I24
S'K'
tp875
F-3.28376
s(I48
S'F'
tp876
F-1.2584599999999999
s(I11
S'T'
tp877
F0.224275
s(I67
S'P'
tp878
F7.0417100000000001
s(I16
S'R'
tp879
F-0.39482899999999999
s(I35
S'C'
tp880
F3.25929
s(I62
S'T'
tp881
F0.15499599999999999
s(I53
S'A'
tp882
F-1.29393
s(I20
S'Y'
tp883
F-1.3622399999999999
s(I25
S'Y'
tp884
F-2.64052
s(I65
S'D'
tp885
F1.9486300000000001
s(I59
S'H'
tp886
F-0.69309600000000005
s(I45
S'V'
tp887
F2.2408100000000002
s(I21
S'T'
tp888
F1.4533499999999999
s(I22
S'L'
tp889
F-0.051924199999999997
s(I69
S'N'
tp890
F5.4754399999999999
s(I43
S'N'
tp891
F6.03904
s(I20
S'P'
tp892
F5.7993199999999998
s(I5
S'I'
tp893
F1.98404
s(I45
S'E'
tp894
F8.1504499999999993
s(I76
S'R'
tp895
F1.1788799999999999
s(I24
S'V'
tp896
F0.35452699999999998
s(I6
S'W'
tp897
F-0.56356200000000001
s(I2
S'K'
tp898
F-0.179366
s(I17
S'W'
tp899
F8.5259999999999998
s(I42
S'W'
tp900
F0.76923799999999998
s(I10
S'D'
tp901
F3.7151299999999998
s(I34
S'G'
tp902
F3.2939799999999999
s(I14
S'M'
tp903
F1.48841
s(I54
S'A'
tp904
F-0.86701499999999998
s(I48
S'M'
tp905
F-0.892405
s(I26
S'Y'
tp906
F10.2302
s(I5
S'L'
tp907
F4.6287799999999999
s(I27
S'C'
tp908
F3.8842599999999998
s(I55
S'L'
tp909
F2.3998200000000001
s(I47
S'L'
tp910
F22.237400000000001
s(I4
S'H'
tp911
F1.2425900000000001
s(I2
S'H'
tp912
F-2.66655
s(I67
S'I'
tp913
F1.66567
s(I38
S'Y'
tp914
F5.0195100000000004
s(I43
S'Y'
tp915
F3.93405
s(I58
S'G'
tp916
F1.1769700000000001
s(I69
S'H'
tp917
F4.5603999999999996
s(I52
S'T'
tp918
F0.41201599999999999
s(I68
S'S'
tp919
F3.9614099999999999
s(I53
S'I'
tp920
F-0.30346200000000001
s(I65
S'G'
tp921
F0.94816199999999995
s(I1
S'A'
tp922
F2.08094
s(I11
S'M'
tp923
F-0.59121999999999997
s(I2
S'F'
tp924
F-2.1847300000000001
s(I25
S'P'
tp925
F18.728000000000002
s(I43
S'T'
tp926
F5.1305899999999998
s(I76
S'K'
tp927
F1.0442899999999999
s(I12
S'V'
tp928
F-0.45568700000000001
s(I43
S'F'
tp929
F1.9297500000000001
s(I42
S'Q'
tp930
F-5.5805999999999996
s(I27
S'G'
tp931
F4.8994200000000001
s(I55
S'A'
tp932
F1.7309399999999999
s(I70
S'M'
tp933
F6.5248999999999997
s(I48
S'C'
tp934
F-0.23222499999999999
s(I2
S'C'
tp935
F0.71364300000000003
s(I18
S'L'
tp936
F-0.82193499999999997
s(I41
S'N'
tp937
F3.9419599999999999
s(I10
S'L'
tp938
F3.7210999999999999
s(I44
S'Y'
tp939
F-0.20591699999999999
s(I21
S'E'
tp940
F0.100509
s(I29
S'C'
tp941
F-0.17771400000000001
s(I62
S'D'
tp942
F2.1855099999999998
s(I60
S'L'
tp943
F2.38565
s(I59
S'V'
tp944
F4.1767000000000003
s(I49
S'R'
tp945
F1.62483
s(I30
S'N'
tp946
F4.1827199999999998
s(I51
S'G'
tp947
F0.39935500000000002
s(I48
S'E'
tp948
F1.98207
s(I2
S'A'
tp949
F-0.24857599999999999
s(I17
S'M'
tp950
F6.0690400000000002
s(I71
S'H'
tp951
F2.16011
s(I38
S'R'
tp952
F4.0717299999999996
s(I55
S'D'
tp953
F4.0336100000000004
s(I76
S'F'
tp954
F-3.2476400000000001
s(I72
S'P'
tp955
F2.9354399999999998
s(I49
S'P'
tp956
F-2.7695400000000001
s(I43
S'Q'
tp957
F5.7730499999999996
s(I40
S'A'
tp958
F0.46236300000000002
s(I33
S'N'
tp959
F0.56185099999999999
s(I23
S'N'
tp960
F3.6550699999999998
s(I53
S'Q'
tp961
F-1.0109999999999999
s(I65
S'F'
tp962
F10.623900000000001
s(I65
S'T'
tp963
F-2.13219
s(I11
S'E'
tp964
F1.0172600000000001
s(I62
S'H'
tp965
F-1.1225400000000001
s(I22
S'N'
tp966
F1.12941
s(I18
S'G'
tp967
F-1.82247
s(I76
S'C'
tp968
F-0.62801200000000001
s(I35
S'L'
tp969
F5.0908499999999997
s(I13
S'W'
tp970
F-1.3827100000000001
s(I70
S'E'
tp971
F9.5109999999999992
s(I6
S'G'
tp972
F3.1417000000000002
s(I17
S'G'
tp973
F3.6919200000000001
s(I42
S'G'
tp974
F0.51567399999999997
s(I46
S'L'
tp975
F-1.44628
s(I63
S'E'
tp976
F1.1164099999999999
s(I61
S'V'
tp977
F2.0120800000000001
s(I39
S'Q'
tp978
F-0.83826299999999998
s(I44
S'Q'
tp979
F5.6842300000000003
s(I21
S'M'
tp980
F-2.99783
s(I62
S'L'
tp981
F0.27213100000000001
s(I36
S'A'
tp982
F4.8415499999999998
s(I41
S'A'
tp983
F1.61625
s(I5
S'P'
tp984
F3.3190599999999999
s(I54
S'Q'
tp985
F-1.99695
s(I17
S'E'
tp986
F7.4581799999999996
s(I22
S'W'
tp987
F1.26233
s(I27
S'S'
tp988
F4.80314
s(I70
S'K'
tp989
F10.117699999999999
s(I39
S'S'
tp990
F-1.12639
s(I36
S'C'
tp991
F3.7004100000000002
s(I74
S'H'
tp992
F-0.95328599999999997
s(I51
S'H'
tp993
F-2.1398700000000002
s(I33
S'W'
tp994
F-2.4269099999999999
s(I49
S'H'
tp995
F-0.97060199999999996
s(I35
S'W'
tp996
F2.0339
s(I43
S'I'
tp997
F0.82932300000000003
s(I34
S'T'
tp998
F0.418431
s(I58
S'W'
tp999
F0.87969799999999998
s(I65
S'P'
tp1000
F6.2132399999999999
s(I68
S'C'
tp1001
F2.93479
s(I23
S'F'
tp1002
F3.0341999999999998
s(I53
S'Y'
tp1003
F0.57869599999999999
s(I46
S'P'
tp1004
F16.702999999999999
s(I65
S'W'
tp1005
F-0.465895
s(I61
S'R'
tp1006
F12.661300000000001
s(I1
S'Q'
tp1007
F1.0078
s(I44
S'M'
tp1008
F2.7336900000000002
s(I8
S'K'
tp1009
F4.0925799999999999
s(I2
S'V'
tp1010
F0.50385000000000002
s(I41
S'E'
tp1011
F5.85032
s(I76
S'D'
tp1012
F2.4851399999999999
s(I34
S'R'
tp1013
F0.58686199999999999
s(I43
S'D'
tp1014
F10.2866
s(I12
S'F'
tp1015
F-1.69719
s(I40
S'K'
tp1016
F2.3263600000000002
s(I33
S'D'
tp1017
F2.6061299999999998
s(I37
S'A'
tp1018
F2.3888500000000001
s(I42
S'A'
tp1019
F-3.2340800000000001
s(I27
S'W'
tp1020
F2.7291799999999999
s(I13
S'V'
tp1021
F1.7622199999999999
s(I55
S'Q'
tp1022
F0.97568699999999997
s(I52
S'W'
tp1023
F7.8370600000000001
s(I36
S'D'
tp1024
F7.1746699999999999
s(I67
S'K'
tp1025
F9.4822500000000005
s(I36
S'M'
tp1026
F2.96008
s(I2
S'S'
tp1027
F1.1612100000000001
s(I29
S'S'
tp1028
F1.54444
s(I46
S'E'
tp1029
F-0.044322199999999999
s(I30
S'H'
tp1030
F5.23597
s(I28
S'H'
tp1031
F-1.4081300000000001
s(I12
S'Y'
tp1032
F-0.78170200000000001
s(I9
S'F'
tp1033
F0.212926
s(I15
S'W'
tp1034
F5.1692200000000001
s(I59
S'K'
tp1035
F6.8888499999999997
s(I70
S'C'
tp1036
F0.88061400000000001
s(I13
S'R'
tp1037
F1.6094200000000001
s(I13
S'K'
tp1038
F3.2568299999999999
s(I36
S'K'
tp1039
F5.2991599999999996
s(I51
S'P'
tp1040
F2.0957699999999999
s(I71
S'Y'
tp1041
F2.3145500000000001
s(I38
S'A'
tp1042
F4.0033500000000002
s(I63
S'P'
tp1043
F-2.57538
s(I43
S'A'
tp1044
F4.7097199999999999
s(I23
S'L'
tp1045
F7.2375999999999996
s(I68
S'K'
tp1046
F5.3960400000000002
s(I47
S'C'
tp1047
F9.3767399999999999
s(I65
S'V'
tp1048
F-3.3888500000000001
s(I39
S'L'
tp1049
F-0.78486100000000003
s(I8
S'H'
tp1050
F-0.22265799999999999
s(I21
S'H'
tp1051
F-0.95485699999999996
s(I22
S'H'
tp1052
F0.855298
s(I44
S'E'
tp1053
F8.8620300000000007
s(I46
S'I'
tp1054
F0.85924500000000004
s(I41
S'M'
tp1055
F0.38894099999999998
s(I50
S'N'
tp1056
F4.1646999999999998
s(I72
S'S'
tp1057
F-1.1936599999999999
s(I15
S'S'
tp1058
F5.8875400000000004
s(I11
S'S'
tp1059
F0.434338
s(I62
S'S'
tp1060
F0.39863199999999999
s(I39
S'N'
tp1061
F-1.21946
s(I13
S'Y'
tp1062
F-1.7935099999999999
s(I18
S'Y'
tp1063
F-0.42632399999999998
s(I36
S'L'
tp1064
F0.551091
s(I29
S'N'
tp1065
F-0.467615
s(I60
S'K'
tp1066
F0.35594900000000002
s(I68
S'E'
tp1067
F2.4196
s(I39
S'A'
tp1068
F-1.09039
s(I44
S'A'
tp1069
F5.5788099999999998
s(I54
S'M'
tp1070
F-2.2569599999999999
s(I7
S'F'
tp1071
F-4.3903699999999999
s(I44
S'V'
tp1072
F1.9713099999999999
s(I3
S'P'
tp1073
F10.481400000000001
s(I74
S'G'
tp1074
F-1.5772699999999999
s(I9
S'N'
tp1075
F1.01742
s(I62
S'W'
tp1076
F-1.7560500000000001
s(I2
S'L'
tp1077
F-1.3374600000000001
s(I47
S'I'
tp1078
F22.229099999999999
s(I15
S'N'
tp1079
F4.7849599999999999
s(I39
S'C'
tp1080
F-0.47680499999999998
s(I15
S'T'
tp1081
F3.7344400000000002
s(I31
S'E'
tp1082
F1.4232499999999999
s(I67
S'T'
tp1083
F6.9508599999999996
s(I52
S'H'
tp1084
F5.9368800000000004
s(I3
S'R'
tp1085
F10.089700000000001
s(I50
S'H'
tp1086
F3.7155900000000002
s(I27
S'H'
tp1087
F0.17672499999999999
s(I60
S'G'
tp1088
F0.48278399999999999
s(I23
S'D'
tp1089
F9.2475299999999994
s(I60
S'Q'
tp1090
F-0.14262
s(I74
S'S'
tp1091
F-0.082934400000000005
s(I21
S'P'
tp1092
F11.1424
s(I44
S'R'
tp1093
F12.6866
s(I3
S'T'
tp1094
F4.1574799999999996
s(I19
S'A'
tp1095
F0.247034
s(I24
S'A'
tp1096
F-3.2658200000000002
s(I13
S'F'
tp1097
F-4.6192200000000003
s(I20
S'E'
tp1098
F-0.47453099999999998
s(I2
S'G'
tp1099
F1.01187
s(I32
S'Y'
tp1100
F-0.76670099999999997
s(I27
S'L'
tp1101
F0.36555500000000002
s(I68
S'M'
tp1102
F0.82392900000000002
s(I14
S'C'
tp1103
F1.18258
s(I3
S'W'
tp1104
F3.6502599999999998
s(I7
S'M'
tp1105
F-1.9729300000000001
s(I51
S'C'
tp1106
F-0.054073000000000003
s(I35
S'R'
tp1107
F5.3939199999999996
s(I25
S'C'
tp1108
F-0.085474300000000003
s(I12
S'I'
tp1109
F0.16658000000000001
s(I44
S'N'
tp1110
F5.8498599999999996
s(I75
S'K'
tp1111
F0.71620200000000001
s(I24
S'L'
tp1112
F-4.5834999999999999
s(I2
S'D'
tp1113
F2.6352199999999999
s(I26
S'G'
tp1114
F4.8123699999999996
s(I25
S'V'
tp1115
F-0.18472
s(I3
S'Y'
tp1116
F-0.589225
s(I40
S'L'
tp1117
F-0.62149299999999996
s(I20
S'A'
tp1118
F-0.45712199999999997
s(I31
S'M'
tp1119
F-0.84804900000000005
s(I25
S'A'
tp1120
F-0.82386800000000004
s(I14
S'V'
tp1121
F-0.42655900000000002
s(I19
S'G'
tp1122
F1.92699
s(I16
S'V'
tp1123
F-1.3601300000000001
s(I36
S'V'
tp1124
F1.7564299999999999
s(I26
S'E'
tp1125
F6.0499200000000002
s(I47
S'S'
tp1126
F10.0108
s(I54
S'K'
tp1127
F-1.3420300000000001
s(I21
S'S'
tp1128
F0.285667
s(I33
S'Y'
tp1129
F-1.22868
s(I46
S'Y'
tp1130
F-2.0265900000000001
s(I55
S'S'
tp1131
F0.95796899999999996
s(I72
S'C'
tp1132
F-0.91663600000000001
s(I7
S'P'
tp1133
F-1.0995900000000001
s(I26
S'C'
tp1134
F3.1735600000000002
s(I50
S'E'
tp1135
F7.4904799999999998
s(I48
S'T'
tp1136
F-1.09894
s(I18
S'H'
tp1137
F-3.7061899999999999
s(I4
S'Y'
tp1138
F0.45258599999999999
s(I19
S'K'
tp1139
F0.78925299999999998
s(I8
S'Q'
tp1140
F0.095258200000000001
s(I17
S'R'
tp1141
F10.1318
s(I21
S'A'
tp1142
F-1.89621
s(I26
S'A'
tp1143
F1.36155
s(I19
S'L'
tp1144
F0.33731100000000003
s(I61
S'M'
tp1145
F7.6930800000000001
s(I51
S'K'
tp1146
F-1.50959
s(I6
S'R'
tp1147
F0.174536
s(I58
S'T'
tp1148
F-1.14544
s(I5
S'K'
tp1149
F17.202999999999999
s(I44
S'F'
tp1150
F-0.26469100000000001
s(I22
S'S'
tp1151
F0.042731600000000002
s(I19
S'M'
tp1152
F1.5751299999999999
s(I70
S'W'
tp1153
F12.9879
s(I40
S'P'
tp1154
F10.202999999999999
s(I17
S'P'
tp1155
F6.3920399999999997
s(I64
S'A'
tp1156
F0.18268599999999999
s(I47
S'Y'
tp1157
F8.50868
s(I52
S'Y'
tp1158
F9.1781600000000001
s(I13
S'E'
tp1159
F5.06236
s(I72
S'T'
tp1160
F-1.2185699999999999
s(I54
S'D'
tp1161
F-0.53630500000000003
s(I66
S'K'
tp1162
F1.6248899999999999
s(I33
S'S'
tp1163
F0.768424
s(I49
S'T'
tp1164
F2.64838
s(I32
S'H'
tp1165
F-1.19411
s(I58
S'R'
tp1166
F2.5381100000000001
s(I32
S'C'
tp1167
F-0.23594999999999999
s(I40
S'E'
tp1168
F2.0599400000000001
s(I42
S'N'
tp1169
F-5.9108599999999996
s(I16
S'W'
tp1170
F-0.79088199999999997
s(I16
S'N'
tp1171
F-0.61555099999999996
s(I47
S'R'
tp1172
F23.965199999999999
s(I10
S'W'
tp1173
F5.2072099999999999
s(I64
S'C'
tp1174
F-0.130771
s(I37
S'D'
tp1175
F2.0768200000000001
s(I18
S'C'
tp1176
F-1.1613
s(I60
S'V'
tp1177
F3.7210200000000002
s(I31
S'N'
tp1178
F1.02538
s(I20
S'K'
tp1179
F-0.92619899999999999
s(I5
S'N'
tp1180
F7.7298200000000001
s(I58
S'P'
tp1181
F11.3653
s(I22
S'A'
tp1182
F0.80590200000000001
s(I3
S'D'
tp1183
F9.8111700000000006
s(I27
S'A'
tp1184
F2.80043
s(I45
S'C'
tp1185
F5.0476900000000002
s(I19
S'Q'
tp1186
F0.50795699999999999
s(I52
S'K'
tp1187
F0.68793800000000005
s(I69
S'W'
tp1188
F7.8322900000000004
s(I67
S'V'
tp1189
F2.09396
s(I25
S'M'
tp1190
F-0.60124699999999998
s(I68
S'Q'
tp1191
F1.8238099999999999
s(I2
S'W'
tp1192
F-0.71336599999999994
s(I7
S'Q'
tp1193
F-0.83780699999999997
s(I65
S'A'
tp1194
F-0.86428300000000002
s(I75
S'M'
tp1195
F-0.79980700000000005
s(I40
S'V'
tp1196
F-0.79456300000000002
s(I64
S'G'
tp1197
F-0.96867599999999998
s(I3
S'G'
tp1198
F8.3931299999999993
s(I28
S'L'
tp1199
F-2.3733499999999998
s(I61
S'E'
tp1200
F10.7127
s(I60
S'R'
tp1201
F2.1093999999999999
s(I20
S'L'
tp1202
F-0.39101900000000001
s(I10
S'R'
tp1203
F4.9788699999999997
s(I45
S'Q'
tp1204
F4.5436300000000003
s(I49
S'Y'
tp1205
F-1.3733900000000001
s(I27
S'E'
tp1206
F9.9223199999999991
s(I42
S'H'
tp1207
F-2.0855100000000002
s(I17
S'H'
tp1208
F5.4516499999999999
s(I2
S'T'
tp1209
F0.33868799999999999
s(I23
S'A'
tp1210
F2.9916399999999999
s(I66
S'C'
tp1211
F-0.97925899999999999
s(I38
S'M'
tp1212
F4.07911
s(I20
S'Q'
tp1213
F-1.0948100000000001
s(I14
S'P'
tp1214
F0.49392999999999998
s(I56
S'F'
tp1215
F2.19042
s(I29
S'R'
tp1216
F-0.44095499999999999
s(I16
S'T'
tp1217
F-0.73489899999999997
s(I19
S'W'
tp1218
F-1.3762799999999999
s(I16
S'F'
tp1219
F-0.204791
s(I75
S'P'
tp1220
F-0.094183199999999995
s(I2
S'R'
tp1221
F2.0095299999999998
s(I45
S'L'
tp1222
F4.0229400000000002
s(I69
S'Q'
tp1223
F4.6294899999999997
s(I61
S'A'
tp1224
F7.0492499999999998
s(I66
S'A'
tp1225
F1.66045
s(I11
S'L'
tp1226
F-0.48857800000000001
s(I56
S'H'
tp1227
F5.3856299999999999
s(I26
S'T'
tp1228
F1.9552099999999999
s(I3
S'L'
tp1229
F-0.79905300000000001
s(I24
S'Y'
tp1230
F-3.7318799999999999
s(I26
S'R'
tp1231
F15.3833
s(I32
S'V'
tp1232
F-0.57637799999999995
s(I3
S'N'
tp1233
F6.4995500000000002
s(I75
S'E'
tp1234
F0.99283500000000002
s(I4
S'I'
tp1235
F1.66438
s(I25
S'D'
tp1236
F1.08796
s(I8
S'A'
tp1237
F-1.4400200000000001
s(I7
S'S'
tp1238
F-2.04175
s(I11
S'R'
tp1239
F-1.9043000000000001
s(I28
S'D'
tp1240
F3.3365800000000001
s(I63
S'M'
tp1241
F-0.62755099999999997
s(I49
S'F'
tp1242
F-1.59372
s(I26
S'P'
tp1243
F13.8588
s(I52
S'M'
tp1244
F0.66198400000000002
s(I38
S'F'
tp1245
F11.9434
s(I62
S'A'
tp1246
F3.00115
s(I70
S'G'
tp1247
F2.1730800000000001
s(I67
S'A'
tp1248
F7.2796000000000003
s(I31
S'P'
tp1249
F15.3996
s(I64
S'Q'
tp1250
F-0.72810200000000003
s(I54
S'F'
tp1251
F-1.2986599999999999
s(I57
S'N'
tp1252
F-0.248889
s(I72
S'D'
tp1253
F-0.18653
s(I12
S'W'
tp1254
F-0.61106899999999997
s(I54
S'T'
tp1255
F1.6395900000000001
s(I38
S'E'
tp1256
F6.7570499999999996
s(I56
S'N'
tp1257
F5.1852200000000002
s(I33
S'R'
tp1258
F1.6853
s(I46
S'N'
tp1259
F-2.1908099999999999
s(I16
S'L'
tp1260
F-0.973275
s(I14
S'I'
tp1261
F-0.6996
s(I16
S'G'
tp1262
F1.1098300000000001
s(I75
S'H'
tp1263
F0.59936900000000004
s(I64
S'S'
tp1264
F1.00983
s(I22
S'R'
tp1265
F1.3859300000000001
s(I40
S'S'
tp1266
F0.925902
s(I71
S'W'
tp1267
F1.1773
s(I30
S'S'
tp1268
F7.9841100000000003
s(I71
S'N'
tp1269
F2.9974500000000002
s(I15
S'M'
tp1270
F1.9661500000000001
s(I9
S'A'
tp1271
F-0.016774799999999999
s(I48
S'Y'
tp1272
F-2.4116200000000001
s(I10
S'F'
tp1273
F2.5303200000000001
s(I72
S'W'
tp1274
F-3.57341
s(I33
S'P'
tp1275
F18.659600000000001
s(I27
S'Q'
tp1276
F2.2441
s(I74
S'F'
tp1277
F-2.3743099999999999
s(I67
S'S'
tp1278
F8.4854099999999999
s(I41
S'S'
tp1279
F3.81196
s(I62
S'E'
tp1280
F1.72078
s(I69
S'G'
tp1281
F7.4330100000000003
s(I51
S'F'
tp1282
F-1.15395
s(I38
S'K'
tp1283
F2.88842
s(I50
S'Q'
tp1284
F5.5474800000000002
s(I63
S'A'
tp1285
F-1.29914
s(I68
S'A'
tp1286
F3.274
s(I32
S'W'
tp1287
F-1.8691899999999999
s(I49
S'K'
tp1288
F1.0184899999999999
s(I65
S'Q'
tp1289
F-3.4826899999999998
s(I61
S'T'
tp1290
F5.8059599999999998
s(I68
S'V'
tp1291
F-0.050632099999999999
s(I21
S'Y'
tp1292
F-1.88313
s(I64
S'W'
tp1293
F-1.7854699999999999
s(I43
S'P'
tp1294
F1.49837
s(I15
S'I'
tp1295
F-1.36944
s(I63
S'C'
tp1296
F-0.095541799999999996
s(I37
S'C'
tp1297
F2.2429800000000002
s(I1
S'C'
tp1298
F1.9240900000000001
s(I38
S'H'
tp1299
F3.6206999999999998
s(I62
S'I'
tp1300
F-0.18559700000000001
s(I10
S'A'
tp1301
F4.6830999999999996
s(I40
S'Y'
tp1302
F-0.41421200000000002
s(I66
S'S'
tp1303
F2.0262699999999998
s(I35
S'K'
tp1304
F4.67631
s(I42
S'S'
tp1305
F-1.1032999999999999
s(I56
S'V'
tp1306
F7.0366200000000001
s(I61
S'P'
tp1307
F18.0748
s(I16
S'D'
tp1308
F0.45648499999999997
s(I45
S'N'
tp1309
F5.1751300000000002
s(I22
S'D'
tp1310
F3.6008399999999998
s(I48
S'A'
tp1311
F-0.17591999999999999
s(I73
S'P'
tp1312
F1.48366
s(I69
S'A'
tp1313
F5.1264500000000002
s(I50
S'K'
tp1314
F11.6966
s(I66
S'Q'
tp1315
F0.036606800000000002
s(I9
S'I'
tp1316
F0.987124
s(I10
S'N'
tp1317
F2.33656
s(I15
S'D'
tp1318
F7.8942899999999998
s(I62
S'M'
tp1319
F0.59951299999999996
s(I74
S'D'
tp1320
F-0.85168299999999997
s(I38
S'C'
tp1321
F4.4822300000000004
s(I63
S'I'
tp1322
F1.77139
s(I57
S'E'
tp1323
F-0.78273400000000004
s(I39
S'Y'
tp1324
F-1.58169
s(I49
S'C'
tp1325
F0.36226000000000003
s(I1
S'R'
tp1326
F4.7829800000000002
s(I66
S'H'
tp1327
F0.66545900000000002
s(I35
S'V'
tp1328
F6.8873300000000004
s(I43
S'H'
tp1329
F4.6431399999999998
s(I28
S'T'
tp1330
F-0.329627
s(I9
S'M'
tp1331
F1.01938
s(I24
S'P'
tp1332
F19.479299999999999
s(I49
S'A'
tp1333
F-0.296319
s(I36
S'P'
tp1334
F10.0655
s(I1
S'P'
tp1335
F3.1504300000000001
s(I13
S'P'
tp1336
F7.1903899999999998
s(I71
S'D'
tp1337
F6.14886
s(I66
S'F'
tp1338
F-2.0800399999999999
s(I48
S'G'
tp1339
F1.8505100000000001
s(I54
S'V'
tp1340
F3.6624500000000002
s(I12
S'L'
tp1341
F-1.55288
s(I12
S'G'
tp1342
F1.6975
s(I7
S'K'
tp1343
F2.8876499999999998
s(I57
S'I'
tp1344
F-0.13879900000000001
s(I55
S'F'
tp1345
F0.56869400000000003
s(I36
S'E'
tp1346
F6.1960699999999997
s(I60
S'H'
tp1347
F0.75584700000000005
s(I71
S'F'
tp1348
F1.8041700000000001
s(I73
S'S'
tp1349
F2.18641
s(I12
S'N'
tp1350
F-0.112693
s(I73
S'N'
tp1351
F1.03209
s(I22
S'M'
tp1352
F0.80495099999999997
s(I30
S'C'
tp1353
F5.9433400000000001
s(I37
S'Y'
tp1354
F4.1569700000000003
s(I72
S'G'
tp1355
F-1.5697000000000001
s(I11
S'G'
tp1356
F-0.0335149
s(I36
S'G'
tp1357
F6.6982900000000001
s(I41
S'C'
tp1358
F3.5815100000000002
s(I32
S'L'
tp1359
F-1.51359
s(I74
S'L'
tp1360
F-2.9002599999999998
s(I28
S'I'
tp1361
F-1.80657
s(I29
S'L'
tp1362
F-2.5851099999999998
s(I50
S'A'
tp1363
F4.2323399999999998
s(I65
S'M'
tp1364
F-1.9833099999999999
s(I18
S'D'
tp1365
F-0.50274399999999997
s(I37
S'V'
tp1366
F1.5366
s(I60
S'D'
tp1367
F3.1713800000000001
s(I68
S'F'
tp1368
F-1.6848700000000001
s(I73
S'W'
tp1369
F0.33795500000000001
s(I58
S'I'
tp1370
F1.2326600000000001
s(I6
S'V'
tp1371
F-1.12141
s(I41
S'P'
tp1372
F14.3316
s(I42
S'E'
tp1373
F-3.29515
s(I40
S'T'
tp1374
F1.42492
s(I1
S'S'
tp1375
F2.1110199999999999
s(I17
S'T'
tp1376
F-0.84803099999999998
s(I13
S'S'
tp1377
F3.44299
s(I75
S'C'
tp1378
F0.048682900000000001
s(I66
S'G'
tp1379
F3.1264099999999999
s(I67
S'H'
tp1380
F4.1463799999999997
s(I65
S'H'
tp1381
F-0.0065882299999999996
s(I42
S'C'
tp1382
F-2.7725399999999998
s(I39
S'T'
tp1383
F0.24438199999999999
s(I29
S'I'
tp1384
F-1.73627
s(I59
S'P'
tp1385
F7.3990200000000002
s(I51
S'A'
tp1386
F-0.88284600000000002
s(I5
S'E'
tp1387
F10.293100000000001
s(I41
S'T'
tp1388
F2.7977799999999999
s(I30
S'K'
tp1389
F9.1067400000000003
s(I47
S'E'
tp1390
F17.3734
s(I45
S'P'
tp1391
F12.7149
s(I41
S'K'
tp1392
F7.9416700000000002
s(I63
S'T'
tp1393
F0.70989800000000003
s(I29
S'D'
tp1394
F2.1234299999999999
s(I23
S'S'
tp1395
F4.9701899999999997
s(I53
S'W'
tp1396
F0.395764
s(I27
S'N'
tp1397
F2.6743800000000002
s(I8
S'R'
tp1398
F1.5273399999999999
s(I39
S'I'
tp1399
F0.96557899999999997
s(I17
S'N'
tp1400
F2.9860500000000001
s(I59
S'T'
tp1401
F5.9529199999999998
s(I75
S'D'
tp1402
F0.67286900000000005
s(I35
S'F'
tp1403
F1.19875
s(I22
S'K'
tp1404
F0.24177100000000001
s(I6
S'N'
tp1405
F0.71083799999999997
s(I30
S'Y'
tp1406
F3.5394399999999999
s(I1
S'L'
tp1407
F1.45688
s(I47
S'A'
tp1408
F8.0515299999999996
s(I42
S'M'
tp1409
F-2.3256899999999998
s(I52
S'A'
tp1410
F-0.81933800000000001
s(I53
S'D'
tp1411
F0.69144700000000003
s(I17
S'L'
tp1412
F2.94502
s(I66
S'V'
tp1413
F-0.70802399999999999
s(I65
S'K'
tp1414
F-1.8634200000000001
s(I72
S'Q'
tp1415
F-2.9042400000000002
s(I60
S'Y'
tp1416
F0.84967700000000002
s(I11
S'Q'
tp1417
F-0.70075600000000005
s(I42
S'K'
tp1418
F2.5503900000000002
s(I57
S'Y'
tp1419
F0.049853599999999998
s(I55
S'V'
tp1420
F2.2581199999999999
s(I37
S'H'
tp1421
F3.06996
s(I13
S'N'
tp1422
F3.9296000000000002
s(I70
S'S'
tp1423
F1.14357
s(I31
S'Y'
tp1424
F-2.13062
s(I38
S'W'
tp1425
F5.2001600000000003
s(I35
S'Q'
tp1426
F3.1330300000000002
s(I28
S'Y'
tp1427
F-2.5847099999999998
s(I32
S'A'
tp1428
F-0.48905300000000002
s(I34
S'K'
tp1429
F0.125831
s(I49
S'W'
tp1430
F-0.86755899999999997
s(I21
S'F'
tp1431
F0.73730300000000004
s(I8
S'E'
tp1432
F1.3653
s(I17
S'F'
tp1433
F3.4408699999999999
s(I61
S'K'
tp1434
F10.791399999999999
s(I46
S'M'
tp1435
F-1.7923500000000001
s(I6
S'P'
tp1436
F7.0024899999999999
s(I18
S'V'
tp1437
F-0.0253256
s(I58
S'Y'
tp1438
F-0.72651699999999997
s(I6
S'F'
tp1439
F-0.14243600000000001
s(I37
S'G'
tp1440
F3.6744400000000002
s(I34
S'I'
tp1441
F-2.5195099999999999
s(I38
S'T'
tp1442
F3.62595
s(I59
S'C'
tp1443
F4.9678500000000003
s(I67
S'E'
tp1444
F5.53111
s(I53
S'L'
tp1445
F-0.12751999999999999
s.