(dp1
(I17
S'D'
tp2
F9.22818
s(I13
S'C'
tp3
F4.1830699999999998
s(I43
S'W'
tp4
F7.0690999999999997
s(I72
S'H'
tp5
F-2.0854200000000001
s(I66
S'W'
tp6
F0.0265682
s(I71
S'Q'
tp7
F2.1762000000000001
s(I68
S'W'
tp8
F-1.7823500000000001
s(I20
S'R'
tp9
F-0.98588200000000004
s(I32
S'E'
tp10
F-0.63039900000000004
s(I75
S'Y'
tp11
F3.46441
s(I33
S'V'
tp12
F-1.14028
s(I11
S'I'
tp13
F1.78579
s(I4
S'N'
tp14
F3.7969300000000001
s(I47
S'K'
tp15
F0.72665100000000005
s(I29
S'Y'
tp16
F-2.3550200000000001
s(I33
S'A'
tp17
F0.35387000000000002
s(I61
S'G'
tp18
F8.9510500000000004
s(I22
S'V'
tp19
F1.5366599999999999
s(I46
S'Q'
tp20
F-1.42086
s(I71
S'S'
tp21
F4.5974300000000001
s(I4
S'W'
tp22
F1.5079400000000001
s(I49
S'L'
tp23
F-0.50398900000000002
s(I41
S'D'
tp24
F9.5004600000000003
s(I11
S'D'
tp25
F4.0993599999999999
s(I18
S'Q'
tp26
F-1.22692
s(I23
S'G'
tp27
F6.0348699999999997
s(I58
S'N'
tp28
F0.339223
s(I29
S'T'
tp29
F0.17598
s(I60
S'C'
tp30
F1.0796399999999999
s(I34
S'C'
tp31
F1.82847
s(I47
S'N'
tp32
F-0.153613
s(I10
S'P'
tp33
F101.227
s(I19
S'D'
tp34
F2.7490999999999999
s(I54
S'E'
tp35
F0.73010799999999998
s(I66
S'L'
tp36
F-1.71512
s(I61
S'C'
tp37
F5.5251599999999996
s(I20
S'G'
tp38
F0.34088800000000002
s(I58
S'L'
tp39
F-0.0476923
s(I5
S'H'
tp40
F5.6697199999999999
s(I6
S'H'
tp41
F-0.86702599999999996
s(I34
S'A'
tp42
F1.70597
s(I49
S'M'
tp43
F1.00925
s(I24
S'W'
tp44
F-4.3038299999999996
s(I47
S'Q'
tp45
F1.1032999999999999
s(I15
S'V'
tp46
F2.9384100000000002
s(I52
S'F'
tp47
F2.4062100000000002
s(I52
S'P'
tp48
F-0.82127700000000003
s(I48
S'P'
tp49
F8.0036900000000006
s(I29
S'P'
tp50
F9.8247699999999991
s(I72
S'A'
tp51
F-2.06738
s(I1
S'E'
tp52
F2.48583
s(I69
S'V'
tp53
F5.4412399999999996
s(I75
S'R'
tp54
F6.1831800000000001
s(I19
S'H'
tp55
F0.66634199999999999
s(I51
S'Y'
tp56
F0.11403000000000001
s(I22
S'I'
tp57
F2.3692099999999998
s(I48
S'R'
tp58
F0.92273400000000005
s(I76
S'T'
tp59
F-0.15335299999999999
s(I41
S'L'
tp60
F-0.21629499999999999
s(I15
S'R'
tp61
F11.4734
s(I28
S'M'
tp62
F-1.3572900000000001
s(I20
S'M'
tp63
F0.0120231
s(I31
S'I'
tp64
F7.1422800000000004
s(I14
S'D'
tp65
F2.4086400000000001
s(I35
S'A'
tp66
F2.2825600000000001
s(I53
S'C'
tp67
F0.111828
s(I27
S'D'
tp68
F7.6135599999999997
s(I16
S'S'
tp69
F0.27326499999999998
s(I14
S'K'
tp70
F1.5822700000000001
s(I69
S'R'
tp71
F10.9876
s(I75
S'V'
tp72
F7.7077600000000004
s(I66
S'D'
tp73
F4.20181
s(I73
S'V'
tp74
F-0.90475700000000003
s(I25
S'K'
tp75
F0.73470899999999995
s(I11
S'F'
tp76
F4.0954499999999996
s(I73
S'A'
tp77
F0.78020599999999996
s(I4
S'P'
tp78
F9.0977200000000007
s(I48
S'V'
tp79
F-1.53921
s(I45
S'G'
tp80
F9.0620999999999992
s(I76
S'P'
tp81
F1.45228
s(I39
S'W'
tp82
F-1.6289899999999999
s(I49
S'E'
tp83
F0.59775999999999996
s(I69
S'P'
tp84
F11.9307
s(I19
S'N'
tp85
F1.56463
s(I25
S'I'
tp86
F-0.78961800000000004
s(I43
S'G'
tp87
F8.0005100000000002
s(I73
S'K'
tp88
F0.36604599999999998
s(I68
S'G'
tp89
F2.5561500000000001
s(I48
S'H'
tp90
F0.27942499999999998
s(I7
S'G'
tp91
F2.8375400000000002
s(I26
S'M'
tp92
F3.5896300000000001
s(I54
S'C'
tp93
F0.10523299999999999
s(I22
S'P'
tp94
F-0.66794200000000004
s(I76
S'M'
tp95
F1.11426
s(I34
S'V'
tp96
F0.97236100000000003
s(I73
S'E'
tp97
F1.4085700000000001
s(I40
S'G'
tp98
F2.9795400000000001
s(I4
S'G'
tp99
F6.2129599999999998
s(I24
S'F'
tp100
F-3.8624700000000001
s(I72
S'K'
tp101
F-1.9626699999999999
s(I67
S'G'
tp102
F8.7057199999999995
s(I26
S'K'
tp103
F12.9849
s(I74
S'A'
tp104
F-0.14394899999999999
s(I59
S'W'
tp105
F1.2077199999999999
s(I28
S'E'
tp106
F0.64771800000000002
s(I41
S'V'
tp107
F1.19862
s(I10
S'T'
tp108
F7.0154399999999999
s(I53
S'K'
tp109
F-0.37058099999999999
s(I70
S'R'
tp110
F3.0887799999999999
s(I8
S'Y'
tp111
F1.6867799999999999
s(I16
S'K'
tp112
F0.249199
s(I30
S'V'
tp113
F2.8181500000000002
s(I37
S'R'
tp114
F1.9877499999999999
s(I26
S'I'
tp115
F0.86127100000000001
s(I5
S'W'
tp116
F12.940799999999999
s(I75
S'N'
tp117
F4.0095900000000002
s(I43
S'R'
tp118
F16.649100000000001
s(I19
S'T'
tp119
F0.125864
s(I20
S'W'
tp120
F0.98934599999999995
s(I75
S'L'
tp121
F3.5962399999999999
s(I73
S'I'
tp122
F-1.0841700000000001
s(I59
S'G'
tp123
F7.9344900000000003
s(I48
S'N'
tp124
F-0.12539400000000001
s(I76
S'H'
tp125
F1.1797299999999999
s(I67
S'Y'
tp126
F7.2561999999999998
s(I69
S'S'
tp127
F7.0364300000000002
s(I57
S'F'
tp128
F1.1268100000000001
s(I34
S'P'
tp129
F9.97316
s(I40
S'M'
tp130
F-0.32603599999999999
s(I46
S'F'
tp131
F2.13863
s(I75
S'A'
tp132
F6.9045800000000002
s(I62
S'P'
tp133
F1.87748
s(I27
S'P'
tp134
F14.9564
s(I39
S'P'
tp135
F-1.12496
s(I62
S'F'
tp136
F-0.484929
s(I21
S'L'
tp137
F-2.8906399999999999
s(I14
S'W'
tp138
F1.9227099999999999
s(I69
S'F'
tp139
F1.80568
s(I37
S'L'
tp140
F1.9443600000000001
s(I76
S'E'
tp141
F0.26281500000000002
s(I50
S'R'
tp142
F12.6622
s(I25
S'W'
tp143
F-2.1399400000000002
s(I73
S'M'
tp144
F0.72641199999999995
s(I39
S'R'
tp145
F0.093586600000000006
s(I52
S'S'
tp146
F1.77501
s(I31
S'T'
tp147
F1.06118
s(I48
S'S'
tp148
F1.23549
s(I74
S'I'
tp149
F-1.1329400000000001
s(I50
S'Y'
tp150
F9.3141999999999996
s(I9
S'D'
tp151
F0.85463199999999995
s(I75
S'S'
tp152
F5.8690300000000004
s(I61
S'N'
tp153
F6.81555
s(I7
S'I'
tp154
F1.4451400000000001
s(I8
S'V'
tp155
F1.0915600000000001
s(I27
S'T'
tp156
F3.7729499999999998
s(I16
S'H'
tp157
F-0.91521600000000003
s(I16
S'C'
tp158
F-0.41886299999999999
s(I59
S'F'
tp159
F0.57545000000000002
s(I64
S'F'
tp160
F-1.57419
s(I76
S'A'
tp161
F0.141067
s(I63
S'R'
tp162
F1.3388500000000001
s(I45
S'I'
tp163
F7.14954
s(I76
S'V'
tp164
F0.21639700000000001
s(I74
S'P'
tp165
F-3.48834
s(I55
S'P'
tp166
F2.1925599999999998
s(I39
S'G'
tp167
F0.18131
s(I34
S'L'
tp168
F-0.0455488
s(I28
S'F'
tp169
F-0.64460899999999999
s(I51
S'T'
tp170
F1.2099200000000001
s(I66
S'R'
tp171
F2.2792599999999998
s(I9
S'C'
tp172
F0.87946599999999997
s(I9
S'H'
tp173
F0.40243400000000001
s(I23
S'H'
tp174
F3.7985899999999999
s(I2
S'N'
tp175
F1.1507499999999999
s(I55
S'R'
tp176
F-1.2010099999999999
s(I18
S'W'
tp177
F0.00075439099999999998
s(I62
S'N'
tp178
F0.79476100000000005
s(I33
S'M'
tp179
F-0.49455100000000002
s(I45
S'D'
tp180
F10.2355
s(I5
S'R'
tp181
F15.7948
s(I76
S'S'
tp182
F-0.0044316800000000003
s(I54
S'S'
tp183
F1.71926
s(I50
S'S'
tp184
F7.7170100000000001
s(I63
S'G'
tp185
F0.95353900000000003
s(I55
S'I'
tp186
F1.8209599999999999
s(I56
S'G'
tp187
F7.6645300000000001
s(I56
S'A'
tp188
F4.8598100000000004
s(I10
S'E'
tp189
F4.6121699999999999
s(I57
S'R'
tp190
F1.04518
s(I76
S'Y'
tp191
F0.30802499999999999
s(I9
S'G'
tp192
F0.876691
s(I41
S'F'
tp193
F1.49803
s(I9
S'L'
tp194
F-0.0139352
s(I61
S'F'
tp195
F3.6813199999999999
s(I46
S'R'
tp196
F-0.42942900000000001
s(I36
S'Q'
tp197
F3.9696699999999998
s(I25
S'L'
tp198
F-0.54695300000000002
s(I30
S'P'
tp199
F17.965299999999999
s(I8
S'I'
tp200
F0.67879100000000003
s(I56
S'C'
tp201
F5.86782
s(I45
S'R'
tp202
F6.5155599999999998
s(I46
S'C'
tp203
F-0.216999
s(I30
S'F'
tp204
F1.5747
s(I10
S'C'
tp205
F3.8565
s(I69
S'E'
tp206
F8.7225000000000001
s(I5
S'G'
tp207
F7.9422300000000003
s(I2
S'I'
tp208
F-1.5637099999999999
s(I12
S'M'
tp209
F-1.22011
s(I6
S'T'
tp210
F-0.53093199999999996
s(I18
S'R'
tp211
F-0.27899200000000002
s(I22
S'G'
tp212
F2.0623200000000002
s(I57
S'C'
tp213
F0.86111899999999997
s(I76
S'N'
tp214
F0.38219199999999998
s(I24
S'S'
tp215
F-2.2322799999999998
s(I36
S'S'
tp216
F6.0051899999999998
s(I40
S'H'
tp217
F-1.18848
s(I53
S'H'
tp218
F0.0340284
s(I54
S'H'
tp219
F-1.22024
s(I33
S'G'
tp220
F2.1078999999999999
s(I34
S'D'
tp221
F2.8708900000000002
s(I69
S'C'
tp222
F5.5862299999999996
s(I57
S'V'
tp223
F0.93080600000000002
s(I72
S'L'
tp224
F-3.6445599999999998
s(I71
S'M'
tp225
F1.6977199999999999
s(I32
S'P'
tp226
F13.8096
s(I57
S'A'
tp227
F-0.181948
s(I46
S'V'
tp228
F2.6884199999999998
s(I29
S'G'
tp229
F1.4646600000000001
s(I14
S'Q'
tp230
F-0.060156500000000002
s(I30
S'T'
tp231
F5.5310100000000002
s(I21
S'W'
tp232
F-3.8802500000000002
s(I59
S'R'
tp233
F9.7908100000000005
s(I58
S'E'
tp234
F0.98367499999999997
s(I9
S'R'
tp235
F1.1850700000000001
s(I63
S'F'
tp236
F0.41117300000000001
s(I37
S'Q'
tp237
F2.1641400000000002
s(I24
S'E'
tp238
F-2.50244
s(I52
S'G'
tp239
F0.28526699999999999
s(I47
S'H'
tp240
F0.93651700000000004
s(I36
S'T'
tp241
F3.6708799999999999
s(I13
S'T'
tp242
F3.6175199999999998
s(I56
S'I'
tp243
F5.5496600000000003
s(I18
S'M'
tp244
F-0.76295000000000002
s(I31
S'D'
tp245
F3.8348100000000001
s(I10
S'M'
tp246
F3.53485
s(I58
S'C'
tp247
F-0.060945199999999998
s(I50
S'I'
tp248
F7.3910299999999998
s(I60
S'M'
tp249
F1.8227800000000001
s(I67
S'N'
tp250
F6.1736300000000002
s(I32
S'T'
tp251
F-1.00562
s(I63
S'L'
tp252
F3.0926999999999998
s(I8
S'F'
tp253
F0.96243100000000004
s(I36
S'Y'
tp254
F0.63624400000000003
s(I41
S'Y'
tp255
F2.9246599999999998
s(I56
S'K'
tp256
F11.7067
s(I40
S'N'
tp257
F0.16414000000000001
s(I10
S'K'
tp258
F2.8358699999999999
s(I58
S'A'
tp259
F-0.91786599999999996
s(I69
S'M'
tp260
F4.1610699999999996
s(I9
S'V'
tp261
F0.28676499999999999
s(I15
S'G'
tp262
F6.6138700000000004
s(I6
S'L'
tp263
F-1.1284799999999999
s(I15
S'Q'
tp264
F4.4107099999999999
s(I37
S'K'
tp265
F3.1669800000000001
s(I53
S'P'
tp266
F-0.27988000000000002
s(I38
S'Q'
tp267
F2.6685599999999998
s(I53
S'T'
tp268
F0.044767000000000001
s(I69
S'K'
tp269
F10.0413
s(I10
S'Y'
tp270
F3.10276
s(I28
S'V'
tp271
F-1.25935
s(I72
S'E'
tp272
F-3.1815699999999998
s(I74
S'N'
tp273
F-0.95442800000000005
s(I44
S'T'
tp274
F2.16798
s(I15
S'C'
tp275
F5.4877599999999997
s(I50
S'C'
tp276
F6.0744199999999999
s(I63
S'N'
tp277
F0.25520999999999999
s(I42
S'Y'
tp278
F-0.252691
s(I24
S'M'
tp279
F-2.4023300000000001
s(I55
S'Y'
tp280
F-0.81311199999999995
s(I32
S'K'
tp281
F-1.3594599999999999
s(I59
S'A'
tp282
F5.9597100000000003
s(I56
S'Q'
tp283
F5.5466499999999996
s(I31
S'L'
tp284
F-1.24265
s(I67
S'R'
tp285
F16.517499999999998
s(I35
S'E'
tp286
F2.2801100000000001
s(I57
S'M'
tp287
F1.0666599999999999
s(I40
S'R'
tp288
F1.5112099999999999
s(I34
S'W'
tp289
F0.90469999999999995
s(I68
S'T'
tp290
F0.063239000000000004
s(I7
S'V'
tp291
F2.3415300000000001
s(I21
S'R'
tp292
F-0.113848
s(I56
S'S'
tp293
F6.9452400000000001
s(I72
S'V'
tp294
F-3.4349699999999999
s(I28
S'K'
tp295
F-2.17727
s(I46
S'S'
tp296
F0.419178
s(I44
S'P'
tp297
F11.386200000000001
s(I2
S'Y'
tp298
F-1.43316
s(I6
S'D'
tp299
F3.1917300000000002
s(I59
S'E'
tp300
F7.8463799999999999
s(I15
S'H'
tp301
F4.2761300000000002
s(I13
S'H'
tp302
F3.3796900000000001
s(I38
S'I'
tp303
F1.63243
s(I62
S'V'
tp304
F-0.180259
s(I12
S'D'
tp305
F4.1150700000000002
s(I60
S'A'
tp306
F1.7937700000000001
s(I7
S'C'
tp307
F2.21916
s(I57
S'Q'
tp308
F-0.83456200000000003
s(I23
S'P'
tp309
F5.8236699999999999
s(I25
S'H'
tp310
F-0.385154
s(I29
S'W'
tp311
F-2.6988099999999999
s(I31
S'W'
tp312
F0.27602100000000002
s(I30
S'D'
tp313
F11.540100000000001
s(I35
S'P'
tp314
F102.175
s(I44
S'L'
tp315
F0.37835299999999999
s(I56
S'D'
tp316
F9.2816399999999994
s(I22
S'E'
tp317
F1.6323000000000001
s(I13
S'D'
tp318
F8.1625599999999991
s(I56
S'Y'
tp319
F9.8061799999999995
s(I20
S'N'
tp320
F-0.38742100000000002
s(I32
S'I'
tp321
F-1.8090200000000001
s(I58
S'S'
tp322
F-1.8634500000000001
s(I65
S'E'
tp323
F1.03041
s(I1
S'N'
tp324
F1.23682
s(I57
S'D'
tp325
F2.1295500000000001
s(I41
S'I'
tp326
F-1.32992
s(I28
S'C'
tp327
F-0.71131100000000003
s(I51
S'W'
tp328
F1.01285
s(I64
S'H'
tp329
F-1.0299199999999999
s(I58
S'Q'
tp330
F-0.87935600000000003
s(I44
S'H'
tp331
F-0.78811500000000001
s(I25
S'F'
tp332
F-2.6100400000000001
s(I2
S'P'
tp333
F1.45048
s(I14
S'F'
tp334
F1.89836
s(I50
S'G'
tp335
F8.47729
s(I52
S'R'
tp336
F0.569295
s(I42
S'V'
tp337
F-2.8136199999999998
s(I21
S'C'
tp338
F-0.86130099999999998
s(I33
S'I'
tp339
F-0.36390499999999998
s(I31
S'V'
tp340
F2.88672
s(I57
S'H'
tp341
F1.1717599999999999
s(I30
S'L'
tp342
F2.4089900000000002
s(I5
S'M'
tp343
F3.8192699999999999
s(I64
S'L'
tp344
F-1.2996099999999999
s(I44
S'D'
tp345
F5.0557499999999997
s(I56
S'P'
tp346
F8.2650600000000001
s(I55
S'M'
tp347
F0.22384999999999999
s(I47
S'M'
tp348
F1.20885
s(I42
S'I'
tp349
F-3.6997
s(I58
S'F'
tp350
F-2.9928699999999999
s(I43
S'S'
tp351
F8.3315699999999993
s(I64
S'N'
tp352
F-2.5816499999999998
s(I7
S'E'
tp353
F4.0582599999999998
s(I27
S'F'
tp354
F0.97492999999999996
s(I47
S'F'
tp355
F1.22332
s(I70
S'N'
tp356
F1.5639799999999999
s(I44
S'W'
tp357
F-3.4740899999999999
s(I68
S'D'
tp358
F3.4146999999999998
s(I31
S'R'
tp359
F1.3136699999999999
s(I2
S'M'
tp360
F-0.75898200000000005
s(I72
S'F'
tp361
F-0.45943200000000001
s(I35
S'N'
tp362
F0.41890100000000002
s(I22
S'C'
tp363
F0.259185
s(I42
S'P'
tp364
F11.1561
s(I1
S'D'
tp365
F2.53857
s(I52
S'I'
tp366
F2.7505899999999999
s(I3
S'Q'
tp367
F5.7240799999999998
s(I33
S'C'
tp368
F0.50631899999999996
s(I65
S'C'
tp369
F0.014288
s(I56
S'R'
tp370
F11.441599999999999
s(I72
S'Y'
tp371
F-2.0760800000000001
s(I23
S'V'
tp372
F1.1361399999999999
s(I44
S'S'
tp373
F2.8816899999999999
s(I3
S'S'
tp374
F7.38089
s(I21
S'K'
tp375
F-0.51493800000000001
s(I37
S'T'
tp376
F3.2957999999999998
s(I18
S'S'
tp377
F-0.37224200000000002
s(I60
S'F'
tp378
F1.9885600000000001
s(I31
S'G'
tp379
F2.7299099999999998
s(I60
S'P'
tp380
F13.4078
s(I45
S'S'
tp381
F6.9246699999999999
s(I56
S'T'
tp382
F6.2287299999999997
s(I55
S'E'
tp383
F1.6704300000000001
s(I33
S'T'
tp384
F0.495919
s(I25
S'R'
tp385
F-0.61467499999999997
s(I35
S'Y'
tp386
F4.4954599999999996
s(I43
S'K'
tp387
F12.339499999999999
s(I29
S'F'
tp388
F-2.1226500000000001
s(I14
S'R'
tp389
F1.24674
s(I3
S'V'
tp390
F2.5740400000000001
s(I4
S'Q'
tp391
F3.1417600000000001
s(I70
S'P'
tp392
F3.8447
s(I16
S'M'
tp393
F-0.5212
s(I47
S'W'
tp394
F1.8666700000000001
s(I70
S'F'
tp395
F-1.6191800000000001
s(I8
S'M'
tp396
F1.1107
s(I7
S'L'
tp397
F-0.00194426
s(I68
S'L'
tp398
F-2.24376
s(I37
S'N'
tp399
F2.69306
s(I57
S'T'
tp400
F2.1984400000000002
s(I2
S'E'
tp401
F0.58002200000000004
s(I18
S'N'
tp402
F-1.1773100000000001
s(I4
S'S'
tp403
F5.8771800000000001
s(I72
S'I'
tp404
F-3.7774100000000002
s(I1
S'G'
tp405
F2.2513399999999999
s(I6
S'Y'
tp406
F-1.7156499999999999
s(I67
S'M'
tp407
F3.8371
s(I19
S'F'
tp408
F0.95281099999999996
s(I12
S'P'
tp409
F1.35924
s(I26
S'F'
tp410
F3.8232699999999999
s(I12
S'K'
tp411
F1.39097
s(I71
S'I'
tp412
F-0.0379981
s(I42
S'F'
tp413
F-0.103061
s(I9
S'K'
tp414
F0.14918600000000001
s(I27
S'R'
tp415
F4.8470700000000004
s(I44
S'K'
tp416
F2.7623899999999999
s(I31
S'F'
tp417
F-2.48116
s(I5
S'Q'
tp418
F5.3685999999999998
s(I12
S'R'
tp419
F1.19458
s(I26
S'D'
tp420
F9.2996599999999994
s(I71
S'K'
tp421
F4.13124
s(I4
S'T'
tp422
F4.7085400000000002
s(I24
S'I'
tp423
F-2.23529
s(I11
S'C'
tp424
F2.6957599999999999
s(I62
S'C'
tp425
F0.88431400000000004
s(I69
S'T'
tp426
F6.4809099999999997
s(I18
S'I'
tp427
F0.66079500000000002
s(I51
S'R'
tp428
F2.19285
s(I58
S'V'
tp429
F-0.42303800000000003
s(I43
S'C'
tp430
F6.5461
s(I32
S'F'
tp431
F-1.2763599999999999
s(I61
S'L'
tp432
F4.3146300000000002
s(I27
S'V'
tp433
F3.8400300000000001
s(I70
S'H'
tp434
F1.1622300000000001
s(I47
S'V'
tp435
F3.7715000000000001
s(I36
S'R'
tp436
F6.4477900000000004
s(I44
S'G'
tp437
F4.39811
s(I5
S'T'
tp438
F4.0229999999999997
s(I49
S'V'
tp439
F-0.86136699999999999
s(I28
S'P'
tp440
F10.1912
s(I38
S'V'
tp441
F1.71804
s(I67
S'Q'
tp442
F5.8031600000000001
s(I24
S'T'
tp443
F-1.80087
s(I6
S'Q'
tp444
F-0.0022264699999999999
s(I62
S'G'
tp445
F0.74001799999999995
s(I1
S'T'
tp446
F1.50467
s(I74
S'E'
tp447
F0.48051199999999999
s(I3
S'A'
tp448
F6.1924400000000004
s(I52
S'N'
tp449
F-0.53208699999999998
s(I28
S'R'
tp450
F-1.7254100000000001
s(I67
S'D'
tp451
F10.432
s(I63
S'H'
tp452
F2.3086500000000001
s(I61
S'H'
tp453
F5.2023599999999997
s(I60
S'W'
tp454
F2.64533
s(I23
S'T'
tp455
F4.0507200000000001
s(I74
S'C'
tp456
F-0.70213599999999998
s(I44
S'C'
tp457
F2.69936
s(I3
S'C'
tp458
F6.2592299999999996
s(I9
S'E'
tp459
F0.96387
s(I66
S'I'
tp460
F-1.56728
s(I19
S'P'
tp461
F-2.26403
s(I9
S'Q'
tp462
F0.069160100000000002
s(I10
S'V'
tp463
F7.5020699999999998
s(I64
S'P'
tp464
F30.979299999999999
s(I37
S'E'
tp465
F2.4227699999999999
s(I24
S'Q'
tp466
F-2.5824199999999999
s(I62
S'K'
tp467
F0.39030599999999999
s(I3
S'E'
tp468
F9.3518100000000004
s(I24
S'H'
tp469
F-3.4029099999999999
s(I19
S'R'
tp470
F1.1097999999999999
s(I63
S'Q'
tp471
F-0.66920999999999997
s(I14
S'L'
tp472
F0.040932000000000003
s(I35
S'I'
tp473
F4.3285799999999997
s(I32
S'G'
tp474
F-0.151834
s(I29
S'V'
tp475
F-0.36962299999999998
s(I3
S'F'
tp476
F2.4311099999999999
s(I48
S'L'
tp477
F-1.5549900000000001
s(I61
S'D'
tp478
F10.494199999999999
s(I4
S'A'
tp479
F4.3068499999999998
s(I39
S'M'
tp480
F0.041092799999999999
s(I59
S'N'
tp481
F6.0531100000000002
s(I14
S'S'
tp482
F1.00766
s(I68
S'P'
tp483
F5.8202800000000003
s(I21
S'I'
tp484
F-0.84937600000000002
s(I7
S'R'
tp485
F5.1361400000000001
s(I73
S'R'
tp486
F1.3649
s(I28
S'G'
tp487
F0.276194
s(I49
S'N'
tp488
F0.78007099999999996
s(I51
S'S'
tp489
F1.35057
s(I63
S'S'
tp490
F-0.19592699999999999
s(I25
S'S'
tp491
F-0.395453
s(I37
S'S'
tp492
F3.5054400000000001
s(I3
S'H'
tp493
F4.3605200000000002
s(I4
S'C'
tp494
F4.6241300000000001
s(I38
S'N'
tp495
F2.6978800000000001
s(I62
S'Y'
tp496
F-0.203733
s(I1
S'W'
tp497
F-0.768648
s(I6
S'I'
tp498
F-0.803782
s(I10
S'Q'
tp499
F3.5572499999999998
s(I26
S'W'
tp500
F9.2544400000000007
s(I74
S'M'
tp501
F-0.89283199999999996
s(I19
S'V'
tp502
F-0.111758
s(I50
S'T'
tp503
F5.86768
s(I25
S'Q'
tp504
F-0.51488900000000004
s(I65
S'L'
tp505
F0.28623100000000001
s(I32
S'R'
tp506
F-0.223993
s(I36
S'F'
tp507
F0.61934400000000001
s(I48
S'Q'
tp508
F-0.62040200000000001
s(I74
S'K'
tp509
F0.098849099999999995
s(I3
S'K'
tp510
F10.8827
s(I74
S'W'
tp511
F-1.9132499999999999
s(I35
S'T'
tp512
F4.9864300000000004
s(I20
S'H'
tp513
F0.69440599999999997
s(I5
S'A'
tp514
F5.1578999999999997
s(I9
S'Y'
tp515
F-0.37270799999999998
s(I45
S'M'
tp516
F5.4394499999999999
s(I4
S'D'
tp517
F7.1383599999999996
s(I74
S'T'
tp518
F-0.462899
s(I32
S'M'
tp519
F-1.0318700000000001
s(I26
S'S'
tp520
F5.6020300000000001
s(I38
S'S'
tp521
F3.0785300000000002
s(I3
S'M'
tp522
F3.3091699999999999
s(I69
S'D'
tp523
F9.2459799999999994
s(I63
S'Y'
tp524
F0.14655099999999999
s(I68
S'Y'
tp525
F-2.0459900000000002
s(I49
S'S'
tp526
F1.16703
s(I48
S'D'
tp527
F1.7092700000000001
s(I14
S'E'
tp528
F1.19912
s(I54
S'I'
tp529
F2.7919399999999999
s(I21
S'Q'
tp530
F-2.2542200000000001
s(I26
S'Q'
tp531
F5.4949599999999998
s(I5
S'D'
tp532
F9.3639899999999994
s(I47
S'D'
tp533
F1.3247800000000001
s(I4
S'K'
tp534
F3.6822699999999999
s(I71
S'T'
tp535
F2.7920500000000001
s(I6
S'A'
tp536
F1.38157
s(I48
S'W'
tp537
F-1.0336399999999999
s(I23
S'Y'
tp538
F5.4581600000000003
s(I52
S'L'
tp539
F1.39151
s(I49
S'D'
tp540
F-0.37102400000000002
s(I13
S'G'
tp541
F4.6919700000000004
s(I32
S'S'
tp542
F-0.59705299999999994
s(I75
S'W'
tp543
F4.8796299999999997
s(I1
S'I'
tp544
F-1.1524000000000001
s(I8
S'S'
tp545
F1.3419399999999999
s(I71
S'V'
tp546
F0.67712000000000006
s(I39
S'H'
tp547
F-0.29538700000000001
s(I23
S'R'
tp548
F14.8459
s(I36
S'N'
tp549
F4.39785
s(I48
S'I'
tp550
F-1.8170999999999999
s(I69
S'Y'
tp551
F5.2629599999999996
s(I51
S'M'
tp552
F1.04495
s(I61
S'Y'
tp553
F6.0175799999999997
s(I66
S'Y'
tp554
F-2.1816300000000002
s(I22
S'Q'
tp555
F-0.11934
s(I11
S'W'
tp556
F3.9330400000000001
s(I4
S'L'
tp557
F1.59935
s(I36
S'W'
tp558
F-0.49551499999999998
s(I11
S'V'
tp559
F1.8544499999999999
s(I23
S'K'
tp560
F11.726100000000001
s(I67
S'F'
tp561
F3.5432399999999999
s(I18
S'T'
tp562
F-0.248475
s(I7
S'A'
tp563
F2.2356500000000001
s(I55
S'K'
tp564
F-0.00278239
s(I40
S'F'
tp565
F-3.3345600000000002
s(I28
S'W'
tp566
F-2.5256799999999999
s(I30
S'W'
tp567
F4.4405299999999999
s(I45
S'A'
tp568
F6.2716399999999997
s(I49
S'I'
tp569
F-1.08778
s(I41
S'W'
tp570
F8.6174599999999995
s(I66
S'N'
tp571
F1.90598
s(I73
S'F'
tp572
F-0.98843199999999998
s(I23
S'Q'
tp573
F4.0627199999999997
s(I50
S'D'
tp574
F9.1304700000000008
s(I65
S'N'
tp575
F0.74089099999999997
s(I55
S'N'
tp576
F0.63613600000000003
s(I8
S'P'
tp577
F-0.0145974
s(I33
S'E'
tp578
F0.82055100000000003
s(I46
S'G'
tp579
F-0.0013190599999999999
s(I61
S'Q'
tp580
F8.2370900000000002
s(I35
S'D'
tp581
F3.38191
s(I57
S'G'
tp582
F0.421852
s(I59
S'I'
tp583
F11.2159
s(I53
S'F'
tp584
F-0.38684299999999999
s(I23
S'C'
tp585
F4.3527500000000003
s(I51
S'N'
tp586
F1.0105500000000001
s(I46
S'D'
tp587
F-0.27525500000000003
s(I68
S'I'
tp588
F-1.58816
s(I70
S'T'
tp589
F2.7232699999999999
s(I59
S'D'
tp590
F10.3072
s(I25
S'T'
tp591
F-1.2483599999999999
s(I7
S'H'
tp592
F1.2335
s(I46
S'K'
tp593
F-1.13547
s(I54
S'Y'
tp594
F-0.073462200000000005
s(I12
S'E'
tp595
F1.3795999999999999
s(I57
S'K'
tp596
F0.024966499999999999
s(I47
S'T'
tp597
F2.71862
s(I23
S'M'
tp598
F3.3777599999999999
s(I59
S'Q'
tp599
F6.2556000000000003
s(I60
S'I'
tp600
F3.9902199999999999
s(I71
S'E'
tp601
F4.6040200000000002
s(I4
S'V'
tp602
F2.3358099999999999
s(I46
S'H'
tp603
F-0.34788000000000002
s(I10
S'H'
tp604
F3.50623
s(I1
S'Y'
tp605
F1.0178700000000001
s(I8
S'C'
tp606
F1.8876500000000001
s(I14
S'Y'
tp607
F1.7743
s(I66
S'M'
tp608
F-0.88005100000000003
s(I58
S'M'
tp609
F-0.33715800000000001
s(I69
S'I'
tp610
F5.1121699999999999
s(I40
S'C'
tp611
F1.26125
s(I33
S'L'
tp612
F-0.69801100000000005
s(I71
S'G'
tp613
F4.9635499999999997
s(I47
S'P'
tp614
F91.400400000000005
s(I67
S'C'
tp615
F5.9499000000000004
s(I53
S'N'
tp616
F-0.70277299999999998
s(I20
S'F'
tp617
F0.60746699999999998
s(I58
S'K'
tp618
F0.70975299999999997
s(I51
S'V'
tp619
F0.110168
s(I60
S'E'
tp620
F1.78623
s(I4
S'R'
tp621
F3.8041800000000001
s(I29
S'M'
tp622
F-1.2372099999999999
s(I70
S'L'
tp623
F1.0889500000000001
s(I8
S'N'
tp624
F1.43546
s(I30
S'Q'
tp625
F5.4084399999999997
s(I37
S'W'
tp626
F3.1095700000000002
s(I30
S'G'
tp627
F9.4921299999999995
s(I15
S'Y'
tp628
F0.52717400000000003
s(I41
S'G'
tp629
F6.6830499999999997
s(I23
S'E'
tp630
F7.6815300000000004
s(I16
S'P'
tp631
F1.8193999999999999
s(I31
S'H'
tp632
F-1.6307100000000001
s(I29
S'H'
tp633
F-0.36638700000000002
s(I40
S'I'
tp634
F-1.4701299999999999
s(I55
S'C'
tp635
F0.38723299999999999
s(I33
S'F'
tp636
F-0.56139399999999995
s(I11
S'Y'
tp637
F3.9142600000000001
s(I16
S'Y'
tp638
F-1.3688899999999999
s(I72
S'M'
tp639
F-2.9798200000000001
s(I22
S'F'
tp640
F-1.53826
s(I54
S'G'
tp641
F1.29237
s(I66
S'E'
tp642
F2.04623
s(I46
S'W'
tp643
F-1.53745
s(I50
S'V'
tp644
F5.2084200000000003
s(I15
S'K'
tp645
F10.027699999999999
s(I70
S'Y'
tp646
F-1.90513
s(I57
S'W'
tp647
F0.62814400000000004
s(I39
S'V'
tp648
F-0.52186900000000003
s(I53
S'V'
tp649
F0.12504499999999999
s(I28
S'A'
tp650
F-1.2497799999999999
s(I43
S'M'
tp651
F2.4468800000000002
s(I35
S'M'
tp652
F1.6758900000000001
s(I46
S'T'
tp653
F2.2453799999999999
s(I29
S'E'
tp654
F1.3355399999999999
s(I70
S'D'
tp655
F3.3570000000000002
s(I7
S'N'
tp656
F3.3904299999999998
s(I31
S'S'
tp657
F2.4859499999999999
s(I68
S'N'
tp658
F0.541022
s(I5
S'S'
tp659
F5.8029299999999999
s(I17
S'Y'
tp660
F2.4431799999999999
s(I73
S'T'
tp661
F0.688581
s(I73
S'D'
tp662
F2.3016299999999998
s(I24
S'G'
tp663
F-2.1107300000000002
s(I15
S'F'
tp664
F-0.27424900000000002
s(I39
S'K'
tp665
F-0.51344500000000004
s(I6
S'M'
tp666
F0.019366499999999998
s(I15
S'P'
tp667
F5.9371999999999998
s(I11
S'P'
tp668
F11.3924
s(I54
S'P'
tp669
F2.2454399999999999
s(I50
S'P'
tp670
F10.3818
s(I53
S'E'
tp671
F0.13699700000000001
s(I16
S'Q'
tp672
F-0.0416131
s(I29
S'A'
tp673
F-0.66719300000000004
s(I34
S'N'
tp674
F1.3178700000000001
s(I51
S'I'
tp675
F0.12470299999999999
s(I50
S'W'
tp676
F15.0067
s(I73
S'C'
tp677
F1.0313699999999999
s(I73
S'H'
tp678
F0.69123999999999997
s(I42
S'T'
tp679
F-0.99666100000000002
s(I70
S'Q'
tp680
F0.86883999999999995
s(I37
S'I'
tp681
F2.9987300000000001
s(I24
S'C'
tp682
F-2.6157499999999998
s(I24
S'R'
tp683
F-2.1074000000000002
s(I6
S'S'
tp684
F1.8803399999999999
s(I17
S'S'
tp685
F3.1850700000000001
s(I20
S'V'
tp686
F0.35624
s(I43
S'E'
tp687
F9.4786599999999996
s(I1
S'F'
tp688
F1.2044900000000001
s(I59
S'M'
tp689
F5.0619300000000003
s(I37
S'F'
tp690
F3.0811600000000001
s(I60
S'T'
tp691
F3.64018
s(I57
S'L'
tp692
F0.35018100000000002
s(I73
S'Q'
tp693
F0.70228699999999999
s(I12
S'Q'
tp694
F0.33326
s(I17
S'Q'
tp695
F4.5450499999999998
s(I73
S'G'
tp696
F1.67516
s(I66
S'P'
tp697
F1.22211
s(I45
S'W'
tp698
F0.21585799999999999
s(I30
S'A'
tp699
F5.50122
s(I71
S'P'
tp700
F0.99796700000000005
s(I40
S'D'
tp701
F2.5349300000000001
s(I6
S'E'
tp702
F1.0559499999999999
s(I36
S'H'
tp703
F3.1362899999999998
s(I34
S'H'
tp704
F3.6085500000000001
s(I11
S'H'
tp705
F3.4118400000000002
s(I12
S'S'
tp706
F2.1440299999999999
s(I14
S'N'
tp707
F0.85060400000000003
s(I7
S'W'
tp708
F-0.893455
s(I8
S'W'
tp709
F0.47661399999999998
s(I16
S'I'
tp710
F-0.72350800000000004
s(I71
S'R'
tp711
F2.18079
s(I34
S'F'
tp712
F2.0598000000000001
s(I57
S'P'
tp713
F14.6244
s(I54
S'W'
tp714
F-0.742008
s(I51
S'Q'
tp715
F0.33659499999999998
s(I40
S'W'
tp716
F-4.3476900000000001
s(I50
S'F'
tp717
F3.8476499999999998
s(I64
S'D'
tp718
F-0.45530900000000002
s(I30
S'E'
tp719
F9.0955399999999997
s(I70
S'I'
tp720
F0.29326999999999998
s(I67
S'W'
tp721
F4.7386600000000003
s(I74
S'Q'
tp722
F-0.869784
s(I39
S'F'
tp723
F-1.63805
s(I13
S'Q'
tp724
F3.5236999999999998
s(I56
S'E'
tp725
F7.5544399999999996
s(I31
S'A'
tp726
F0.37445299999999998
s(I50
S'M'
tp727
F2.1697199999999999
s(I32
S'N'
tp728
F-1.33327
s(I28
S'Q'
tp729
F-2.2091599999999998
s(I17
S'K'
tp730
F7.5682999999999998
s(I63
S'D'
tp731
F1.5149699999999999
s(I18
S'P'
tp732
F5.1469800000000001
s(I19
S'C'
tp733
F1.00136
s(I62
S'R'
tp734
F1.6469800000000001
s(I55
S'G'
tp735
F1.62812
s(I21
S'N'
tp736
F-0.126112
s(I68
S'R'
tp737
F1.7548699999999999
s(I59
S'L'
tp738
F7.56325
s(I31
S'C'
tp739
F1.3620399999999999
s(I11
S'N'
tp740
F2.4503599999999999
s(I73
S'Y'
tp741
F-0.66500499999999996
s(I5
S'C'
tp742
F4.3363500000000004
s(I72
S'N'
tp743
F-2.49471
s(I17
S'I'
tp744
F2.1158999999999999
s(I19
S'E'
tp745
F1.27948
s(I41
S'H'
tp746
F3.00868
s(I55
S'H'
tp747
F0.19900499999999999
s(I38
S'L'
tp748
F5.3131199999999996
s(I64
S'I'
tp749
F1.87609
s(I52
S'Q'
tp750
F0.90460600000000002
s(I13
S'M'
tp751
F2.6999499999999999
s(I54
S'L'
tp752
F-0.60956500000000002
s(I65
S'R'
tp753
F2.0428799999999998
s(I9
S'P'
tp754
F0.96747399999999995
s(I75
S'Q'
tp755
F11.3786
s(I8
S'T'
tp756
F0.96740400000000004
s(I14
S'G'
tp757
F0.63394499999999998
s(I11
S'A'
tp758
F2.54914
s(I74
S'V'
tp759
F-1.3605499999999999
s(I16
S'A'
tp760
F0.44881500000000002
s(I64
S'K'
tp761
F-1.27942
s(I29
S'Q'
tp762
F-1.2596099999999999
s(I18
S'K'
tp763
F-1.2982800000000001
s(I20
S'C'
tp764
F0.27210699999999999
s(I5
S'F'
tp765
F3.1264400000000001
s(I25
S'G'
tp766
F0.0569922
s(I58
S'H'
tp767
F-1.68825
s(I35
S'H'
tp768
F5.9032299999999998
s(I33
S'H'
tp769
F0.672566
s(I27
S'I'
tp770
F2.6076600000000001
s(I45
S'K'
tp771
F6.7027999999999999
s(I19
S'I'
tp772
F0.57102399999999998
s(I30
S'M'
tp773
F3.1461100000000002
s(I42
S'D'
tp774
F-1.9370000000000001
s(I52
S'C'
tp775
F1.48932
s(I70
S'A'
tp776
F1.1644300000000001
s(I64
S'M'
tp777
F-0.39093
s(I74
S'Y'
tp778
F-2.55389
s(I6
S'C'
tp779
F0.58060599999999996
s(I56
S'M'
tp780
F2.77752
s(I25
S'E'
tp781
F0.22509399999999999
s(I38
S'G'
tp782
F3.7096100000000001
s(I7
S'Y'
tp783
F1.37239
s(I17
S'C'
tp784
F2.57104
s(I65
S'I'
tp785
F1.0028699999999999
s(I32
S'Q'
tp786
F-1.5171399999999999
s(I49
S'G'
tp787
F2.2935599999999998
s(I1
S'V'
tp788
F0.55631200000000003
s(I21
S'V'
tp789
F0.59345099999999995
s(I7
S'D'
tp790
F2.0525899999999999
s(I76
S'Q'
tp791
F0.080515000000000003
s(I20
S'D'
tp792
F0.574519
s(I31
S'K'
tp793
F0.44926100000000002
s(I45
S'Y'
tp794
F-0.27826600000000001
s(I12
S'A'
tp795
F1.20871
s(I17
S'A'
tp796
F2.3282400000000001
s(I27
S'M'
tp797
F0.071988300000000005
s(I18
S'F'
tp798
F-0.69622399999999995
s(I34
S'Y'
tp799
F2.1017100000000002
s(I38
S'D'
tp800
F5.3208500000000001
s(I59
S'S'
tp801
F7.8663100000000004
s(I51
S'D'
tp802
F2.5263100000000001
s(I35
S'S'
tp803
F2.6211600000000002
s(I20
S'I'
tp804
F0.53527499999999995
s(I9
S'S'
tp805
F0.53613299999999997
s(I14
S'H'
tp806
F1.51033
s(I41
S'R'
tp807
F13.2143
s(I12
S'H'
tp808
F1.8301499999999999
s(I26
S'N'
tp809
F5.9598399999999998
s(I12
S'C'
tp810
F0.65638700000000005
s(I71
S'A'
tp811
F3.39418
s(I75
S'I'
tp812
F7.6730099999999997
s(I64
S'R'
tp813
F0.59311899999999995
s(I4
S'E'
tp814
F4.4984700000000002
s(I30
S'R'
tp815
F13.852600000000001
s(I8
S'G'
tp816
F2.13503
s(I45
S'T'
tp817
F8.75366
s(I33
S'Q'
tp818
F-0.31899100000000002
s(I5
S'Y'
tp819
F5.3061499999999997
s(I61
S'W'
tp820
F15.2638
s(I63
S'W'
tp821
F1.36372
s(I26
S'L'
tp822
F1.5412999999999999
s(I71
S'C'
tp823
F3.72411
s(I64
S'T'
tp824
F2.43832
s(I76
S'L'
tp825
F-0.194102
s(I42
S'L'
tp826
F-2.3796200000000001
s(I13
S'A'
tp827
F3.9013300000000002
s(I18
S'A'
tp828
F-0.99879899999999999
s(I23
S'W'
tp829
F9.3662200000000002
s(I9
S'W'
tp830
F-0.45117099999999999
s(I10
S'I'
tp831
F7.3953499999999996
s(I64
S'V'
tp832
F1.9101600000000001
s(I60
S'S'
tp833
F2.16805
s(I34
S'S'
tp834
F1.3071200000000001
s(I55
S'W'
tp835
F0.0670544
s(I10
S'S'
tp836
F4.1350600000000002
s(I56
S'W'
tp837
F12.5585
s(I76
S'I'
tp838
F-0.497612
s(I61
S'S'
tp839
F5.8348500000000003
s(I26
S'H'
tp840
F5.5304399999999996
s(I53
S'M'
tp841
F-0.088087600000000002
s(I1
S'H'
tp842
F1.4109400000000001
s(I52
S'E'
tp843
F0.73927699999999996
s(I13
S'L'
tp844
F0.89374299999999995
s(I34
S'Q'
tp845
F-0.94061700000000004
s(I64
S'Y'
tp846
F-2.6135000000000002
s(I54
S'N'
tp847
F-1.24116
s(I28
S'N'
tp848
F-1.16961
s(I51
S'L'
tp849
F0.30067500000000003
s(I52
S'V'
tp850
F2.1363400000000001
s(I4
S'M'
tp851
F4.1550599999999998
s(I14
S'A'
tp852
F0.049184100000000001
s(I21
S'G'
tp853
F0.75862099999999999
s(I8
S'D'
tp854
F3.1175000000000002
s(I43
S'V'
tp855
F3.1795800000000001
s(I63
S'V'
tp856
F1.2757700000000001
s(I15
S'E'
tp857
F7.5566899999999997
s(I22
S'Y'
tp858
F-3.1587800000000001
s(I27
S'Y'
tp859
F0.43999100000000002
s(I37
S'M'
tp860
F3.3073000000000001
s(I24
S'N'
tp861
F-1.77851
s(I19
S'Y'
tp862
F0.69108899999999995
s(I53
S'R'
tp863
F0.070743
s(I65
S'Y'
tp864
F-0.31716499999999997
s(I39
S'E'
tp865
F0.15120500000000001
s(I75
S'T'
tp866
F6.00901
s(I45
S'H'
tp867
F3.41106
s(I76
S'W'
tp868
F-1.3418399999999999
s(I75
S'F'
tp869
F6.2991000000000001
s(I20
S'T'
tp870
F0.13331100000000001
s(I53
S'S'
tp871
F-0.22645599999999999
s(I15
S'A'
tp872
F4.63645
s(I34
S'M'
tp873
F0.54854899999999995
s(I1
S'K'
tp874
F1.97502
s(I24
S'K'
tp875
F-3.5000599999999999
s(I48
S'F'
tp876
F-0.85353999999999997
s(I11
S'T'
tp877
F2.5494400000000002
s(I67
S'P'
tp878
F7.8606499999999997
s(I16
S'R'
tp879
F0.79601599999999995
s(I35
S'C'
tp880
F2.27881
s(I62
S'T'
tp881
F-0.28355900000000001
s(I53
S'A'
tp882
F-0.18795799999999999
s(I20
S'Y'
tp883
F0.652698
s(I25
S'Y'
tp884
F-1.6063400000000001
s(I65
S'D'
tp885
F0.98318499999999998
s(I59
S'H'
tp886
F3.6043099999999999
s(I45
S'V'
tp887
F6.55098
s(I21
S'T'
tp888
F0.47671599999999997
s(I22
S'L'
tp889
F-2.23461
s(I69
S'N'
tp890
F5.7750599999999999
s(I43
S'N'
tp891
F6.7613599999999998
s(I20
S'P'
tp892
F5.9671399999999997
s(I5
S'I'
tp893
F0.165217
s(I45
S'E'
tp894
F9.0902499999999993
s(I76
S'R'
tp895
F-0.028747100000000001
s(I24
S'V'
tp896
F-0.89215100000000003
s(I6
S'W'
tp897
F-2.7221500000000001
s(I2
S'K'
tp898
F0.220753
s(I17
S'W'
tp899
F3.5522399999999998
s(I42
S'W'
tp900
F-1.0908
s(I10
S'D'
tp901
F3.4791300000000001
s(I34
S'G'
tp902
F3.3076599999999998
s(I14
S'M'
tp903
F-1.2865800000000001
s(I54
S'A'
tp904
F0.29738300000000001
s(I48
S'M'
tp905
F-1.2369000000000001
s(I26
S'Y'
tp906
F4.7318800000000003
s(I5
S'L'
tp907
F2.1750699999999998
s(I27
S'C'
tp908
F2.7391000000000001
s(I55
S'L'
tp909
F-0.37673000000000001
s(I47
S'L'
tp910
F1.4442699999999999
s(I4
S'H'
tp911
F3.2782
s(I2
S'H'
tp912
F0.44506299999999999
s(I67
S'I'
tp913
F0.59367199999999998
s(I38
S'Y'
tp914
F4.5027400000000002
s(I43
S'Y'
tp915
F6.2447800000000004
s(I58
S'G'
tp916
F0.929732
s(I69
S'H'
tp917
F5.18431
s(I52
S'T'
tp918
F1.50979
s(I68
S'S'
tp919
F1.45713
s(I53
S'I'
tp920
F0.14205799999999999
s(I65
S'G'
tp921
F0.88277499999999998
s(I1
S'A'
tp922
F1.30182
s(I11
S'M'
tp923
F2.9577800000000001
s(I2
S'F'
tp924
F-0.86956999999999995
s(I25
S'P'
tp925
F13.4682
s(I43
S'T'
tp926
F7.6065199999999997
s(I76
S'K'
tp927
F-0.076246999999999995
s(I12
S'V'
tp928
F-2.16648
s(I43
S'F'
tp929
F4.5249300000000003
s(I42
S'Q'
tp930
F-1.4529099999999999
s(I27
S'G'
tp931
F4.5330700000000004
s(I55
S'A'
tp932
F0.56975699999999996
s(I70
S'M'
tp933
F1.07429
s(I48
S'C'
tp934
F0.095974799999999999
s(I2
S'C'
tp935
F0.45936100000000002
s(I18
S'L'
tp936
F-1.3157799999999999
s(I41
S'N'
tp937
F4.13957
s(I10
S'L'
tp938
F3.7275
s(I44
S'Y'
tp939
F-3.3279299999999998
s(I21
S'E'
tp940
F-0.38939699999999999
s(I29
S'C'
tp941
F0.0999226
s(I62
S'D'
tp942
F2.44739
s(I60
S'L'
tp943
F1.6584300000000001
s(I59
S'V'
tp944
F8.1412700000000005
s(I49
S'R'
tp945
F1.43042
s(I30
S'N'
tp946
F4.8433900000000003
s(I51
S'G'
tp947
F2.76566
s(I48
S'E'
tp948
F1.03765
s(I2
S'A'
tp949
F0.62572000000000005
s(I17
S'M'
tp950
F3.8891900000000001
s(I71
S'H'
tp951
F4.2286000000000001
s(I38
S'R'
tp952
F3.3530700000000002
s(I55
S'D'
tp953
F3.5369600000000001
s(I76
S'F'
tp954
F0.77735399999999999
s(I72
S'P'
tp955
F0.40732099999999999
s(I49
S'P'
tp956
F-0.86878500000000003
s(I43
S'Q'
tp957
F5.7412400000000003
s(I40
S'A'
tp958
F1.2713399999999999
s(I33
S'N'
tp959
F0.16856699999999999
s(I23
S'N'
tp960
F4.4489299999999998
s(I53
S'Q'
tp961
F-0.26649499999999998
s(I65
S'F'
tp962
F-0.0941742
s(I65
S'T'
tp963
F0.84155199999999997
s(I11
S'E'
tp964
F4.2388599999999999
s(I62
S'H'
tp965
F0.32167200000000001
s(I22
S'N'
tp966
F-0.34572399999999998
s(I18
S'G'
tp967
F0.10248
s(I76
S'C'
tp968
F0.030576900000000001
s(I35
S'L'
tp969
F1.84694
s(I13
S'W'
tp970
F3.8441999999999998
s(I70
S'E'
tp971
F1.21211
s(I6
S'G'
tp972
F3.16601
s(I17
S'G'
tp973
F3.5456099999999999
s(I42
S'G'
tp974
F2.0577700000000001
s(I46
S'L'
tp975
F-1.4661900000000001
s(I63
S'E'
tp976
F0.131637
s(I61
S'V'
tp977
F0.83235499999999996
s(I39
S'Q'
tp978
F-0.204205
s(I44
S'Q'
tp979
F1.41683
s(I21
S'M'
tp980
F-2.6515599999999999
s(I62
S'L'
tp981
F0.17849899999999999
s(I36
S'A'
tp982
F4.8683199999999998
s(I41
S'A'
tp983
F2.9542600000000001
s(I5
S'P'
tp984
F11.5684
s(I54
S'Q'
tp985
F-1.6792499999999999
s(I17
S'E'
tp986
F8.1757600000000004
s(I22
S'W'
tp987
F-0.40205600000000002
s(I27
S'S'
tp988
F4.1744899999999996
s(I70
S'K'
tp989
F1.425
s(I39
S'S'
tp990
F-0.64253400000000005
s(I36
S'C'
tp991
F4.5844399999999998
s(I74
S'H'
tp992
F-1.92211
s(I51
S'H'
tp993
F0.068783300000000006
s(I33
S'W'
tp994
F0.41356900000000002
s(I49
S'H'
tp995
F-0.85029299999999997
s(I35
S'W'
tp996
F4.8420100000000001
s(I43
S'I'
tp997
F1.46289
s(I34
S'T'
tp998
F-0.241151
s(I58
S'W'
tp999
F-1.8960900000000001
s(I65
S'P'
tp1000
F4.70059
s(I68
S'C'
tp1001
F0.72101400000000004
s(I23
S'F'
tp1002
F1.8684499999999999
s(I53
S'Y'
tp1003
F-0.999919
s(I46
S'P'
tp1004
F15.398199999999999
s(I65
S'W'
tp1005
F-0.682809
s(I61
S'R'
tp1006
F17.977399999999999
s(I1
S'Q'
tp1007
F1.2259599999999999
s(I44
S'M'
tp1008
F1.32483
s(I8
S'K'
tp1009
F2.3331
s(I2
S'V'
tp1010
F-2.07274
s(I41
S'E'
tp1011
F5.9600900000000001
s(I76
S'D'
tp1012
F0.46536699999999998
s(I34
S'R'
tp1013
F4.4469000000000003
s(I43
S'D'
tp1014
F10.917999999999999
s(I12
S'F'
tp1015
F-0.89241599999999999
s(I40
S'K'
tp1016
F1.22824
s(I33
S'D'
tp1017
F2.1074000000000002
s(I37
S'A'
tp1018
F2.9093200000000001
s(I42
S'A'
tp1019
F-0.17301
s(I27
S'W'
tp1020
F-0.14599200000000001
s(I13
S'V'
tp1021
F1.5233099999999999
s(I55
S'Q'
tp1022
F0.37142500000000001
s(I52
S'W'
tp1023
F1.4382600000000001
s(I36
S'D'
tp1024
F7.2587599999999997
s(I67
S'K'
tp1025
F12.306699999999999
s(I36
S'M'
tp1026
F4.3149600000000001
s(I2
S'S'
tp1027
F1.2955700000000001
s(I29
S'S'
tp1028
F0.77137
s(I46
S'E'
tp1029
F0.0067720599999999999
s(I30
S'H'
tp1030
F5.7582899999999997
s(I28
S'H'
tp1031
F-1.40212
s(I12
S'Y'
tp1032
F-0.25520900000000002
s(I9
S'F'
tp1033
F-0.010559900000000001
s(I15
S'W'
tp1034
F6.7605199999999996
s(I59
S'K'
tp1035
F8.5863600000000009
s(I70
S'C'
tp1036
F0.81192699999999995
s(I13
S'R'
tp1037
F6.8954599999999999
s(I13
S'K'
tp1038
F5.6205800000000004
s(I36
S'K'
tp1039
F4.77088
s(I51
S'P'
tp1040
F3.4513799999999999
s(I71
S'Y'
tp1041
F1.2199899999999999
s(I38
S'A'
tp1042
F2.19177
s(I63
S'P'
tp1043
F-2.3090000000000002
s(I43
S'A'
tp1044
F6.3514900000000001
s(I23
S'L'
tp1045
F5.9275099999999998
s(I68
S'K'
tp1046
F-0.025568899999999999
s(I47
S'C'
tp1047
F1.29114
s(I65
S'V'
tp1048
F-0.72159200000000001
s(I39
S'L'
tp1049
F-0.37129800000000002
s(I8
S'H'
tp1050
F1.6967300000000001
s(I21
S'H'
tp1051
F-2.46692
s(I22
S'H'
tp1052
F-1.09507
s(I44
S'E'
tp1053
F2.0678399999999999
s(I46
S'I'
tp1054
F1.67018
s(I41
S'M'
tp1055
F0.087330599999999994
s(I50
S'N'
tp1056
F5.0899999999999999
s(I72
S'S'
tp1057
F-1.8020099999999999
s(I15
S'S'
tp1058
F7.1067600000000004
s(I11
S'S'
tp1059
F3.0517400000000001
s(I62
S'S'
tp1060
F1.0692600000000001
s(I39
S'N'
tp1061
F-0.51767399999999997
s(I13
S'Y'
tp1062
F3.8450000000000002
s(I18
S'Y'
tp1063
F-1.5662499999999999
s(I36
S'L'
tp1064
F2.1528
s(I29
S'N'
tp1065
F-0.30847400000000003
s(I60
S'K'
tp1066
F0.74111499999999997
s(I68
S'E'
tp1067
F1.2332099999999999
s(I39
S'A'
tp1068
F-0.45696900000000001
s(I44
S'A'
tp1069
F3.0741499999999999
s(I54
S'M'
tp1070
F-0.15723000000000001
s(I7
S'F'
tp1071
F-0.300786
s(I44
S'V'
tp1072
F0.482321
s(I3
S'P'
tp1073
F7.7738399999999999
s(I74
S'G'
tp1074
F0.62394400000000005
s(I9
S'N'
tp1075
F-0.242174
s(I62
S'W'
tp1076
F0.52694099999999999
s(I2
S'L'
tp1077
F-0.67283400000000004
s(I47
S'I'
tp1078
F3.53573
s(I15
S'N'
tp1079
F5.8097700000000003
s(I39
S'C'
tp1080
F0.166519
s(I15
S'T'
tp1081
F5.8777400000000002
s(I31
S'E'
tp1082
F1.1338600000000001
s(I67
S'T'
tp1083
F5.17652
s(I52
S'H'
tp1084
F1.7654799999999999
s(I3
S'R'
tp1085
F11.9956
s(I50
S'H'
tp1086
F5.3780900000000003
s(I27
S'H'
tp1087
F1.3827799999999999
s(I60
S'G'
tp1088
F0.241198
s(I23
S'D'
tp1089
F9.2726600000000001
s(I60
S'Q'
tp1090
F0.90211699999999995
s(I74
S'S'
tp1091
F-0.34335500000000002
s(I21
S'P'
tp1092
F6.7983500000000001
s(I44
S'R'
tp1093
F4.2683
s(I3
S'T'
tp1094
F5.3432599999999999
s(I19
S'A'
tp1095
F0.052799800000000001
s(I24
S'A'
tp1096
F-3.4344399999999999
s(I13
S'F'
tp1097
F4.3462699999999996
s(I20
S'E'
tp1098
F0.53152600000000005
s(I2
S'G'
tp1099
F1.78461
s(I32
S'Y'
tp1100
F-1.5390299999999999
s(I27
S'L'
tp1101
F1.0360199999999999
s(I68
S'M'
tp1102
F0.49516300000000002
s(I14
S'C'
tp1103
F-0.26702199999999998
s(I3
S'W'
tp1104
F10.609
s(I7
S'M'
tp1105
F1.3800699999999999
s(I51
S'C'
tp1106
F1.1653800000000001
s(I35
S'R'
tp1107
F2.0425900000000001
s(I25
S'C'
tp1108
F0.21887799999999999
s(I12
S'I'
tp1109
F-2.3955600000000001
s(I44
S'N'
tp1110
F3.1783199999999998
s(I75
S'K'
tp1111
F4.4175500000000003
s(I24
S'L'
tp1112
F-3.62236
s(I2
S'D'
tp1113
F2.5558200000000002
s(I26
S'G'
tp1114
F6.5737300000000003
s(I25
S'V'
tp1115
F-0.44630900000000001
s(I3
S'Y'
tp1116
F3.7156799999999999
s(I40
S'L'
tp1117
F0.28597499999999998
s(I20
S'A'
tp1118
F-0.012403300000000001
s(I31
S'M'
tp1119
F-0.349995
s(I25
S'A'
tp1120
F-0.85616400000000004
s(I14
S'V'
tp1121
F-1.5652200000000001
s(I19
S'G'
tp1122
F1.2428999999999999
s(I16
S'V'
tp1123
F-1.1376200000000001
s(I36
S'V'
tp1124
F1.54749
s(I26
S'E'
tp1125
F8.4207599999999996
s(I47
S'S'
tp1126
F2.1417799999999998
s(I54
S'K'
tp1127
F-0.17339099999999999
s(I21
S'S'
tp1128
F0.43354799999999999
s(I33
S'Y'
tp1129
F-0.97097900000000004
s(I46
S'Y'
tp1130
F-0.16859399999999999
s(I55
S'S'
tp1131
F-0.20904800000000001
s(I72
S'C'
tp1132
F-2.6328100000000001
s(I7
S'P'
tp1133
F3.1520600000000001
s(I26
S'C'
tp1134
F4.4268000000000001
s(I50
S'E'
tp1135
F8.7268500000000007
s(I48
S'T'
tp1136
F-0.34987800000000002
s(I18
S'H'
tp1137
F-1.02874
s(I4
S'Y'
tp1138
F0.14346200000000001
s(I19
S'K'
tp1139
F0.210146
s(I8
S'Q'
tp1140
F0.754498
s(I17
S'R'
tp1141
F9.2074800000000003
s(I21
S'A'
tp1142
F-1.88411
s(I26
S'A'
tp1143
F3.6065399999999999
s(I19
S'L'
tp1144
F-0.21062800000000001
s(I61
S'M'
tp1145
F6.6222200000000004
s(I51
S'K'
tp1146
F1.0577000000000001
s(I6
S'R'
tp1147
F0.90902099999999997
s(I58
S'T'
tp1148
F-2.9282900000000001
s(I5
S'K'
tp1149
F13.3819
s(I44
S'F'
tp1150
F-4.3212700000000002
s(I22
S'S'
tp1151
F0.15761500000000001
s(I19
S'M'
tp1152
F-0.52446499999999996
s(I70
S'W'
tp1153
F-0.873367
s(I40
S'P'
tp1154
F6.1972100000000001
s(I17
S'P'
tp1155
F6.1832500000000001
s(I64
S'A'
tp1156
F-0.1152
s(I47
S'Y'
tp1157
F1.66421
s(I52
S'Y'
tp1158
F2.67944
s(I13
S'E'
tp1159
F7.5244
s(I72
S'T'
tp1160
F-1.57389
s(I54
S'D'
tp1161
F0.96055699999999999
s(I66
S'K'
tp1162
F1.22837
s(I33
S'S'
tp1163
F1.1612800000000001
s(I49
S'T'
tp1164
F-0.87842600000000004
s(I32
S'H'
tp1165
F-0.46305299999999999
s(I58
S'R'
tp1166
F1.8207800000000001
s(I32
S'C'
tp1167
F-0.73306800000000005
s(I40
S'E'
tp1168
F2.4051800000000001
s(I42
S'N'
tp1169
F-0.237261
s(I16
S'W'
tp1170
F-1.5863
s(I16
S'N'
tp1171
F-0.54778099999999996
s(I47
S'R'
tp1172
F1.2212000000000001
s(I10
S'W'
tp1173
F4.9446500000000002
s(I64
S'C'
tp1174
F-0.80027999999999999
s(I37
S'D'
tp1175
F3.6143200000000002
s(I18
S'C'
tp1176
F-1.4791799999999999
s(I60
S'V'
tp1177
F3.3262499999999999
s(I31
S'N'
tp1178
F1.40493
s(I20
S'K'
tp1179
F-0.241423
s(I5
S'N'
tp1180
F5.5253199999999998
s(I58
S'P'
tp1181
F12.6808
s(I22
S'A'
tp1182
F0.45259899999999997
s(I3
S'D'
tp1183
F11.1395
s(I27
S'A'
tp1184
F1.9214100000000001
s(I45
S'C'
tp1185
F5.9641999999999999
s(I19
S'Q'
tp1186
F-1.5283800000000001
s(I52
S'K'
tp1187
F2.0165099999999998
s(I69
S'W'
tp1188
F2.62324
s(I67
S'V'
tp1189
F2.6356199999999999
s(I25
S'M'
tp1190
F-0.73324999999999996
s(I68
S'Q'
tp1191
F-1.03017
s(I2
S'W'
tp1192
F-2.4704700000000002
s(I7
S'Q'
tp1193
F1.3036799999999999
s(I65
S'A'
tp1194
F-0.97294400000000003
s(I75
S'M'
tp1195
F3.6253799999999998
s(I40
S'V'
tp1196
F0.061387400000000002
s(I64
S'G'
tp1197
F-3.1454200000000001
s(I3
S'G'
tp1198
F8.5879899999999996
s(I28
S'L'
tp1199
F-2.08263
s(I61
S'E'
tp1200
F11.6652
s(I60
S'R'
tp1201
F1.6794899999999999
s(I20
S'L'
tp1202
F-0.37513800000000003
s(I10
S'R'
tp1203
F3.6544699999999999
s(I45
S'Q'
tp1204
F5.7835700000000001
s(I49
S'Y'
tp1205
F-0.92493099999999995
s(I27
S'E'
tp1206
F5.9383400000000002
s(I42
S'H'
tp1207
F-0.74008099999999999
s(I17
S'H'
tp1208
F1.06064
s(I2
S'T'
tp1209
F-0.56391999999999998
s(I23
S'A'
tp1210
F3.73813
s(I66
S'C'
tp1211
F0.38859700000000003
s(I38
S'M'
tp1212
F2.4434399999999998
s(I20
S'Q'
tp1213
F-0.157777
s(I14
S'P'
tp1214
F1.07874
s(I56
S'F'
tp1215
F5.9543699999999999
s(I29
S'R'
tp1216
F0.43277300000000002
s(I16
S'T'
tp1217
F-0.27438699999999999
s(I19
S'W'
tp1218
F0.83474000000000004
s(I16
S'F'
tp1219
F-1.6434800000000001
s(I75
S'P'
tp1220
F105.69799999999999
s(I2
S'R'
tp1221
F-0.37037500000000001
s(I45
S'L'
tp1222
F6.4670800000000002
s(I69
S'Q'
tp1223
F5.7050599999999996
s(I61
S'A'
tp1224
F5.8590999999999998
s(I66
S'A'
tp1225
F1.64557
s(I11
S'L'
tp1226
F1.68621
s(I56
S'H'
tp1227
F8.1102100000000004
s(I26
S'T'
tp1228
F2.9303900000000001
s(I3
S'L'
tp1229
F1.7654700000000001
s(I24
S'Y'
tp1230
F-4.4621700000000004
s(I26
S'R'
tp1231
F12.0023
s(I32
S'V'
tp1232
F-1.6239699999999999
s(I3
S'N'
tp1233
F8.11266
s(I75
S'E'
tp1234
F5.94313
s(I4
S'I'
tp1235
F2.2594500000000002
s(I25
S'D'
tp1236
F-0.011886600000000001
s(I8
S'A'
tp1237
F1.6709700000000001
s(I7
S'S'
tp1238
F1.3663799999999999
s(I11
S'R'
tp1239
F2.5337299999999998
s(I28
S'D'
tp1240
F1.76511
s(I63
S'M'
tp1241
F0.66287300000000005
s(I49
S'F'
tp1242
F-0.28756199999999998
s(I26
S'P'
tp1243
F19.759899999999998
s(I52
S'M'
tp1244
F1.54863
s(I38
S'F'
tp1245
F4.6205100000000003
s(I62
S'A'
tp1246
F1.57193
s(I70
S'G'
tp1247
F2.5821000000000001
s(I67
S'A'
tp1248
F6.6515000000000004
s(I31
S'P'
tp1249
F15.2034
s(I64
S'Q'
tp1250
F-1.00122
s(I54
S'F'
tp1251
F-0.84840700000000002
s(I57
S'N'
tp1252
F1.5705199999999999
s(I72
S'D'
tp1253
F-0.99187899999999996
s(I12
S'W'
tp1254
F-0.64359200000000005
s(I54
S'T'
tp1255
F1.65544
s(I38
S'E'
tp1256
F4.5447899999999999
s(I56
S'N'
tp1257
F4.8434699999999999
s(I33
S'R'
tp1258
F1.56656
s(I46
S'N'
tp1259
F-1.5875300000000001
s(I16
S'L'
tp1260
F-0.75764200000000004
s(I14
S'I'
tp1261
F-1.60687
s(I16
S'G'
tp1262
F0.97380199999999995
s(I75
S'H'
tp1263
F5.3839100000000002
s(I64
S'S'
tp1264
F-0.030999200000000001
s(I22
S'R'
tp1265
F0.94573099999999999
s(I40
S'S'
tp1266
F2.6463299999999998
s(I71
S'W'
tp1267
F1.99061
s(I30
S'S'
tp1268
F8.4034999999999993
s(I71
S'N'
tp1269
F3.2869100000000002
s(I15
S'M'
tp1270
F3.7937599999999998
s(I9
S'A'
tp1271
F0.54782699999999995
s(I48
S'Y'
tp1272
F-1.10365
s(I10
S'F'
tp1273
F3.43377
s(I72
S'W'
tp1274
F-2.2809300000000001
s(I33
S'P'
tp1275
F9.2018900000000006
s(I27
S'Q'
tp1276
F1.20448
s(I74
S'F'
tp1277
F-3.22871
s(I67
S'S'
tp1278
F7.9225899999999996
s(I41
S'S'
tp1279
F5.1552600000000002
s(I62
S'E'
tp1280
F1.2429399999999999
s(I69
S'G'
tp1281
F8.7809100000000004
s(I51
S'F'
tp1282
F0.246283
s(I38
S'K'
tp1283
F2.12216
s(I50
S'Q'
tp1284
F4.1066799999999999
s(I63
S'A'
tp1285
F-0.66681800000000002
s(I68
S'A'
tp1286
F0.73276399999999997
s(I32
S'W'
tp1287
F-2.2204799999999998
s(I49
S'K'
tp1288
F0.85368599999999994
s(I65
S'Q'
tp1289
F-1.52841
s(I61
S'T'
tp1290
F4.8081800000000001
s(I68
S'V'
tp1291
F-1.4931099999999999
s(I21
S'Y'
tp1292
F-2.6393800000000001
s(I64
S'W'
tp1293
F0.049192699999999999
s(I43
S'P'
tp1294
F3.9340199999999999
s(I15
S'I'
tp1295
F1.6225799999999999
s(I63
S'C'
tp1296
F-0.32359500000000002
s(I37
S'C'
tp1297
F2.8570600000000002
s(I1
S'C'
tp1298
F1.60199
s(I38
S'H'
tp1299
F3.3362400000000001
s(I62
S'I'
tp1300
F0.15529000000000001
s(I10
S'A'
tp1301
F3.9634900000000002
s(I40
S'Y'
tp1302
F-3.0347599999999999
s(I66
S'S'
tp1303
F1.9653700000000001
s(I35
S'K'
tp1304
F1.5474000000000001
s(I42
S'S'
tp1305
F-0.33732400000000001
s(I56
S'V'
tp1306
F6.6931200000000004
s(I61
S'P'
tp1307
F15.7583
s(I16
S'D'
tp1308
F0.164295
s(I45
S'N'
tp1309
F6.5859699999999997
s(I22
S'D'
tp1310
F1.6577200000000001
s(I48
S'A'
tp1311
F0.32921699999999998
s(I73
S'P'
tp1312
F-1.5776699999999999
s(I69
S'A'
tp1313
F6.4569799999999997
s(I50
S'K'
tp1314
F12.1891
s(I66
S'Q'
tp1315
F0.32938899999999999
s(I9
S'I'
tp1316
F0.15293200000000001
s(I10
S'N'
tp1317
F1.35947
s(I15
S'D'
tp1318
F9.7247199999999996
s(I62
S'M'
tp1319
F1.3815200000000001
s(I74
S'D'
tp1320
F-1.1959200000000001
s(I38
S'C'
tp1321
F2.9798399999999998
s(I63
S'I'
tp1322
F0.55151899999999998
s(I57
S'E'
tp1323
F0.81530000000000002
s(I39
S'Y'
tp1324
F-1.5270699999999999
s(I49
S'C'
tp1325
F0.74423300000000003
s(I1
S'R'
tp1326
F2.0835300000000001
s(I66
S'H'
tp1327
F1.13523
s(I35
S'V'
tp1328
F4.8034999999999997
s(I43
S'H'
tp1329
F3.6106400000000001
s(I28
S'T'
tp1330
F-0.378917
s(I9
S'M'
tp1331
F0.47534100000000001
s(I24
S'P'
tp1332
F7.0459899999999998
s(I49
S'A'
tp1333
F0.54775099999999999
s(I36
S'P'
tp1334
F3.8583799999999999
s(I1
S'P'
tp1335
F2.6491500000000001
s(I13
S'P'
tp1336
F3.2979500000000002
s(I71
S'D'
tp1337
F5.9656900000000004
s(I66
S'F'
tp1338
F-2.11097
s(I48
S'G'
tp1339
F1.8545700000000001
s(I54
S'V'
tp1340
F3.2174299999999998
s(I12
S'L'
tp1341
F0.30442200000000003
s(I12
S'G'
tp1342
F2.8737499999999998
s(I7
S'K'
tp1343
F3.5389400000000002
s(I57
S'I'
tp1344
F0.57543800000000001
s(I55
S'F'
tp1345
F-0.72833800000000004
s(I36
S'E'
tp1346
F6.6823199999999998
s(I60
S'H'
tp1347
F1.0466899999999999
s(I71
S'F'
tp1348
F0.21348700000000001
s(I73
S'S'
tp1349
F1.05575
s(I12
S'N'
tp1350
F1.8492
s(I73
S'N'
tp1351
F1.1424799999999999
s(I22
S'M'
tp1352
F0.27365600000000001
s(I30
S'C'
tp1353
F5.9736399999999996
s(I37
S'Y'
tp1354
F3.4282599999999999
s(I72
S'G'
tp1355
F-0.47412900000000002
s(I11
S'G'
tp1356
F3.4908199999999998
s(I36
S'G'
tp1357
F7.2501699999999998
s(I41
S'C'
tp1358
F3.1806700000000001
s(I32
S'L'
tp1359
F-1.83829
s(I74
S'L'
tp1360
F-0.94846900000000001
s(I28
S'I'
tp1361
F-1.83196
s(I29
S'L'
tp1362
F-2.4094799999999998
s(I50
S'A'
tp1363
F5.3905799999999999
s(I65
S'M'
tp1364
F-0.21060200000000001
s(I18
S'D'
tp1365
F0.68452999999999997
s(I37
S'V'
tp1366
F2.8224200000000002
s(I60
S'D'
tp1367
F1.65204
s(I68
S'F'
tp1368
F-1.8778600000000001
s(I73
S'W'
tp1369
F-0.40450700000000001
s(I58
S'I'
tp1370
F0.82450400000000001
s(I6
S'V'
tp1371
F-0.70251200000000003
s(I41
S'P'
tp1372
F8.6263000000000005
s(I42
S'E'
tp1373
F0.29276799999999997
s(I40
S'T'
tp1374
F-0.17541999999999999
s(I1
S'S'
tp1375
F2.1628099999999999
s(I17
S'T'
tp1376
F2.9460099999999998
s(I13
S'S'
tp1377
F3.8008899999999999
s(I75
S'C'
tp1378
F5.8831300000000004
s(I66
S'G'
tp1379
F3.02928
s(I67
S'H'
tp1380
F5.3873100000000003
s(I65
S'H'
tp1381
F-1.8082800000000001
s(I42
S'C'
tp1382
F-0.50743400000000005
s(I39
S'T'
tp1383
F-0.20369000000000001
s(I29
S'I'
tp1384
F-1.3719399999999999
s(I59
S'P'
tp1385
F12.115500000000001
s(I51
S'A'
tp1386
F1.1251
s(I5
S'E'
tp1387
F9.4570799999999995
s(I41
S'T'
tp1388
F5.2693399999999997
s(I30
S'K'
tp1389
F12.224299999999999
s(I47
S'E'
tp1390
F1.67445
s(I45
S'P'
tp1391
F17.9602
s(I41
S'K'
tp1392
F10.2315
s(I63
S'T'
tp1393
F1.2509699999999999
s(I29
S'D'
tp1394
F2.3354900000000001
s(I23
S'S'
tp1395
F5.8914400000000002
s(I53
S'W'
tp1396
F-0.89984200000000003
s(I27
S'N'
tp1397
F2.54454
s(I8
S'R'
tp1398
F2.12303
s(I39
S'I'
tp1399
F-0.38570500000000002
s(I17
S'N'
tp1400
F3.7909999999999999
s(I59
S'T'
tp1401
F7.9506399999999999
s(I75
S'D'
tp1402
F5.8023999999999996
s(I35
S'F'
tp1403
F4.7527100000000004
s(I22
S'K'
tp1404
F-0.091170000000000001
s(I6
S'N'
tp1405
F1.97099
s(I30
S'Y'
tp1406
F3.21611
s(I1
S'L'
tp1407
F0.233705
s(I47
S'A'
tp1408
F1.7115
s(I42
S'M'
tp1409
F-1.8345499999999999
s(I52
S'A'
tp1410
F0.84354700000000005
s(I53
S'D'
tp1411
F0.28173399999999998
s(I17
S'L'
tp1412
F2.3621799999999999
s(I66
S'V'
tp1413
F-1.5153799999999999
s(I65
S'K'
tp1414
F-0.30967800000000001
s(I72
S'Q'
tp1415
F-1.6279600000000001
s(I60
S'Y'
tp1416
F1.16134
s(I11
S'Q'
tp1417
F1.3330299999999999
s(I42
S'K'
tp1418
F-0.984074
s(I57
S'Y'
tp1419
F0.79172900000000002
s(I55
S'V'
tp1420
F0.49789299999999997
s(I37
S'H'
tp1421
F4.0836100000000002
s(I13
S'N'
tp1422
F4.6507699999999996
s(I70
S'S'
tp1423
F2.3831000000000002
s(I31
S'Y'
tp1424
F-2.6843400000000002
s(I38
S'W'
tp1425
F5.0198
s(I35
S'Q'
tp1426
F1.36595
s(I28
S'Y'
tp1427
F-0.84960000000000002
s(I32
S'A'
tp1428
F-1.56812
s(I34
S'K'
tp1429
F2.57925
s(I49
S'W'
tp1430
F0.151279
s(I21
S'F'
tp1431
F-2.56799
s(I8
S'E'
tp1432
F2.2330399999999999
s(I17
S'F'
tp1433
F2.3485200000000002
s(I61
S'K'
tp1434
F13.3752
s(I46
S'M'
tp1435
F-0.82824500000000001
s(I6
S'P'
tp1436
F5.7478100000000003
s(I18
S'V'
tp1437
F-0.298649
s(I58
S'Y'
tp1438
F-3.0331000000000001
s(I6
S'F'
tp1439
F-1.5790500000000001
s(I37
S'G'
tp1440
F5.8656199999999998
s(I34
S'I'
tp1441
F1.5398700000000001
s(I38
S'T'
tp1442
F2.07986
s(I59
S'C'
tp1443
F7.2908600000000003
s(I67
S'E'
tp1444
F8.9082399999999993
s(I53
S'L'
tp1445
F-0.44638499999999998
s.