(dp1
S'GCGGAC'
p2
(lp3
(ccopy_reg
_reconstructor
p4
(cBio.Seq
Seq
p5
c__builtin__
object
p6
NtRp7
(dp8
S'alphabet'
p9
g4
(cBio.Alphabet
SingleLetterAlphabet
p10
g6
NtRp11
sS'_data'
p12
S'TCGACTTGTACAATTGTCAGATCGG'
p13
sb(lp14
I33
aI31
aI33
aI37
aI37
aI37
aI37
aI37
aI39
aI38
aI39
aI38
aI39
aI41
aI41
aI40
aI39
aI40
aI41
aI41
aI41
aI40
aI41
aI41
aI41
atp15
a(g4
(g5
g6
NtRp16
(dp17
g9
g11
sg12
S'CTACGGGGAGTTTTGGGGAGATCGG'
p18
sb(lp19
I34
aI34
aI34
aI37
aI37
aI37
aI37
aI37
aI39
aI39
aI39
aI39
aI39
aI41
aI41
aI41
aI41
aI41
aI41
aI41
aI40
aI41
aI41
aI41
aI41
atp20
a(g4
(g5
g6
NtRp21
(dp22
g9
g11
sg12
S'CGCCCTTTAACCAGACCAAGATCGG'
p23
sb(lp24
I34
aI34
aI34
aI37
aI37
aI37
aI37
aI37
aI39
aI39
aI39
aI39
aI39
aI41
aI40
aI41
aI41
aI41
aI41
aI41
aI41
aI34
aI38
aI38
aI40
atp25
a(g4
(g5
g6
NtRp26
(dp27
g9
g11
sg12
S'AGTTGTCGAGGATTCTAAAGATCGG'
p28
sb(lp29
I31
aI31
aI34
aI37
aI37
aI37
aI37
aI37
aI39
aI39
aI39
aI39
aI39
aI41
aI41
aI41
aI40
aI41
aI41
aI41
aI41
aI41
aI41
aI41
aI41
atp30
a(g4
(g5
g6
NtRp31
(dp32
g9
g11
sg12
S'GGGATCTAATGCGGAAACAGATCGG'
p33
sb(lp34
I34
aI34
aI34
aI37
aI37
aI37
aI37
aI37
aI39
aI39
aI39
aI39
aI39
aI41
aI41
aI41
aI41
aI41
aI41
aI41
aI41
aI41
aI41
aI41
aI41
atp35
a(g4
(g5
g6
NtRp36
(dp37
g9
g11
sg12
S'CCCCCTTCTGTATTGTACAGATCGG'
p38
sb(lp39
I34
aI34
aI34
aI37
aI37
aI37
aI37
aI37
aI39
aI39
aI39
aI39
aI39
aI41
aI41
aI40
aI40
aI41
aI41
aI41
aI41
aI41
aI41
aI41
aI41
atp40
a(g4
(g5
g6
NtRp41
(dp42
g9
g11
sg12
S'CAGGGGCGTCAGGGAGCGAGATCGG'
p43
sb(lp44
I34
aI34
aI34
aI37
aI37
aI37
aI37
aI37
aI37
aI37
aI39
aI39
aI39
aI40
aI40
aI40
aI40
aI40
aI40
aI40
aI38
aI34
aI39
aI38
aI38
atp45
a(g4
(g5
g6
NtRp46
(dp47
g9
g11
sg12
S'GAGTGTAATTTTTCATTTAGATCGG'
p48
sb(lp49
I33
aI34
aI34
aI35
aI37
aI37
aI37
aI37
aI39
aI39
aI39
aI39
aI39
aI41
aI41
aI41
aI41
aI41
aI41
aI41
aI41
aI41
aI41
aI41
aI41
atp50
a(g4
(g5
g6
NtRp51
(dp52
g9
g11
sg12
S'TAGCTGTCGAAGGCAATGAGATCGG'
p53
sb(lp54
I34
aI34
aI34
aI37
aI37
aI37
aI37
aI37
aI38
aI39
aI39
aI39
aI39
aI41
aI41
aI41
aI41
aI41
aI41
aI41
aI38
aI31
aI38
aI38
aI40
atp55
a(g4
(g5
g6
NtRp56
(dp57
g9
g11
sg12
S'TTGCCTACATGCGAGCTAAGATCGG'
p58
sb(lp59
I31
aI34
aI34
aI37
aI37
aI37
aI37
aI37
aI39
aI38
aI39
aI39
aI39
aI41
aI41
aI41
aI41
aI41
aI41
aI40
aI40
aI33
aI39
aI38
aI40
atp60
a(g4
(g5
g6
NtRp61
(dp62
g9
g11
sg12
S'TGAGCCGAACGCCCCTATAGATCGG'
p63
sb(lp64
I34
aI34
aI34
aI37
aI37
aI37
aI37
aI37
aI39
aI39
aI39
aI39
aI39
aI41
aI41
aI41
aI41
aI41
aI41
aI41
aI41
aI41
aI41
aI41
aI41
atp65
a(g4
(g5
g6
NtRp66
(dp67
g9
g11
sg12
S'TCTCGGCTCACGGGCTGTAGATCGG'
p68
sb(lp69
I34
aI34
aI34
aI37
aI37
aI37
aI37
aI37
aI39
aI39
aI39
aI39
aI39
aI41
aI41
aI41
aI41
aI40
aI41
aI41
aI40
aI41
aI41
aI41
aI41
atp70
a(g4
(g5
g6
NtRp71
(dp72
g9
g11
sg12
S'TCCTCCCCTTCACCTCGAAGATCGG'
p73
sb(lp74
I34
aI34
aI34
aI37
aI37
aI37
aI37
aI37
aI39
aI39
aI39
aI39
aI39
aI41
aI41
aI41
aI41
aI41
aI41
aI41
aI41
aI41
aI41
aI41
aI41
atp75
a(g4
(g5
g6
NtRp76
(dp77
g9
g11
sg12
S'TAACTGTCCTGCTTGATAAGATCGG'
p78
sb(lp79
I34
aI34
aI34
aI37
aI37
aI37
aI37
aI37
aI39
aI39
aI39
aI39
aI39
aI41
aI41
aI41
aI41
aI41
aI41
aI41
aI41
aI41
aI41
aI41
aI41
atp80
a(g4
(g5
g6
NtRp81
(dp82
g9
g11
sg12
S'NCGTATGTTCGGGTGCTTAGATCGG'
p83
sb(lp84
I2
aI16
aI28
aI35
aI35
aI37
aI37
aI36
aI39
aI39
aI39
aI39
aI39
aI37
aI38
aI40
aI41
aI41
aI41
aI41
aI41
aI41
aI41
aI41
aI41
atp85
a(g4
(g5
g6
NtRp86
(dp87
g9
g11
sg12
S'CACGGGTGAGTACGTCACAGATCGG'
p88
sb(lp89
I34
aI34
aI34
aI37
aI37
aI37
aI35
aI35
aI39
aI39
aI39
aI39
aI39
aI41
aI40
aI41
aI41
aI41
aI41
aI41
aI41
aI41
aI41
aI41
aI41
atp90
a(g4
(g5
g6
NtRp91
(dp92
g9
g11
sg12
S'ATAATATTCGTGAACCGCAGATCGG'
p93
sb(lp94
I34
aI34
aI34
aI37
aI37
aI37
aI37
aI37
aI39
aI39
aI37
aI39
aI39
aI41
aI41
aI41
aI41
aI41
aI41
aI41
aI41
aI41
aI41
aI41
aI41
atp95
a(g4
(g5
g6
NtRp96
(dp97
g9
g11
sg12
S'CCCGCTCCCACCAATGGAGATCGGA'
p98
sb(lp99
I34
aI34
aI34
aI37
aI37
aI37
aI37
aI37
aI39
aI39
aI39
aI39
aI39
aI41
aI41
aI41
aI41
aI41
aI41
aI40
aI41
aI41
aI41
aI41
aI41
atp100
a(g4
(g5
g6
NtRp101
(dp102
g9
g11
sg12
S'TCGTGGAAAATGAAGTGTAGATCGG'
p103
sb(lp104
I33
aI34
aI34
aI37
aI37
aI37
aI37
aI37
aI39
aI39
aI39
aI39
aI39
aI41
aI41
aI39
aI40
aI39
aI39
aI41
aI41
aI41
aI41
aI41
aI41
atp105
a(g4
(g5
g6
NtRp106
(dp107
g9
g11
sg12
S'GCGACCACCACAGTTATAAGATCGG'
p108
sb(lp109
I34
aI34
aI34
aI37
aI37
aI37
aI37
aI37
aI39
aI39
aI39
aI39
aI39
aI41
aI41
aI41
aI41
aI41
aI41
aI41
aI41
aI41
aI41
aI41
aI41
atp110
asS'CTCTAC'
p111
(lp112
(g4
(g5
g6
NtRp113
(dp114
g9
g11
sg12
S'TCGACTTGTACAATTGTCAGATCGG'
p115
sb(lp116
I33
aI31
aI33
aI37
aI37
aI37
aI37
aI37
aI39
aI38
aI39
aI38
aI39
aI41
aI41
aI40
aI39
aI40
aI41
aI41
aI41
aI40
aI41
aI41
aI41
atp117
a(g4
(g5
g6
NtRp118
(dp119
g9
g11
sg12
S'GGTGTTAATGCCACTCCTCTCCCGA'
p120
sb(lp121
I31
aI33
aI33
aI35
aI35
aI37
aI37
aI37
aI39
aI39
aI39
aI39
aI39
aI41
aI41
aI41
aI41
aI41
aI41
aI41
aI41
aI41
aI41
aI41
aI40
atp122
a(g4
(g5
g6
NtRp123
(dp124
g9
g11
sg12
S'CCCCCTTCTGTATTGTACAGATCGG'
p125
sb(lp126
I34
aI34
aI34
aI37
aI37
aI37
aI37
aI37
aI39
aI39
aI39
aI39
aI39
aI41
aI41
aI40
aI40
aI41
aI41
aI41
aI41
aI41
aI41
aI41
aI41
atp127
a(g4
(g5
g6
NtRp128
(dp129
g9
g11
sg12
S'GAGTGTAATTTTTCATTTAGATCGG'
p130
sb(lp131
I33
aI34
aI34
aI35
aI37
aI37
aI37
aI37
aI39
aI39
aI39
aI39
aI39
aI41
aI41
aI41
aI41
aI41
aI41
aI41
aI41
aI41
aI41
aI41
aI41
atp132
a(g4
(g5
g6
NtRp133
(dp134
g9
g11
sg12
S'TTGCCTACATGCGAGCTAAGATCGG'
p135
sb(lp136
I31
aI34
aI34
aI37
aI37
aI37
aI37
aI37
aI39
aI38
aI39
aI39
aI39
aI41
aI41
aI41
aI41
aI41
aI41
aI40
aI40
aI33
aI39
aI38
aI40
atp137
a(g4
(g5
g6
NtRp138
(dp139
g9
g11
sg12
S'CTCCCCCGTACACCCTTAAGATCGG'
p140
sb(lp141
I34
aI34
aI34
aI37
aI37
aI37
aI37
aI37
aI39
aI39
aI39
aI39
aI39
aI41
aI41
aI41
aI41
aI41
aI41
aI41
aI41
aI41
aI41
aI41
aI41
atp142
a(g4
(g5
g6
NtRp143
(dp144
g9
g11
sg12
S'TGAGCCGAACGCCCCTATAGATCGG'
p145
sb(lp146
I34
aI34
aI34
aI37
aI37
aI37
aI37
aI37
aI39
aI39
aI39
aI39
aI39
aI41
aI41
aI41
aI41
aI41
aI41
aI41
aI41
aI41
aI41
aI41
aI41
atp147
a(g4
(g5
g6
NtRp148
(dp149
g9
g11
sg12
S'TCTCGGCTCACGGGCTGTAGATCGG'
p150
sb(lp151
I34
aI34
aI34
aI37
aI37
aI37
aI37
aI37
aI39
aI39
aI39
aI39
aI39
aI41
aI41
aI41
aI41
aI40
aI41
aI41
aI40
aI41
aI41
aI41
aI41
atp152
a(g4
(g5
g6
NtRp153
(dp154
g9
g11
sg12
S'GTGGGATACCTTCCTAGTAGATCGG'
p155
sb(lp156
I34
aI33
aI33
aI37
aI37
aI37
aI37
aI37
aI39
aI39
aI39
aI39
aI39
aI41
aI41
aI41
aI41
aI39
aI41
aI41
aI41
aI41
aI41
aI41
aI41
atp157
a(g4
(g5
g6
NtRp158
(dp159
g9
g11
sg12
S'CATGACAAATGGTGCGAGAGATCGG'
p160
sb(lp161
I34
aI34
aI34
aI37
aI37
aI37
aI37
aI37
aI39
aI39
aI39
aI39
aI39
aI40
aI41
aI41
aI41
aI41
aI41
aI41
aI41
aI41
aI41
aI41
aI41
atp162
a(g4
(g5
g6
NtRp163
(dp164
g9
g11
sg12
S'TGACACGACTGAGTCTCAAGATCGG'
p165
sb(lp166
I34
aI34
aI34
aI37
aI37
aI37
aI37
aI37
aI39
aI39
aI39
aI39
aI39
aI39
aI41
aI41
aI41
aI41
aI41
aI41
aI41
aI41
aI41
aI41
aI41
atp167
asS'TTGACT'
p168
(lp169
(g4
(g5
g6
NtRp170
(dp171
g9
g11
sg12
S'TCTTTCCTTGGTGTGCCGAGATCGG'
p172
sb(lp173
I34
aI34
aI34
aI37
aI37
aI37
aI37
aI37
aI39
aI39
aI39
aI39
aI39
aI40
aI40
aI41
aI41
aI41
aI41
aI41
aI41
aI41
aI41
aI41
aI41
atp174
a(g4
(g5
g6
NtRp175
(dp176
g9
g11
sg12
S'AGGGGACTGCCCTGAGCTAGATCGG'
p177
sb(lp178
I34
aI34
aI34
aI37
aI37
aI37
aI37
aI37
aI39
aI39
aI39
aI39
aI39
aI41
aI41
aI41
aI41
aI41
aI41
aI41
aI41
aI41
aI41
aI41
aI41
atp179
a(g4
(g5
g6
NtRp180
(dp181
g9
g11
sg12
S'NAGATTATTGGTTTCATTAGATCGG'
p182
sb(lp183
I2
aI16
aI33
aI35
aI37
aI37
aI37
aI37
aI39
aI39
aI39
aI39
aI39
aI41
aI41
aI41
aI41
aI41
aI41
aI41
aI41
aI41
aI41
aI41
aI41
atp184
a(g4
(g5
g6
NtRp185
(dp186
g9
g11
sg12
S'TCCAAGGAATATAACAAGAGATCGG'
p187
sb(lp188
I34
aI34
aI34
aI37
aI37
aI37
aI37
aI37
aI39
aI39
aI39
aI39
aI39
aI41
aI41
aI41
aI41
aI41
aI41
aI41
aI41
aI41
aI41
aI41
aI41
atp189
asS'TGACAT'
p190
(lp191
(g4
(g5
g6
NtRp192
(dp193
g9
g11
sg12
S'CAGTGGGCCAACGATTTAAGATCGG'
p194
sb(lp195
I34
aI34
aI34
aI37
aI37
aI37
aI37
aI37
aI39
aI39
aI39
aI39
aI39
aI41
aI41
aI41
aI41
aI41
aI41
aI41
aI41
aI41
aI41
aI41
aI41
atp196
a(g4
(g5
g6
NtRp197
(dp198
g9
g11
sg12
S'AGACGTAGGAAGGAAGCCAGATCGG'
p199
sb(lp200
I34
aI34
aI34
aI37
aI37
aI37
aI37
aI37
aI39
aI39
aI39
aI39
aI39
aI41
aI41
aI41
aI41
aI41
aI41
aI41
aI41
aI41
aI41
aI41
aI41
atp201
asS'GGACGG'
p202
(lp203
(g4
(g5
g6
NtRp204
(dp205
g9
g11
sg12
S'TCAGAGGATATTACTTGAAGATCGG'
p206
sb(lp207
I34
aI34
aI34
aI37
aI37
aI37
aI37
aI37
aI39
aI39
aI39
aI39
aI39
aI41
aI41
aI41
aI41
aI41
aI41
aI41
aI41
aI41
aI41
aI41
aI41
atp208
a(g4
(g5
g6
NtRp209
(dp210
g9
g11
sg12
S'GCTATTCCCCGCGAGCGTAGATCGG'
p211
sb(lp212
I34
aI34
aI34
aI37
aI37
aI37
aI37
aI37
aI39
aI39
aI39
aI39
aI39
aI41
aI41
aI41
aI41
aI41
aI41
aI41
aI40
aI41
aI41
aI41
aI40
atp213
a(g4
(g5
g6
NtRp214
(dp215
g9
g11
sg12
S'CCGCACCTAGTCGGAACAAGATCGG'
p216
sb(lp217
I34
aI34
aI34
aI37
aI37
aI37
aI37
aI37
aI39
aI39
aI39
aI39
aI39
aI41
aI41
aI41
aI41
aI41
aI41
aI41
aI41
aI41
aI41
aI41
aI41
atp218
a(g4
(g5
g6
NtRp219
(dp220
g9
g11
sg12
S'GGTCCGTGGCTGGTGTGGAGATCGG'
p221
sb(lp222
I34
aI34
aI34
aI37
aI37
aI37
aI37
aI37
aI39
aI39
aI39
aI39
aI39
aI38
aI39
aI38
aI39
aI40
aI39
aI41
aI41
aI41
aI41
aI41
aI41
atp223
a(g4
(g5
g6
NtRp224
(dp225
g9
g11
sg12
S'GCGCGAGATTTTCGGAGGAGATCGG'
p226
sb(lp227
I34
aI34
aI34
aI37
aI37
aI37
aI37
aI37
aI39
aI39
aI39
aI39
aI39
aI41
aI41
aI41
aI41
aI41
aI41
aI41
aI41
aI41
aI41
aI41
aI41
atp228
a(g4
(g5
g6
NtRp229
(dp230
g9
g11
sg12
S'AAAGAGAAAGGTGCTGTAAGATCGG'
p231
sb(lp232
I34
aI34
aI34
aI37
aI37
aI37
aI37
aI37
aI39
aI39
aI39
aI37
aI39
aI41
aI41
aI41
aI40
aI41
aI41
aI41
aI41
aI41
aI41
aI41
aI40
atp233
a(g4
(g5
g6
NtRp234
(dp235
g9
g11
sg12
S'NTCTACATCAATCAGAGAAGATCGG'
p236
sb(lp237
I2
aI16
aI28
aI35
aI37
aI37
aI37
aI37
aI39
aI39
aI39
aI39
aI39
aI41
aI41
aI41
aI41
aI41
aI41
aI41
aI41
aI41
aI41
aI41
aI41
atp238
a(g4
(g5
g6
NtRp239
(dp240
g9
g11
sg12
S'GGGTATGAACTTCTAAGCAGATCGG'
p241
sb(lp242
I33
aI34
aI34
aI35
aI35
aI37
aI37
aI37
aI39
aI39
aI39
aI39
aI39
aI41
aI41
aI41
aI41
aI41
aI41
aI41
aI41
aI41
aI41
aI41
aI40
atp243
a(g4
(g5
g6
NtRp244
(dp245
g9
g11
sg12
S'TAAGGGTCAGCCTGGGAGAGATCGG'
p246
sb(lp247
I33
aI31
aI33
aI37
aI37
aI37
aI35
aI36
aI39
aI39
aI39
aI39
aI39
aI41
aI41
aI41
aI41
aI41
aI41
aI40
aI41
aI41
aI41
aI41
aI41
atp248
a(g4
(g5
g6
NtRp249
(dp250
g9
g11
sg12
S'CATACCTCGTGCAGGCTCAGATCGG'
p251
sb(lp252
I34
aI34
aI34
aI37
aI37
aI37
aI37
aI37
aI39
aI39
aI39
aI39
aI39
aI41
aI41
aI41
aI41
aI41
aI41
aI41
aI41
aI41
aI41
aI41
aI41
atp253
a(g4
(g5
g6
NtRp254
(dp255
g9
g11
sg12
S'NTAAGTTGTACTGAATGTAGATCGG'
p256
sb(lp257
I2
aI19
aI28
aI35
aI37
aI37
aI37
aI37
aI39
aI39
aI39
aI39
aI39
aI41
aI41
aI41
aI41
aI40
aI41
aI41
aI41
aI41
aI41
aI41
aI41
atp258
a(g4
(g5
g6
NtRp259
(dp260
g9
g11
sg12
S'GGAGCTGAGACTAATCCGAGATCGG'
p261
sb(lp262
I34
aI34
aI34
aI37
aI37
aI37
aI37
aI37
aI39
aI39
aI39
aI39
aI39
aI41
aI41
aI41
aI41
aI41
aI41
aI41
aI41
aI41
aI41
aI41
aI41
atp263
a(g4
(g5
g6
NtRp264
(dp265
g9
g11
sg12
S'GCCAAGGGTCGGATTGTGAGATCGG'
p266
sb(lp267
I34
aI34
aI34
aI37
aI37
aI37
aI37
aI37
aI39
aI39
aI39
aI39
aI39
aI41
aI41
aI41
aI40
aI41
aI41
aI41
aI41
aI41
aI41
aI41
aI41
atp268
asS'GGAACT'
p269
(lp270
(g4
(g5
g6
NtRp271
(dp272
g9
g11
sg12
S'TGGGGTGTGCAGTCTTCTAGATCGG'
p273
sb(lp274
I34
aI34
aI34
aI37
aI37
aI35
aI35
aI35
aI39
aI39
aI39
aI39
aI39
aI41
aI41
aI41
aI41
aI41
aI41
aI41
aI41
aI41
aI41
aI41
aI41
atp275
a(g4
(g5
g6
NtRp276
(dp277
g9
g11
sg12
S'ACGGCATCTGTGTCGGAAAGATCGG'
p278
sb(lp279
I34
aI34
aI34
aI37
aI37
aI37
aI37
aI37
aI39
aI39
aI39
aI39
aI39
aI41
aI41
aI41
aI41
aI41
aI41
aI41
aI41
aI41
aI41
aI41
aI41
atp280
a(g4
(g5
g6
NtRp281
(dp282
g9
g11
sg12
S'AATAAATTGAACATTTGGAGATCGG'
p283
sb(lp284
I34
aI34
aI34
aI37
aI37
aI37
aI37
aI37
aI39
aI39
aI39
aI39
aI39
aI41
aI41
aI41
aI41
aI41
aI41
aI41
aI41
aI41
aI41
aI41
aI41
atp285
as.